	.text
	.syntax unified
	.eabi_attribute	67, "2.09"	@ Tag_conformance
	.cpu	cortex-m23
	.eabi_attribute	6, 16	@ Tag_CPU_arch
	.eabi_attribute	7, 77	@ Tag_CPU_arch_profile
	.eabi_attribute	8, 0	@ Tag_ARM_ISA_use
	.eabi_attribute	9, 3	@ Tag_THUMB_ISA_use
	.eabi_attribute	34, 0	@ Tag_CPU_unaligned_access
	.eabi_attribute	17, 1	@ Tag_ABI_PCS_GOT_use
	.eabi_attribute	20, 2	@ Tag_ABI_FP_denormal
	.eabi_attribute	21, 0	@ Tag_ABI_FP_exceptions
	.eabi_attribute	23, 1	@ Tag_ABI_FP_number_model
	.eabi_attribute	24, 1	@ Tag_ABI_align_needed
	.eabi_attribute	25, 1	@ Tag_ABI_align_preserved
	.eabi_attribute	38, 1	@ Tag_ABI_FP_16bit_format
	.eabi_attribute	18, 2	@ Tag_ABI_PCS_wchar_t
	.eabi_attribute	26, 1	@ Tag_ABI_enum_size
	.eabi_attribute	14, 0	@ Tag_ABI_PCS_R9_use
	.file	"gd32e23x_pmu.c"
	.file	1 "D:\\GD32\\GD32E230\\Oscilloscope\\Project" "../Firmware/GD32E23x_standard_peripheral/Include\\gd32e23x_rcu.h"
	.file	2 "D:\\GD32\\GD32E230\\Oscilloscope\\Project" "../Firmware/CMSIS/GD/GD32E23x/Include\\gd32e23x.h"
	.file	3 "D:\\Keil_arm\\ARM\\ARMCLANG\\Bin\\..\\include" "stdint.h"
	.file	4 "D:/Keil_arm/pack/ARM/CMSIS/5.9.0/CMSIS/Core/Include" "core_cm23.h"
	.section	.text.pmu_deinit,"ax",%progbits
	.hidden	pmu_deinit                      @ -- Begin function pmu_deinit
	.globl	pmu_deinit
	.p2align	2
	.type	pmu_deinit,%function
	.code	16                              @ @pmu_deinit
	.thumb_func
pmu_deinit:
.Lfunc_begin0:
	.file	5 "D:\\GD32\\GD32E230\\Oscilloscope\\Project" "../Firmware/GD32E23x_standard_peripheral/Source/gd32e23x_pmu.c"
	.loc	5 44 0                          @ ../Firmware/GD32E23x_standard_peripheral/Source/gd32e23x_pmu.c:44:0
	.fnstart
	.cfi_sections .debug_frame
	.cfi_startproc
@ %bb.0:
	.save	{r7, lr}
	push	{r7, lr}
	.cfi_def_cfa_offset 8
	.cfi_offset lr, -4
	.cfi_offset r7, -8
	.pad	#8
	sub	sp, #8
	.cfi_def_cfa_offset 16
	ldr	r0, __arm_cp.0_0
.Ltmp0:
	.loc	5 46 5 prologue_end             @ ../Firmware/GD32E23x_standard_peripheral/Source/gd32e23x_pmu.c:46:5
	str	r0, [sp, #4]                    @ 4-byte Spill
	bl	rcu_periph_reset_enable
	ldr	r0, [sp, #4]                    @ 4-byte Reload
	.loc	5 47 5                          @ ../Firmware/GD32E23x_standard_peripheral/Source/gd32e23x_pmu.c:47:5
	bl	rcu_periph_reset_disable
	.loc	5 48 1                          @ ../Firmware/GD32E23x_standard_peripheral/Source/gd32e23x_pmu.c:48:1
	add	sp, #8
	pop	{r7, pc}
.Ltmp1:
	.p2align	2
@ %bb.1:
	.loc	5 0 1 is_stmt 0                 @ ../Firmware/GD32E23x_standard_peripheral/Source/gd32e23x_pmu.c:0:1
__arm_cp.0_0:
	.long	1052                            @ 0x41c
.Lcpi_end0:
	.size	__arm_cp.0_0, .Lcpi_end0-__arm_cp.0_0
.Lfunc_end0:
	.size	pmu_deinit, .Lfunc_end0-pmu_deinit
	.cfi_endproc
	.cantunwind
	.fnend
                                        @ -- End function
	.section	.text.pmu_lvd_select,"ax",%progbits
	.hidden	pmu_lvd_select                  @ -- Begin function pmu_lvd_select
	.globl	pmu_lvd_select
	.p2align	2
	.type	pmu_lvd_select,%function
	.code	16                              @ @pmu_lvd_select
	.thumb_func
pmu_lvd_select:
.Lfunc_begin1:
	.loc	5 66 0 is_stmt 1                @ ../Firmware/GD32E23x_standard_peripheral/Source/gd32e23x_pmu.c:66:0
	.fnstart
	.cfi_startproc
@ %bb.0:
	.pad	#4
	sub	sp, #4
	.cfi_def_cfa_offset 4
	str	r0, [sp]
	ldr	r1, __arm_cp.1_0
.Ltmp2:
	.loc	5 68 13 prologue_end            @ ../Firmware/GD32E23x_standard_peripheral/Source/gd32e23x_pmu.c:68:13
	ldr	r0, [r1]
	movs	r2, #16
	bics	r0, r2
	str	r0, [r1]
	.loc	5 70 13                         @ ../Firmware/GD32E23x_standard_peripheral/Source/gd32e23x_pmu.c:70:13
	ldr	r0, [r1]
	movs	r3, #224
	bics	r0, r3
	str	r0, [r1]
	.loc	5 72 16                         @ ../Firmware/GD32E23x_standard_peripheral/Source/gd32e23x_pmu.c:72:16
	ldr	r3, [sp]
	.loc	5 72 13 is_stmt 0               @ ../Firmware/GD32E23x_standard_peripheral/Source/gd32e23x_pmu.c:72:13
	ldr	r0, [r1]
	orrs	r0, r3
	str	r0, [r1]
	.loc	5 74 13 is_stmt 1               @ ../Firmware/GD32E23x_standard_peripheral/Source/gd32e23x_pmu.c:74:13
	ldr	r0, [r1]
	orrs	r0, r2
	str	r0, [r1]
	.loc	5 75 1                          @ ../Firmware/GD32E23x_standard_peripheral/Source/gd32e23x_pmu.c:75:1
	add	sp, #4
	bx	lr
.Ltmp3:
	.p2align	2
@ %bb.1:
	.loc	5 0 1 is_stmt 0                 @ ../Firmware/GD32E23x_standard_peripheral/Source/gd32e23x_pmu.c:0:1
__arm_cp.1_0:
	.long	1073770496                      @ 0x40007000
.Lcpi_end1:
	.size	__arm_cp.1_0, .Lcpi_end1-__arm_cp.1_0
.Lfunc_end1:
	.size	pmu_lvd_select, .Lfunc_end1-pmu_lvd_select
	.cfi_endproc
	.cantunwind
	.fnend
                                        @ -- End function
	.section	.text.pmu_ldo_output_select,"ax",%progbits
	.hidden	pmu_ldo_output_select           @ -- Begin function pmu_ldo_output_select
	.globl	pmu_ldo_output_select
	.p2align	2
	.type	pmu_ldo_output_select,%function
	.code	16                              @ @pmu_ldo_output_select
	.thumb_func
pmu_ldo_output_select:
.Lfunc_begin2:
	.loc	5 88 0 is_stmt 1                @ ../Firmware/GD32E23x_standard_peripheral/Source/gd32e23x_pmu.c:88:0
	.fnstart
	.cfi_startproc
@ %bb.0:
	.pad	#4
	sub	sp, #4
	.cfi_def_cfa_offset 4
	str	r0, [sp]
	ldr	r1, __arm_cp.2_0
.Ltmp4:
	.loc	5 89 13 prologue_end            @ ../Firmware/GD32E23x_standard_peripheral/Source/gd32e23x_pmu.c:89:13
	ldr	r0, [r1]
	movw	r2, #49152
	bics	r0, r2
	str	r0, [r1]
	.loc	5 90 16                         @ ../Firmware/GD32E23x_standard_peripheral/Source/gd32e23x_pmu.c:90:16
	ldr	r2, [sp]
	.loc	5 90 13 is_stmt 0               @ ../Firmware/GD32E23x_standard_peripheral/Source/gd32e23x_pmu.c:90:13
	ldr	r0, [r1]
	orrs	r0, r2
	str	r0, [r1]
	.loc	5 91 1 is_stmt 1                @ ../Firmware/GD32E23x_standard_peripheral/Source/gd32e23x_pmu.c:91:1
	add	sp, #4
	bx	lr
.Ltmp5:
	.p2align	2
@ %bb.1:
	.loc	5 0 1 is_stmt 0                 @ ../Firmware/GD32E23x_standard_peripheral/Source/gd32e23x_pmu.c:0:1
__arm_cp.2_0:
	.long	1073770496                      @ 0x40007000
.Lcpi_end2:
	.size	__arm_cp.2_0, .Lcpi_end2-__arm_cp.2_0
.Lfunc_end2:
	.size	pmu_ldo_output_select, .Lfunc_end2-pmu_ldo_output_select
	.cfi_endproc
	.cantunwind
	.fnend
                                        @ -- End function
	.section	.text.pmu_lvd_disable,"ax",%progbits
	.hidden	pmu_lvd_disable                 @ -- Begin function pmu_lvd_disable
	.globl	pmu_lvd_disable
	.p2align	2
	.type	pmu_lvd_disable,%function
	.code	16                              @ @pmu_lvd_disable
	.thumb_func
pmu_lvd_disable:
.Lfunc_begin3:
	.loc	5 100 0 is_stmt 1               @ ../Firmware/GD32E23x_standard_peripheral/Source/gd32e23x_pmu.c:100:0
	.fnstart
	.cfi_startproc
@ %bb.0:
	ldr	r1, __arm_cp.3_0
.Ltmp6:
	.loc	5 102 13 prologue_end           @ ../Firmware/GD32E23x_standard_peripheral/Source/gd32e23x_pmu.c:102:13
	ldr	r0, [r1]
	movs	r2, #16
	bics	r0, r2
	str	r0, [r1]
	.loc	5 103 1                         @ ../Firmware/GD32E23x_standard_peripheral/Source/gd32e23x_pmu.c:103:1
	bx	lr
.Ltmp7:
	.p2align	2
@ %bb.1:
	.loc	5 0 1 is_stmt 0                 @ ../Firmware/GD32E23x_standard_peripheral/Source/gd32e23x_pmu.c:0:1
__arm_cp.3_0:
	.long	1073770496                      @ 0x40007000
.Lcpi_end3:
	.size	__arm_cp.3_0, .Lcpi_end3-__arm_cp.3_0
.Lfunc_end3:
	.size	pmu_lvd_disable, .Lfunc_end3-pmu_lvd_disable
	.cfi_endproc
	.cantunwind
	.fnend
                                        @ -- End function
	.section	.text.pmu_to_sleepmode,"ax",%progbits
	.hidden	pmu_to_sleepmode                @ -- Begin function pmu_to_sleepmode
	.globl	pmu_to_sleepmode
	.p2align	2
	.type	pmu_to_sleepmode,%function
	.code	16                              @ @pmu_to_sleepmode
	.thumb_func
pmu_to_sleepmode:
.Lfunc_begin4:
	.loc	5 115 0 is_stmt 1               @ ../Firmware/GD32E23x_standard_peripheral/Source/gd32e23x_pmu.c:115:0
	.fnstart
	.cfi_startproc
@ %bb.0:
	.pad	#4
	sub	sp, #4
	.cfi_def_cfa_offset 4
	mov	r1, r0
                                        @ kill: def $r0 killed $r1
	mov	r0, sp
	strb	r1, [r0]
	ldr	r2, __arm_cp.4_0
.Ltmp8:
	.loc	5 117 14 prologue_end           @ ../Firmware/GD32E23x_standard_peripheral/Source/gd32e23x_pmu.c:117:14
	ldr	r1, [r2]
	movs	r3, #4
	bics	r1, r3
	str	r1, [r2]
.Ltmp9:
	.loc	5 120 19                        @ ../Firmware/GD32E23x_standard_peripheral/Source/gd32e23x_pmu.c:120:19
	ldrb	r0, [r0]
.Ltmp10:
	.loc	5 120 8 is_stmt 0               @ ../Firmware/GD32E23x_standard_peripheral/Source/gd32e23x_pmu.c:120:8
	cbnz	r0, .LBB4_2
	b	.LBB4_1
.LBB4_1:
.Ltmp11:
	.loc	5 121 9 is_stmt 1               @ ../Firmware/GD32E23x_standard_peripheral/Source/gd32e23x_pmu.c:121:9
	wfi
	.loc	5 122 5                         @ ../Firmware/GD32E23x_standard_peripheral/Source/gd32e23x_pmu.c:122:5
	b	.LBB4_3
.Ltmp12:
.LBB4_2:
	.loc	5 123 9                         @ ../Firmware/GD32E23x_standard_peripheral/Source/gd32e23x_pmu.c:123:9
	wfe
	.loc	5 124 9                         @ ../Firmware/GD32E23x_standard_peripheral/Source/gd32e23x_pmu.c:124:9
	wfe
	b	.LBB4_3
.Ltmp13:
.LBB4_3:
	.loc	5 126 1                         @ ../Firmware/GD32E23x_standard_peripheral/Source/gd32e23x_pmu.c:126:1
	add	sp, #4
	bx	lr
.Ltmp14:
	.p2align	2
@ %bb.4:
	.loc	5 0 1 is_stmt 0                 @ ../Firmware/GD32E23x_standard_peripheral/Source/gd32e23x_pmu.c:0:1
__arm_cp.4_0:
	.long	3758157072                      @ 0xe000ed10
.Lcpi_end4:
	.size	__arm_cp.4_0, .Lcpi_end4-__arm_cp.4_0
.Lfunc_end4:
	.size	pmu_to_sleepmode, .Lfunc_end4-pmu_to_sleepmode
	.cfi_endproc
	.cantunwind
	.fnend
                                        @ -- End function
	.section	.text.pmu_to_deepsleepmode,"ax",%progbits
	.hidden	pmu_to_deepsleepmode            @ -- Begin function pmu_to_deepsleepmode
	.globl	pmu_to_deepsleepmode
	.p2align	2
	.type	pmu_to_deepsleepmode,%function
	.code	16                              @ @pmu_to_deepsleepmode
	.thumb_func
pmu_to_deepsleepmode:
.Lfunc_begin5:
	.loc	5 142 0 is_stmt 1               @ ../Firmware/GD32E23x_standard_peripheral/Source/gd32e23x_pmu.c:142:0
	.fnstart
	.cfi_startproc
@ %bb.0:
	.pad	#8
	sub	sp, #8
	.cfi_def_cfa_offset 8
                                        @ kill: def $r2 killed $r1
	str	r0, [sp, #4]
	mov	r0, sp
	strb	r1, [r0]
	ldr	r2, __arm_cp.5_0
.Ltmp15:
	.loc	5 144 13 prologue_end           @ ../Firmware/GD32E23x_standard_peripheral/Source/gd32e23x_pmu.c:144:13
	ldr	r1, [r2]
	movs	r3, #3
	bics	r1, r3
	str	r1, [r2]
	.loc	5 147 16                        @ ../Firmware/GD32E23x_standard_peripheral/Source/gd32e23x_pmu.c:147:16
	ldr	r3, [sp, #4]
	.loc	5 147 13 is_stmt 0              @ ../Firmware/GD32E23x_standard_peripheral/Source/gd32e23x_pmu.c:147:13
	ldr	r1, [r2]
	orrs	r1, r3
	str	r1, [r2]
	ldr	r2, __arm_cp.5_1
	.loc	5 150 14 is_stmt 1              @ ../Firmware/GD32E23x_standard_peripheral/Source/gd32e23x_pmu.c:150:14
	ldr	r1, [r2]
	movs	r3, #4
	orrs	r1, r3
	str	r1, [r2]
.Ltmp16:
	.loc	5 153 19                        @ ../Firmware/GD32E23x_standard_peripheral/Source/gd32e23x_pmu.c:153:19
	ldrb	r0, [r0]
.Ltmp17:
	.loc	5 153 8 is_stmt 0               @ ../Firmware/GD32E23x_standard_peripheral/Source/gd32e23x_pmu.c:153:8
	cbnz	r0, .LBB5_2
	b	.LBB5_1
.LBB5_1:
.Ltmp18:
	.loc	5 154 9 is_stmt 1               @ ../Firmware/GD32E23x_standard_peripheral/Source/gd32e23x_pmu.c:154:9
	wfi
	.loc	5 155 5                         @ ../Firmware/GD32E23x_standard_peripheral/Source/gd32e23x_pmu.c:155:5
	b	.LBB5_3
.Ltmp19:
.LBB5_2:
	.loc	5 156 9                         @ ../Firmware/GD32E23x_standard_peripheral/Source/gd32e23x_pmu.c:156:9
	sev
	.loc	5 157 9                         @ ../Firmware/GD32E23x_standard_peripheral/Source/gd32e23x_pmu.c:157:9
	wfe
	.loc	5 158 9                         @ ../Firmware/GD32E23x_standard_peripheral/Source/gd32e23x_pmu.c:158:9
	wfe
	b	.LBB5_3
.Ltmp20:
.LBB5_3:
	.loc	5 0 9 is_stmt 0                 @ ../Firmware/GD32E23x_standard_peripheral/Source/gd32e23x_pmu.c:0:9
	ldr	r1, __arm_cp.5_1
	.loc	5 162 14 is_stmt 1              @ ../Firmware/GD32E23x_standard_peripheral/Source/gd32e23x_pmu.c:162:14
	ldr	r0, [r1]
	movs	r2, #4
	bics	r0, r2
	str	r0, [r1]
	.loc	5 163 1                         @ ../Firmware/GD32E23x_standard_peripheral/Source/gd32e23x_pmu.c:163:1
	add	sp, #8
	bx	lr
.Ltmp21:
	.p2align	2
@ %bb.4:
	.loc	5 0 1 is_stmt 0                 @ ../Firmware/GD32E23x_standard_peripheral/Source/gd32e23x_pmu.c:0:1
__arm_cp.5_0:
	.long	1073770496                      @ 0x40007000
.Lcpi_end5:
	.size	__arm_cp.5_0, .Lcpi_end5-__arm_cp.5_0
__arm_cp.5_1:
	.long	3758157072                      @ 0xe000ed10
.Lcpi_end6:
	.size	__arm_cp.5_1, .Lcpi_end6-__arm_cp.5_1
.Lfunc_end5:
	.size	pmu_to_deepsleepmode, .Lfunc_end5-pmu_to_deepsleepmode
	.cfi_endproc
	.cantunwind
	.fnend
                                        @ -- End function
	.section	.text.pmu_to_standbymode,"ax",%progbits
	.hidden	pmu_to_standbymode              @ -- Begin function pmu_to_standbymode
	.globl	pmu_to_standbymode
	.p2align	2
	.type	pmu_to_standbymode,%function
	.code	16                              @ @pmu_to_standbymode
	.thumb_func
pmu_to_standbymode:
.Lfunc_begin6:
	.loc	5 172 0 is_stmt 1               @ ../Firmware/GD32E23x_standard_peripheral/Source/gd32e23x_pmu.c:172:0
	.fnstart
	.cfi_startproc
@ %bb.0:
	ldr	r1, __arm_cp.6_0
.Ltmp22:
	.loc	5 174 14 prologue_end           @ ../Firmware/GD32E23x_standard_peripheral/Source/gd32e23x_pmu.c:174:14
	ldr	r0, [r1]
	movs	r2, #3
	bics	r0, r2
	str	r0, [r1]
	ldr	r1, __arm_cp.6_1
	.loc	5 175 14                        @ ../Firmware/GD32E23x_standard_peripheral/Source/gd32e23x_pmu.c:175:14
	ldr	r0, [r1]
	movs	r2, #1
	lsls	r2, r2, #16
	bics	r0, r2
	str	r0, [r1]
	ldr	r2, __arm_cp.6_2
	.loc	5 178 13                        @ ../Firmware/GD32E23x_standard_peripheral/Source/gd32e23x_pmu.c:178:13
	ldr	r0, [r2]
	movs	r1, #2
	orrs	r0, r1
	str	r0, [r2]
	.loc	5 181 13                        @ ../Firmware/GD32E23x_standard_peripheral/Source/gd32e23x_pmu.c:181:13
	ldr	r1, [r2]
	movs	r0, #4
	orrs	r1, r0
	str	r1, [r2]
	ldr	r2, __arm_cp.6_3
	.loc	5 184 14                        @ ../Firmware/GD32E23x_standard_peripheral/Source/gd32e23x_pmu.c:184:14
	ldr	r1, [r2]
	orrs	r1, r0
	str	r1, [r2]
	ldr	r2, __arm_cp.6_4
	.loc	5 186 26                        @ ../Firmware/GD32E23x_standard_peripheral/Source/gd32e23x_pmu.c:186:26
	ldr	r1, [r2]
	ldr	r3, __arm_cp.6_5
	ands	r1, r3
	str	r1, [r2]
	mvns	r0, r0
	ldr	r1, __arm_cp.6_6
	.loc	5 187 27                        @ ../Firmware/GD32E23x_standard_peripheral/Source/gd32e23x_pmu.c:187:27
	str	r0, [r1]
	movs	r0, #0
	mvns	r0, r0
	ldr	r1, __arm_cp.6_7
	.loc	5 188 27                        @ ../Firmware/GD32E23x_standard_peripheral/Source/gd32e23x_pmu.c:188:27
	str	r0, [r1]
	ldr	r1, __arm_cp.6_8
	.loc	5 189 27                        @ ../Firmware/GD32E23x_standard_peripheral/Source/gd32e23x_pmu.c:189:27
	str	r0, [r1]
	.loc	5 192 5                         @ ../Firmware/GD32E23x_standard_peripheral/Source/gd32e23x_pmu.c:192:5
	wfi
	.loc	5 193 1                         @ ../Firmware/GD32E23x_standard_peripheral/Source/gd32e23x_pmu.c:193:1
	bx	lr
.Ltmp23:
	.p2align	2
@ %bb.1:
	.loc	5 0 1 is_stmt 0                 @ ../Firmware/GD32E23x_standard_peripheral/Source/gd32e23x_pmu.c:0:1
__arm_cp.6_0:
	.long	1073876996                      @ 0x40021004
.Lcpi_end7:
	.size	__arm_cp.6_0, .Lcpi_end7-__arm_cp.6_0
__arm_cp.6_1:
	.long	1073876992                      @ 0x40021000
.Lcpi_end8:
	.size	__arm_cp.6_1, .Lcpi_end8-__arm_cp.6_1
__arm_cp.6_2:
	.long	1073770496                      @ 0x40007000
.Lcpi_end9:
	.size	__arm_cp.6_2, .Lcpi_end9-__arm_cp.6_2
__arm_cp.6_3:
	.long	3758157072                      @ 0xe000ed10
.Lcpi_end10:
	.size	__arm_cp.6_3, .Lcpi_end10-__arm_cp.6_3
__arm_cp.6_4:
	.long	3758153744                      @ 0xe000e010
.Lcpi_end11:
	.size	__arm_cp.6_4, .Lcpi_end11-__arm_cp.6_4
__arm_cp.6_5:
	.long	65540                           @ 0x10004
.Lcpi_end12:
	.size	__arm_cp.6_5, .Lcpi_end12-__arm_cp.6_5
__arm_cp.6_6:
	.long	3758154112                      @ 0xe000e180
.Lcpi_end13:
	.size	__arm_cp.6_6, .Lcpi_end13-__arm_cp.6_6
__arm_cp.6_7:
	.long	3758154116                      @ 0xe000e184
.Lcpi_end14:
	.size	__arm_cp.6_7, .Lcpi_end14-__arm_cp.6_7
__arm_cp.6_8:
	.long	3758154120                      @ 0xe000e188
.Lcpi_end15:
	.size	__arm_cp.6_8, .Lcpi_end15-__arm_cp.6_8
.Lfunc_end6:
	.size	pmu_to_standbymode, .Lfunc_end6-pmu_to_standbymode
	.cfi_endproc
	.cantunwind
	.fnend
                                        @ -- End function
	.section	.text.pmu_wakeup_pin_enable,"ax",%progbits
	.hidden	pmu_wakeup_pin_enable           @ -- Begin function pmu_wakeup_pin_enable
	.globl	pmu_wakeup_pin_enable
	.p2align	2
	.type	pmu_wakeup_pin_enable,%function
	.code	16                              @ @pmu_wakeup_pin_enable
	.thumb_func
pmu_wakeup_pin_enable:
.Lfunc_begin7:
	.loc	5 207 0 is_stmt 1               @ ../Firmware/GD32E23x_standard_peripheral/Source/gd32e23x_pmu.c:207:0
	.fnstart
	.cfi_startproc
@ %bb.0:
	.pad	#4
	sub	sp, #4
	.cfi_def_cfa_offset 4
	str	r0, [sp]
.Ltmp24:
	.loc	5 208 15 prologue_end           @ ../Firmware/GD32E23x_standard_peripheral/Source/gd32e23x_pmu.c:208:15
	ldr	r2, [sp]
	ldr	r1, __arm_cp.7_0
	.loc	5 208 12 is_stmt 0              @ ../Firmware/GD32E23x_standard_peripheral/Source/gd32e23x_pmu.c:208:12
	ldr	r0, [r1]
	orrs	r0, r2
	str	r0, [r1]
	.loc	5 209 1 is_stmt 1               @ ../Firmware/GD32E23x_standard_peripheral/Source/gd32e23x_pmu.c:209:1
	add	sp, #4
	bx	lr
.Ltmp25:
	.p2align	2
@ %bb.1:
	.loc	5 0 1 is_stmt 0                 @ ../Firmware/GD32E23x_standard_peripheral/Source/gd32e23x_pmu.c:0:1
__arm_cp.7_0:
	.long	1073770500                      @ 0x40007004
.Lcpi_end16:
	.size	__arm_cp.7_0, .Lcpi_end16-__arm_cp.7_0
.Lfunc_end7:
	.size	pmu_wakeup_pin_enable, .Lfunc_end7-pmu_wakeup_pin_enable
	.cfi_endproc
	.cantunwind
	.fnend
                                        @ -- End function
	.section	.text.pmu_wakeup_pin_disable,"ax",%progbits
	.hidden	pmu_wakeup_pin_disable          @ -- Begin function pmu_wakeup_pin_disable
	.globl	pmu_wakeup_pin_disable
	.p2align	2
	.type	pmu_wakeup_pin_disable,%function
	.code	16                              @ @pmu_wakeup_pin_disable
	.thumb_func
pmu_wakeup_pin_disable:
.Lfunc_begin8:
	.loc	5 223 0 is_stmt 1               @ ../Firmware/GD32E23x_standard_peripheral/Source/gd32e23x_pmu.c:223:0
	.fnstart
	.cfi_startproc
@ %bb.0:
	.pad	#4
	sub	sp, #4
	.cfi_def_cfa_offset 4
	str	r0, [sp]
.Ltmp26:
	.loc	5 224 17 prologue_end           @ ../Firmware/GD32E23x_standard_peripheral/Source/gd32e23x_pmu.c:224:17
	ldr	r2, [sp]
	ldr	r1, __arm_cp.8_0
	.loc	5 224 12 is_stmt 0              @ ../Firmware/GD32E23x_standard_peripheral/Source/gd32e23x_pmu.c:224:12
	ldr	r0, [r1]
	bics	r0, r2
	str	r0, [r1]
	.loc	5 225 1 is_stmt 1               @ ../Firmware/GD32E23x_standard_peripheral/Source/gd32e23x_pmu.c:225:1
	add	sp, #4
	bx	lr
.Ltmp27:
	.p2align	2
@ %bb.1:
	.loc	5 0 1 is_stmt 0                 @ ../Firmware/GD32E23x_standard_peripheral/Source/gd32e23x_pmu.c:0:1
__arm_cp.8_0:
	.long	1073770500                      @ 0x40007004
.Lcpi_end17:
	.size	__arm_cp.8_0, .Lcpi_end17-__arm_cp.8_0
.Lfunc_end8:
	.size	pmu_wakeup_pin_disable, .Lfunc_end8-pmu_wakeup_pin_disable
	.cfi_endproc
	.cantunwind
	.fnend
                                        @ -- End function
	.section	.text.pmu_backup_write_enable,"ax",%progbits
	.hidden	pmu_backup_write_enable         @ -- Begin function pmu_backup_write_enable
	.globl	pmu_backup_write_enable
	.p2align	2
	.type	pmu_backup_write_enable,%function
	.code	16                              @ @pmu_backup_write_enable
	.thumb_func
pmu_backup_write_enable:
.Lfunc_begin9:
	.loc	5 234 0 is_stmt 1               @ ../Firmware/GD32E23x_standard_peripheral/Source/gd32e23x_pmu.c:234:0
	.fnstart
	.cfi_startproc
@ %bb.0:
	ldr	r1, __arm_cp.9_0
.Ltmp28:
	.loc	5 235 13 prologue_end           @ ../Firmware/GD32E23x_standard_peripheral/Source/gd32e23x_pmu.c:235:13
	ldr	r0, [r1]
	movw	r2, #256
	orrs	r0, r2
	str	r0, [r1]
	.loc	5 236 1                         @ ../Firmware/GD32E23x_standard_peripheral/Source/gd32e23x_pmu.c:236:1
	bx	lr
.Ltmp29:
	.p2align	2
@ %bb.1:
	.loc	5 0 1 is_stmt 0                 @ ../Firmware/GD32E23x_standard_peripheral/Source/gd32e23x_pmu.c:0:1
__arm_cp.9_0:
	.long	1073770496                      @ 0x40007000
.Lcpi_end18:
	.size	__arm_cp.9_0, .Lcpi_end18-__arm_cp.9_0
.Lfunc_end9:
	.size	pmu_backup_write_enable, .Lfunc_end9-pmu_backup_write_enable
	.cfi_endproc
	.cantunwind
	.fnend
                                        @ -- End function
	.section	.text.pmu_backup_write_disable,"ax",%progbits
	.hidden	pmu_backup_write_disable        @ -- Begin function pmu_backup_write_disable
	.globl	pmu_backup_write_disable
	.p2align	2
	.type	pmu_backup_write_disable,%function
	.code	16                              @ @pmu_backup_write_disable
	.thumb_func
pmu_backup_write_disable:
.Lfunc_begin10:
	.loc	5 245 0 is_stmt 1               @ ../Firmware/GD32E23x_standard_peripheral/Source/gd32e23x_pmu.c:245:0
	.fnstart
	.cfi_startproc
@ %bb.0:
	ldr	r1, __arm_cp.10_0
.Ltmp30:
	.loc	5 246 13 prologue_end           @ ../Firmware/GD32E23x_standard_peripheral/Source/gd32e23x_pmu.c:246:13
	ldr	r0, [r1]
	movw	r2, #256
	bics	r0, r2
	str	r0, [r1]
	.loc	5 247 1                         @ ../Firmware/GD32E23x_standard_peripheral/Source/gd32e23x_pmu.c:247:1
	bx	lr
.Ltmp31:
	.p2align	2
@ %bb.1:
	.loc	5 0 1 is_stmt 0                 @ ../Firmware/GD32E23x_standard_peripheral/Source/gd32e23x_pmu.c:0:1
__arm_cp.10_0:
	.long	1073770496                      @ 0x40007000
.Lcpi_end19:
	.size	__arm_cp.10_0, .Lcpi_end19-__arm_cp.10_0
.Lfunc_end10:
	.size	pmu_backup_write_disable, .Lfunc_end10-pmu_backup_write_disable
	.cfi_endproc
	.cantunwind
	.fnend
                                        @ -- End function
	.section	.text.pmu_flag_get,"ax",%progbits
	.hidden	pmu_flag_get                    @ -- Begin function pmu_flag_get
	.globl	pmu_flag_get
	.p2align	2
	.type	pmu_flag_get,%function
	.code	16                              @ @pmu_flag_get
	.thumb_func
pmu_flag_get:
.Lfunc_begin11:
	.loc	5 260 0 is_stmt 1               @ ../Firmware/GD32E23x_standard_peripheral/Source/gd32e23x_pmu.c:260:0
	.fnstart
	.cfi_startproc
@ %bb.0:
	.pad	#8
	sub	sp, #8
	.cfi_def_cfa_offset 8
	str	r0, [sp, #4]
	mov	r1, sp
	movs	r0, #0
.Ltmp32:
	.loc	5 261 16 prologue_end           @ ../Firmware/GD32E23x_standard_peripheral/Source/gd32e23x_pmu.c:261:16
	strb	r0, [r1]
	ldr	r0, __arm_cp.11_0
.Ltmp33:
	.loc	5 263 8                         @ ../Firmware/GD32E23x_standard_peripheral/Source/gd32e23x_pmu.c:263:8
	ldr	r0, [r0]
	.loc	5 263 17 is_stmt 0              @ ../Firmware/GD32E23x_standard_peripheral/Source/gd32e23x_pmu.c:263:17
	ldr	r1, [sp, #4]
.Ltmp34:
	.loc	5 263 8                         @ ../Firmware/GD32E23x_standard_peripheral/Source/gd32e23x_pmu.c:263:8
	tst	r0, r1
	beq	.LBB11_2
	b	.LBB11_1
.LBB11_1:
	.loc	5 0 8                           @ ../Firmware/GD32E23x_standard_peripheral/Source/gd32e23x_pmu.c:0:8
	mov	r1, sp
	movs	r0, #1
.Ltmp35:
	.loc	5 264 20 is_stmt 1              @ ../Firmware/GD32E23x_standard_peripheral/Source/gd32e23x_pmu.c:264:20
	strb	r0, [r1]
	.loc	5 265 5                         @ ../Firmware/GD32E23x_standard_peripheral/Source/gd32e23x_pmu.c:265:5
	b	.LBB11_2
.Ltmp36:
.LBB11_2:
	.loc	5 0 5 is_stmt 0                 @ ../Firmware/GD32E23x_standard_peripheral/Source/gd32e23x_pmu.c:0:5
	mov	r0, sp
	.loc	5 267 12 is_stmt 1              @ ../Firmware/GD32E23x_standard_peripheral/Source/gd32e23x_pmu.c:267:12
	ldrb	r0, [r0]
	.loc	5 267 5 is_stmt 0               @ ../Firmware/GD32E23x_standard_peripheral/Source/gd32e23x_pmu.c:267:5
	add	sp, #8
	bx	lr
.Ltmp37:
	.p2align	2
@ %bb.3:
	.loc	5 0 5                           @ ../Firmware/GD32E23x_standard_peripheral/Source/gd32e23x_pmu.c:0:5
__arm_cp.11_0:
	.long	1073770500                      @ 0x40007004
.Lcpi_end20:
	.size	__arm_cp.11_0, .Lcpi_end20-__arm_cp.11_0
.Lfunc_end11:
	.size	pmu_flag_get, .Lfunc_end11-pmu_flag_get
	.cfi_endproc
	.cantunwind
	.fnend
                                        @ -- End function
	.section	.text.pmu_flag_clear,"ax",%progbits
	.hidden	pmu_flag_clear                  @ -- Begin function pmu_flag_clear
	.globl	pmu_flag_clear
	.p2align	2
	.type	pmu_flag_clear,%function
	.code	16                              @ @pmu_flag_clear
	.thumb_func
pmu_flag_clear:
.Lfunc_begin12:
	.loc	5 280 0 is_stmt 1               @ ../Firmware/GD32E23x_standard_peripheral/Source/gd32e23x_pmu.c:280:0
	.fnstart
	.cfi_startproc
@ %bb.0:
	.pad	#4
	sub	sp, #4
	.cfi_def_cfa_offset 4
	str	r0, [sp]
	mov	r0, sp
.Ltmp38:
	.loc	5 281 8 prologue_end            @ ../Firmware/GD32E23x_standard_peripheral/Source/gd32e23x_pmu.c:281:8
	ldrb	r0, [r0]
	lsls	r0, r0, #29
	cmp	r0, #0
	bpl	.LBB12_2
	b	.LBB12_1
.LBB12_1:
	.loc	5 0 8 is_stmt 0                 @ ../Firmware/GD32E23x_standard_peripheral/Source/gd32e23x_pmu.c:0:8
	ldr	r1, __arm_cp.12_0
.Ltmp39:
	.loc	5 283 17 is_stmt 1              @ ../Firmware/GD32E23x_standard_peripheral/Source/gd32e23x_pmu.c:283:17
	ldr	r0, [r1]
	movs	r2, #4
	orrs	r0, r2
	str	r0, [r1]
	.loc	5 284 5                         @ ../Firmware/GD32E23x_standard_peripheral/Source/gd32e23x_pmu.c:284:5
	b	.LBB12_2
.Ltmp40:
.LBB12_2:
	.loc	5 0 5 is_stmt 0                 @ ../Firmware/GD32E23x_standard_peripheral/Source/gd32e23x_pmu.c:0:5
	mov	r0, sp
	.loc	5 285 8 is_stmt 1               @ ../Firmware/GD32E23x_standard_peripheral/Source/gd32e23x_pmu.c:285:8
	ldrb	r0, [r0]
	lsls	r0, r0, #28
	cmp	r0, #0
	bpl	.LBB12_4
	b	.LBB12_3
.LBB12_3:
	.loc	5 0 8 is_stmt 0                 @ ../Firmware/GD32E23x_standard_peripheral/Source/gd32e23x_pmu.c:0:8
	ldr	r1, __arm_cp.12_0
.Ltmp41:
	.loc	5 287 17 is_stmt 1              @ ../Firmware/GD32E23x_standard_peripheral/Source/gd32e23x_pmu.c:287:17
	ldr	r0, [r1]
	movs	r2, #8
	orrs	r0, r2
	str	r0, [r1]
	.loc	5 288 5                         @ ../Firmware/GD32E23x_standard_peripheral/Source/gd32e23x_pmu.c:288:5
	b	.LBB12_4
.Ltmp42:
.LBB12_4:
	.loc	5 289 1                         @ ../Firmware/GD32E23x_standard_peripheral/Source/gd32e23x_pmu.c:289:1
	add	sp, #4
	bx	lr
.Ltmp43:
	.p2align	2
@ %bb.5:
	.loc	5 0 1 is_stmt 0                 @ ../Firmware/GD32E23x_standard_peripheral/Source/gd32e23x_pmu.c:0:1
__arm_cp.12_0:
	.long	1073770496                      @ 0x40007000
.Lcpi_end21:
	.size	__arm_cp.12_0, .Lcpi_end21-__arm_cp.12_0
.Lfunc_end12:
	.size	pmu_flag_clear, .Lfunc_end12-pmu_flag_clear
	.cfi_endproc
	.cantunwind
	.fnend
                                        @ -- End function
	.section	".note.GNU-stack","",%progbits
	.eabi_attribute	30, 6	@ Tag_ABI_optimization_goals
	.ARM_attribute	16, 1	@ Tag_AV_eba