	.text
	.syntax unified
	.eabi_attribute	67, "2.09"	@ Tag_conformance
	.cpu	cortex-m23
	.eabi_attribute	6, 16	@ Tag_CPU_arch
	.eabi_attribute	7, 77	@ Tag_CPU_arch_profile
	.eabi_attribute	8, 0	@ Tag_ARM_ISA_use
	.eabi_attribute	9, 3	@ Tag_THUMB_ISA_use
	.eabi_attribute	34, 0	@ Tag_CPU_unaligned_access
	.eabi_attribute	17, 1	@ Tag_ABI_PCS_GOT_use
	.eabi_attribute	20, 2	@ Tag_ABI_FP_denormal
	.eabi_attribute	21, 0	@ Tag_ABI_FP_exceptions
	.eabi_attribute	23, 1	@ Tag_ABI_FP_number_model
	.eabi_attribute	24, 1	@ Tag_ABI_align_needed
	.eabi_attribute	25, 1	@ Tag_ABI_align_preserved
	.eabi_attribute	38, 1	@ Tag_ABI_FP_16bit_format
	.eabi_attribute	18, 2	@ Tag_ABI_PCS_wchar_t
	.eabi_attribute	26, 1	@ Tag_ABI_enum_size
	.eabi_attribute	14, 0	@ Tag_ABI_PCS_R9_use
	.file	"gd32e23x_spi.c"
	.file	1 "D:\\GD32\\GD32E230\\Oscilloscope\\Project" "../Firmware/GD32E23x_standard_peripheral/Include\\gd32e23x_rcu.h"
	.file	2 "D:\\GD32\\GD32E230\\Oscilloscope\\Project" "../Firmware/CMSIS/GD/GD32E23x/Include\\gd32e23x.h"
	.file	3 "D:\\Keil_arm\\ARM\\ARMCLANG\\Bin\\..\\include" "stdint.h"
	.section	.text.spi_i2s_deinit,"ax",%progbits
	.hidden	spi_i2s_deinit                  @ -- Begin function spi_i2s_deinit
	.globl	spi_i2s_deinit
	.p2align	2
	.type	spi_i2s_deinit,%function
	.code	16                              @ @spi_i2s_deinit
	.thumb_func
spi_i2s_deinit:
.Lfunc_begin0:
	.file	4 "D:\\GD32\\GD32E230\\Oscilloscope\\Project" "../Firmware/GD32E23x_standard_peripheral/Source/gd32e23x_spi.c"
	.loc	4 58 0                          @ ../Firmware/GD32E23x_standard_peripheral/Source/gd32e23x_spi.c:58:0
	.fnstart
	.cfi_sections .debug_frame
	.cfi_startproc
@ %bb.0:
	.save	{r7, lr}
	push	{r7, lr}
	.cfi_def_cfa_offset 8
	.cfi_offset lr, -4
	.cfi_offset r7, -8
	.pad	#16
	sub	sp, #16
	.cfi_def_cfa_offset 24
	str	r0, [sp, #12]
.Ltmp0:
	.loc	4 59 12 prologue_end            @ ../Firmware/GD32E23x_standard_peripheral/Source/gd32e23x_spi.c:59:12
	ldr	r0, [sp, #12]
	str	r0, [sp, #8]                    @ 4-byte Spill
	ldr	r1, __arm_cp.0_0
	.loc	4 59 5 is_stmt 0                @ ../Firmware/GD32E23x_standard_peripheral/Source/gd32e23x_spi.c:59:5
	cmp	r0, r1
	beq	.LBB0_3
	b	.LBB0_1
.LBB0_1:
	.loc	4 0 5                           @ ../Firmware/GD32E23x_standard_peripheral/Source/gd32e23x_spi.c:0:5
	ldr	r0, [sp, #8]                    @ 4-byte Reload
	ldr	r1, __arm_cp.0_1
	.loc	4 59 5                          @ ../Firmware/GD32E23x_standard_peripheral/Source/gd32e23x_spi.c:59:5
	cmp	r0, r1
	bne	.LBB0_4
	b	.LBB0_2
.LBB0_2:
	.loc	4 0 5                           @ ../Firmware/GD32E23x_standard_peripheral/Source/gd32e23x_spi.c:0:5
	movw	r0, #780
.Ltmp1:
	.loc	4 62 9 is_stmt 1                @ ../Firmware/GD32E23x_standard_peripheral/Source/gd32e23x_spi.c:62:9
	str	r0, [sp, #4]                    @ 4-byte Spill
	bl	rcu_periph_reset_enable
	ldr	r0, [sp, #4]                    @ 4-byte Reload
	.loc	4 63 9                          @ ../Firmware/GD32E23x_standard_peripheral/Source/gd32e23x_spi.c:63:9
	bl	rcu_periph_reset_disable
	.loc	4 64 9                          @ ../Firmware/GD32E23x_standard_peripheral/Source/gd32e23x_spi.c:64:9
	b	.LBB0_5
.LBB0_3:
	.loc	4 0 9 is_stmt 0                 @ ../Firmware/GD32E23x_standard_peripheral/Source/gd32e23x_spi.c:0:9
	ldr	r0, __arm_cp.0_2
	.loc	4 67 9 is_stmt 1                @ ../Firmware/GD32E23x_standard_peripheral/Source/gd32e23x_spi.c:67:9
	str	r0, [sp]                        @ 4-byte Spill
	bl	rcu_periph_reset_enable
	ldr	r0, [sp]                        @ 4-byte Reload
	.loc	4 68 9                          @ ../Firmware/GD32E23x_standard_peripheral/Source/gd32e23x_spi.c:68:9
	bl	rcu_periph_reset_disable
	.loc	4 69 9                          @ ../Firmware/GD32E23x_standard_peripheral/Source/gd32e23x_spi.c:69:9
	b	.LBB0_5
.LBB0_4:
	.loc	4 71 9                          @ ../Firmware/GD32E23x_standard_peripheral/Source/gd32e23x_spi.c:71:9
	b	.LBB0_5
.Ltmp2:
.LBB0_5:
	.loc	4 73 1                          @ ../Firmware/GD32E23x_standard_peripheral/Source/gd32e23x_spi.c:73:1
	add	sp, #16
	pop	{r7, pc}
.Ltmp3:
	.p2align	2
@ %bb.6:
	.loc	4 0 1 is_stmt 0                 @ ../Firmware/GD32E23x_standard_peripheral/Source/gd32e23x_spi.c:0:1
__arm_cp.0_0:
	.long	1073756160                      @ 0x40003800
.Lcpi_end0:
	.size	__arm_cp.0_0, .Lcpi_end0-__arm_cp.0_0
__arm_cp.0_1:
	.long	1073819648                      @ 0x40013000
.Lcpi_end1:
	.size	__arm_cp.0_1, .Lcpi_end1-__arm_cp.0_1
__arm_cp.0_2:
	.long	1038                            @ 0x40e
.Lcpi_end2:
	.size	__arm_cp.0_2, .Lcpi_end2-__arm_cp.0_2
.Lfunc_end0:
	.size	spi_i2s_deinit, .Lfunc_end0-spi_i2s_deinit
	.cfi_endproc
	.cantunwind
	.fnend
                                        @ -- End function
	.section	.text.spi_struct_para_init,"ax",%progbits
	.hidden	spi_struct_para_init            @ -- Begin function spi_struct_para_init
	.globl	spi_struct_para_init
	.p2align	1
	.type	spi_struct_para_init,%function
	.code	16                              @ @spi_struct_para_init
	.thumb_func
spi_struct_para_init:
.Lfunc_begin1:
	.loc	4 82 0 is_stmt 1                @ ../Firmware/GD32E23x_standard_peripheral/Source/gd32e23x_spi.c:82:0
	.fnstart
	.cfi_startproc
@ %bb.0:
	.pad	#4
	sub	sp, #4
	.cfi_def_cfa_offset 4
	str	r0, [sp]
.Ltmp4:
	.loc	4 84 5 prologue_end             @ ../Firmware/GD32E23x_standard_peripheral/Source/gd32e23x_spi.c:84:5
	ldr	r1, [sp]
	movs	r0, #0
	.loc	4 84 38 is_stmt 0               @ ../Firmware/GD32E23x_standard_peripheral/Source/gd32e23x_spi.c:84:38
	str	r0, [r1]
	.loc	4 85 5 is_stmt 1                @ ../Firmware/GD32E23x_standard_peripheral/Source/gd32e23x_spi.c:85:5
	ldr	r1, [sp]
	.loc	4 85 38 is_stmt 0               @ ../Firmware/GD32E23x_standard_peripheral/Source/gd32e23x_spi.c:85:38
	str	r0, [r1, #4]
	.loc	4 86 5 is_stmt 1                @ ../Firmware/GD32E23x_standard_peripheral/Source/gd32e23x_spi.c:86:5
	ldr	r2, [sp]
	movw	r1, #1792
	.loc	4 86 38 is_stmt 0               @ ../Firmware/GD32E23x_standard_peripheral/Source/gd32e23x_spi.c:86:38
	str	r1, [r2, #8]
	.loc	4 87 5 is_stmt 1                @ ../Firmware/GD32E23x_standard_peripheral/Source/gd32e23x_spi.c:87:5
	ldr	r1, [sp]
	.loc	4 87 38 is_stmt 0               @ ../Firmware/GD32E23x_standard_peripheral/Source/gd32e23x_spi.c:87:38
	str	r0, [r1, #12]
	.loc	4 88 5 is_stmt 1                @ ../Firmware/GD32E23x_standard_peripheral/Source/gd32e23x_spi.c:88:5
	ldr	r1, [sp]
	.loc	4 88 38 is_stmt 0               @ ../Firmware/GD32E23x_standard_peripheral/Source/gd32e23x_spi.c:88:38
	str	r0, [r1, #16]
	.loc	4 89 5 is_stmt 1                @ ../Firmware/GD32E23x_standard_peripheral/Source/gd32e23x_spi.c:89:5
	ldr	r1, [sp]
	.loc	4 89 38 is_stmt 0               @ ../Firmware/GD32E23x_standard_peripheral/Source/gd32e23x_spi.c:89:38
	str	r0, [r1, #20]
	.loc	4 90 5 is_stmt 1                @ ../Firmware/GD32E23x_standard_peripheral/Source/gd32e23x_spi.c:90:5
	ldr	r1, [sp]
	.loc	4 90 38 is_stmt 0               @ ../Firmware/GD32E23x_standard_peripheral/Source/gd32e23x_spi.c:90:38
	str	r0, [r1, #24]
	.loc	4 91 1 is_stmt 1                @ ../Firmware/GD32E23x_standard_peripheral/Source/gd32e23x_spi.c:91:1
	add	sp, #4
	bx	lr
.Ltmp5:
.Lfunc_end1:
	.size	spi_struct_para_init, .Lfunc_end1-spi_struct_para_init
	.cfi_endproc
	.cantunwind
	.fnend
                                        @ -- End function
	.section	.text.spi_init,"ax",%progbits
	.hidden	spi_init                        @ -- Begin function spi_init
	.globl	spi_init
	.p2align	2
	.type	spi_init,%function
	.code	16                              @ @spi_init
	.thumb_func
spi_init:
.Lfunc_begin2:
	.loc	4 117 0                         @ ../Firmware/GD32E23x_standard_peripheral/Source/gd32e23x_spi.c:117:0
	.fnstart
	.cfi_startproc
@ %bb.0:
	.pad	#24
	sub	sp, #24
	.cfi_def_cfa_offset 24
	str	r0, [sp, #16]
	str	r1, [sp, #12]
	movs	r0, #0
.Ltmp6:
	.loc	4 118 14 prologue_end           @ ../Firmware/GD32E23x_standard_peripheral/Source/gd32e23x_spi.c:118:14
	str	r0, [sp, #8]
	.loc	4 118 24 is_stmt 0              @ ../Firmware/GD32E23x_standard_peripheral/Source/gd32e23x_spi.c:118:24
	str	r0, [sp, #4]
	.loc	4 118 35                        @ ../Firmware/GD32E23x_standard_peripheral/Source/gd32e23x_spi.c:118:35
	str	r0, [sp]
	.loc	4 120 12 is_stmt 1              @ ../Firmware/GD32E23x_standard_peripheral/Source/gd32e23x_spi.c:120:12
	ldr	r0, [sp, #16]
	ldr	r0, [r0]
	.loc	4 120 10 is_stmt 0              @ ../Firmware/GD32E23x_standard_peripheral/Source/gd32e23x_spi.c:120:10
	str	r0, [sp, #8]
	.loc	4 121 10 is_stmt 1              @ ../Firmware/GD32E23x_standard_peripheral/Source/gd32e23x_spi.c:121:10
	ldr	r0, [sp, #8]
	movw	r1, #12352
	ands	r0, r1
	str	r0, [sp, #8]
	.loc	4 123 12                        @ ../Firmware/GD32E23x_standard_peripheral/Source/gd32e23x_spi.c:123:12
	ldr	r0, [sp, #16]
	ldr	r0, [r0]
	.loc	4 123 10 is_stmt 0              @ ../Firmware/GD32E23x_standard_peripheral/Source/gd32e23x_spi.c:123:10
	str	r0, [sp, #4]
	.loc	4 124 10 is_stmt 1              @ ../Firmware/GD32E23x_standard_peripheral/Source/gd32e23x_spi.c:124:10
	ldr	r0, [sp, #4]
	movw	r1, #14400
	ands	r0, r1
	str	r0, [sp, #4]
	.loc	4 126 12                        @ ../Firmware/GD32E23x_standard_peripheral/Source/gd32e23x_spi.c:126:12
	ldr	r0, [sp, #16]
	ldr	r0, [r0, #4]
	.loc	4 126 10 is_stmt 0              @ ../Firmware/GD32E23x_standard_peripheral/Source/gd32e23x_spi.c:126:10
	str	r0, [sp]
	.loc	4 127 10 is_stmt 1              @ ../Firmware/GD32E23x_standard_peripheral/Source/gd32e23x_spi.c:127:10
	ldr	r0, [sp]
	ldr	r1, __arm_cp.2_0
	ands	r0, r1
	str	r0, [sp]
.Ltmp7:
	.loc	4 129 16                        @ ../Firmware/GD32E23x_standard_peripheral/Source/gd32e23x_spi.c:129:16
	ldr	r0, [sp, #16]
	ldr	r1, __arm_cp.2_1
.Ltmp8:
	.loc	4 129 8 is_stmt 0               @ ../Firmware/GD32E23x_standard_peripheral/Source/gd32e23x_spi.c:129:8
	cmp	r0, r1
	bne	.LBB2_6
	b	.LBB2_1
.LBB2_1:
.Ltmp9:
	.loc	4 131 17 is_stmt 1              @ ../Firmware/GD32E23x_standard_peripheral/Source/gd32e23x_spi.c:131:17
	ldr	r0, [sp, #12]
	.loc	4 131 29 is_stmt 0              @ ../Firmware/GD32E23x_standard_peripheral/Source/gd32e23x_spi.c:131:29
	ldr	r1, [r0]
	.loc	4 131 14                        @ ../Firmware/GD32E23x_standard_peripheral/Source/gd32e23x_spi.c:131:14
	ldr	r0, [sp, #8]
	orrs	r0, r1
	str	r0, [sp, #8]
	.loc	4 133 17 is_stmt 1              @ ../Firmware/GD32E23x_standard_peripheral/Source/gd32e23x_spi.c:133:17
	ldr	r0, [sp, #12]
	.loc	4 133 29 is_stmt 0              @ ../Firmware/GD32E23x_standard_peripheral/Source/gd32e23x_spi.c:133:29
	ldr	r1, [r0, #4]
	.loc	4 133 14                        @ ../Firmware/GD32E23x_standard_peripheral/Source/gd32e23x_spi.c:133:14
	ldr	r0, [sp, #8]
	orrs	r0, r1
	str	r0, [sp, #8]
	.loc	4 135 17 is_stmt 1              @ ../Firmware/GD32E23x_standard_peripheral/Source/gd32e23x_spi.c:135:17
	ldr	r0, [sp, #12]
	.loc	4 135 29 is_stmt 0              @ ../Firmware/GD32E23x_standard_peripheral/Source/gd32e23x_spi.c:135:29
	ldr	r1, [r0, #12]
	.loc	4 135 14                        @ ../Firmware/GD32E23x_standard_peripheral/Source/gd32e23x_spi.c:135:14
	ldr	r0, [sp, #8]
	orrs	r0, r1
	str	r0, [sp, #8]
	.loc	4 137 17 is_stmt 1              @ ../Firmware/GD32E23x_standard_peripheral/Source/gd32e23x_spi.c:137:17
	ldr	r0, [sp, #12]
	.loc	4 137 29 is_stmt 0              @ ../Firmware/GD32E23x_standard_peripheral/Source/gd32e23x_spi.c:137:29
	ldr	r1, [r0, #16]
	.loc	4 137 14                        @ ../Firmware/GD32E23x_standard_peripheral/Source/gd32e23x_spi.c:137:14
	ldr	r0, [sp, #8]
	orrs	r0, r1
	str	r0, [sp, #8]
	.loc	4 139 17 is_stmt 1              @ ../Firmware/GD32E23x_standard_peripheral/Source/gd32e23x_spi.c:139:17
	ldr	r0, [sp, #12]
	.loc	4 139 29 is_stmt 0              @ ../Firmware/GD32E23x_standard_peripheral/Source/gd32e23x_spi.c:139:29
	ldr	r1, [r0, #20]
	.loc	4 139 14                        @ ../Firmware/GD32E23x_standard_peripheral/Source/gd32e23x_spi.c:139:14
	ldr	r0, [sp, #8]
	orrs	r0, r1
	str	r0, [sp, #8]
	.loc	4 141 17 is_stmt 1              @ ../Firmware/GD32E23x_standard_peripheral/Source/gd32e23x_spi.c:141:17
	ldr	r0, [sp, #12]
	.loc	4 141 29 is_stmt 0              @ ../Firmware/GD32E23x_standard_peripheral/Source/gd32e23x_spi.c:141:29
	ldr	r1, [r0, #24]
	.loc	4 141 14                        @ ../Firmware/GD32E23x_standard_peripheral/Source/gd32e23x_spi.c:141:14
	ldr	r0, [sp, #8]
	orrs	r0, r1
	str	r0, [sp, #8]
.Ltmp10:
	.loc	4 144 35 is_stmt 1              @ ../Firmware/GD32E23x_standard_peripheral/Source/gd32e23x_spi.c:144:35
	ldr	r0, [sp, #12]
	.loc	4 144 47 is_stmt 0              @ ../Firmware/GD32E23x_standard_peripheral/Source/gd32e23x_spi.c:144:47
	ldr	r0, [r0, #8]
	movw	r1, #1792
	.loc	4 144 59                        @ ../Firmware/GD32E23x_standard_peripheral/Source/gd32e23x_spi.c:144:59
	cmp	r0, r1
	beq	.LBB2_4
	b	.LBB2_2
.LBB2_2:
	.loc	4 144 86                        @ ../Firmware/GD32E23x_standard_peripheral/Source/gd32e23x_spi.c:144:86
	ldr	r0, [sp, #12]
	.loc	4 144 98                        @ ../Firmware/GD32E23x_standard_peripheral/Source/gd32e23x_spi.c:144:98
	ldr	r0, [r0, #8]
	movw	r1, #3840
.Ltmp11:
	.loc	4 144 12                        @ ../Firmware/GD32E23x_standard_peripheral/Source/gd32e23x_spi.c:144:12
	cmp	r0, r1
	beq	.LBB2_4
	b	.LBB2_3
.LBB2_3:
	.loc	4 0 12                          @ ../Firmware/GD32E23x_standard_peripheral/Source/gd32e23x_spi.c:0:12
	add	r1, sp, #20
	movs	r0, #0
.Ltmp12:
	.loc	4 145 13 is_stmt 1              @ ../Firmware/GD32E23x_standard_peripheral/Source/gd32e23x_spi.c:145:13
	strb	r0, [r1]
	b	.LBB2_8
.Ltmp13:
.LBB2_4:
	.loc	4 147 22                        @ ../Firmware/GD32E23x_standard_peripheral/Source/gd32e23x_spi.c:147:22
	ldr	r0, [sp, #12]
	.loc	4 147 34 is_stmt 0              @ ../Firmware/GD32E23x_standard_peripheral/Source/gd32e23x_spi.c:147:34
	ldr	r1, [r0, #8]
	movw	r0, #2048
	.loc	4 147 45                        @ ../Firmware/GD32E23x_standard_peripheral/Source/gd32e23x_spi.c:147:45
	ands	r1, r0
	.loc	4 147 18                        @ ../Firmware/GD32E23x_standard_peripheral/Source/gd32e23x_spi.c:147:18
	ldr	r0, [sp, #8]
	orrs	r0, r1
	str	r0, [sp, #8]
	b	.LBB2_5
.Ltmp14:
.LBB2_5:
	.loc	4 151 42 is_stmt 1              @ ../Firmware/GD32E23x_standard_peripheral/Source/gd32e23x_spi.c:151:42
	ldr	r0, [sp, #8]
	.loc	4 151 9 is_stmt 0               @ ../Firmware/GD32E23x_standard_peripheral/Source/gd32e23x_spi.c:151:9
	ldr	r1, [sp, #16]
	.loc	4 151 30                        @ ../Firmware/GD32E23x_standard_peripheral/Source/gd32e23x_spi.c:151:30
	str	r0, [r1]
	.loc	4 153 5 is_stmt 1               @ ../Firmware/GD32E23x_standard_peripheral/Source/gd32e23x_spi.c:153:5
	b	.LBB2_7
.Ltmp15:
.LBB2_6:
	.loc	4 155 17                        @ ../Firmware/GD32E23x_standard_peripheral/Source/gd32e23x_spi.c:155:17
	ldr	r0, [sp, #12]
	.loc	4 155 29 is_stmt 0              @ ../Firmware/GD32E23x_standard_peripheral/Source/gd32e23x_spi.c:155:29
	ldr	r1, [r0]
	.loc	4 155 14                        @ ../Firmware/GD32E23x_standard_peripheral/Source/gd32e23x_spi.c:155:14
	ldr	r0, [sp, #4]
	orrs	r0, r1
	str	r0, [sp, #4]
	.loc	4 157 17 is_stmt 1              @ ../Firmware/GD32E23x_standard_peripheral/Source/gd32e23x_spi.c:157:17
	ldr	r0, [sp, #12]
	.loc	4 157 29 is_stmt 0              @ ../Firmware/GD32E23x_standard_peripheral/Source/gd32e23x_spi.c:157:29
	ldr	r1, [r0, #4]
	.loc	4 157 14                        @ ../Firmware/GD32E23x_standard_peripheral/Source/gd32e23x_spi.c:157:14
	ldr	r0, [sp, #4]
	orrs	r0, r1
	str	r0, [sp, #4]
	.loc	4 159 17 is_stmt 1              @ ../Firmware/GD32E23x_standard_peripheral/Source/gd32e23x_spi.c:159:17
	ldr	r0, [sp, #12]
	.loc	4 159 29 is_stmt 0              @ ../Firmware/GD32E23x_standard_peripheral/Source/gd32e23x_spi.c:159:29
	ldr	r1, [r0, #12]
	.loc	4 159 14                        @ ../Firmware/GD32E23x_standard_peripheral/Source/gd32e23x_spi.c:159:14
	ldr	r0, [sp, #4]
	orrs	r0, r1
	str	r0, [sp, #4]
	.loc	4 161 17 is_stmt 1              @ ../Firmware/GD32E23x_standard_peripheral/Source/gd32e23x_spi.c:161:17
	ldr	r0, [sp, #12]
	.loc	4 161 29 is_stmt 0              @ ../Firmware/GD32E23x_standard_peripheral/Source/gd32e23x_spi.c:161:29
	ldr	r1, [r0, #16]
	.loc	4 161 14                        @ ../Firmware/GD32E23x_standard_peripheral/Source/gd32e23x_spi.c:161:14
	ldr	r0, [sp, #4]
	orrs	r0, r1
	str	r0, [sp, #4]
	.loc	4 163 17 is_stmt 1              @ ../Firmware/GD32E23x_standard_peripheral/Source/gd32e23x_spi.c:163:17
	ldr	r0, [sp, #12]
	.loc	4 163 29 is_stmt 0              @ ../Firmware/GD32E23x_standard_peripheral/Source/gd32e23x_spi.c:163:29
	ldr	r1, [r0, #20]
	.loc	4 163 14                        @ ../Firmware/GD32E23x_standard_peripheral/Source/gd32e23x_spi.c:163:14
	ldr	r0, [sp, #4]
	orrs	r0, r1
	str	r0, [sp, #4]
	.loc	4 165 17 is_stmt 1              @ ../Firmware/GD32E23x_standard_peripheral/Source/gd32e23x_spi.c:165:17
	ldr	r0, [sp, #12]
	.loc	4 165 29 is_stmt 0              @ ../Firmware/GD32E23x_standard_peripheral/Source/gd32e23x_spi.c:165:29
	ldr	r1, [r0, #24]
	.loc	4 165 14                        @ ../Firmware/GD32E23x_standard_peripheral/Source/gd32e23x_spi.c:165:14
	ldr	r0, [sp, #4]
	orrs	r0, r1
	str	r0, [sp, #4]
	.loc	4 167 42 is_stmt 1              @ ../Firmware/GD32E23x_standard_peripheral/Source/gd32e23x_spi.c:167:42
	ldr	r0, [sp, #4]
	.loc	4 167 9 is_stmt 0               @ ../Firmware/GD32E23x_standard_peripheral/Source/gd32e23x_spi.c:167:9
	ldr	r1, [sp, #16]
	.loc	4 167 30                        @ ../Firmware/GD32E23x_standard_peripheral/Source/gd32e23x_spi.c:167:30
	str	r0, [r1]
	.loc	4 170 17 is_stmt 1              @ ../Firmware/GD32E23x_standard_peripheral/Source/gd32e23x_spi.c:170:17
	ldr	r0, [sp, #12]
	.loc	4 170 29 is_stmt 0              @ ../Firmware/GD32E23x_standard_peripheral/Source/gd32e23x_spi.c:170:29
	ldr	r1, [r0, #8]
	.loc	4 170 14                        @ ../Firmware/GD32E23x_standard_peripheral/Source/gd32e23x_spi.c:170:14
	ldr	r0, [sp]
	orrs	r0, r1
	str	r0, [sp]
	.loc	4 172 42 is_stmt 1              @ ../Firmware/GD32E23x_standard_peripheral/Source/gd32e23x_spi.c:172:42
	ldr	r0, [sp]
	.loc	4 172 9 is_stmt 0               @ ../Firmware/GD32E23x_standard_peripheral/Source/gd32e23x_spi.c:172:9
	ldr	r1, [sp, #16]
	.loc	4 172 30                        @ ../Firmware/GD32E23x_standard_peripheral/Source/gd32e23x_spi.c:172:30
	str	r0, [r1, #4]
	b	.LBB2_7
.Ltmp16:
.LBB2_7:
	.loc	4 176 5 is_stmt 1               @ ../Firmware/GD32E23x_standard_peripheral/Source/gd32e23x_spi.c:176:5
	ldr	r1, [sp, #16]
	.loc	4 176 28 is_stmt 0              @ ../Firmware/GD32E23x_standard_peripheral/Source/gd32e23x_spi.c:176:28
	ldr	r0, [r1, #28]
	movw	r2, #2048
	bics	r0, r2
	str	r0, [r1, #28]
	add	r1, sp, #20
	movs	r0, #1
	.loc	4 178 5 is_stmt 1               @ ../Firmware/GD32E23x_standard_peripheral/Source/gd32e23x_spi.c:178:5
	strb	r0, [r1]
	b	.LBB2_8
.LBB2_8:
	.loc	4 0 5 is_stmt 0                 @ ../Firmware/GD32E23x_standard_peripheral/Source/gd32e23x_spi.c:0:5
	add	r0, sp, #20
	.loc	4 179 1 is_stmt 1               @ ../Firmware/GD32E23x_standard_peripheral/Source/gd32e23x_spi.c:179:1
	ldrb	r0, [r0]
	add	sp, #24
	bx	lr
.Ltmp17:
	.p2align	2
@ %bb.9:
	.loc	4 0 1 is_stmt 0                 @ ../Firmware/GD32E23x_standard_peripheral/Source/gd32e23x_spi.c:0:1
__arm_cp.2_0:
	.long	61695                           @ 0xf0ff
.Lcpi_end3:
	.size	__arm_cp.2_0, .Lcpi_end3-__arm_cp.2_0
__arm_cp.2_1:
	.long	1073819648                      @ 0x40013000
.Lcpi_end4:
	.size	__arm_cp.2_1, .Lcpi_end4-__arm_cp.2_1
.Lfunc_end2:
	.size	spi_init, .Lfunc_end2-spi_init
	.cfi_endproc
	.cantunwind
	.fnend
                                        @ -- End function
	.section	.text.spi_enable,"ax",%progbits
	.hidden	spi_enable                      @ -- Begin function spi_enable
	.globl	spi_enable
	.p2align	1
	.type	spi_enable,%function
	.code	16                              @ @spi_enable
	.thumb_func
spi_enable:
.Lfunc_begin3:
	.loc	4 188 0 is_stmt 1               @ ../Firmware/GD32E23x_standard_peripheral/Source/gd32e23x_spi.c:188:0
	.fnstart
	.cfi_startproc
@ %bb.0:
	.pad	#4
	sub	sp, #4
	.cfi_def_cfa_offset 4
	str	r0, [sp]
.Ltmp18:
	.loc	4 189 5 prologue_end            @ ../Firmware/GD32E23x_standard_peripheral/Source/gd32e23x_spi.c:189:5
	ldr	r1, [sp]
	.loc	4 189 26 is_stmt 0              @ ../Firmware/GD32E23x_standard_peripheral/Source/gd32e23x_spi.c:189:26
	ldr	r0, [r1]
	movs	r2, #64
	orrs	r0, r2
	str	r0, [r1]
	.loc	4 190 1 is_stmt 1               @ ../Firmware/GD32E23x_standard_peripheral/Source/gd32e23x_spi.c:190:1
	add	sp, #4
	bx	lr
.Ltmp19:
.Lfunc_end3:
	.size	spi_enable, .Lfunc_end3-spi_enable
	.cfi_endproc
	.cantunwind
	.fnend
                                        @ -- End function
	.section	.text.spi_disable,"ax",%progbits
	.hidden	spi_disable                     @ -- Begin function spi_disable
	.globl	spi_disable
	.p2align	1
	.type	spi_disable,%function
	.code	16                              @ @spi_disable
	.thumb_func
spi_disable:
.Lfunc_begin4:
	.loc	4 199 0                         @ ../Firmware/GD32E23x_standard_peripheral/Source/gd32e23x_spi.c:199:0
	.fnstart
	.cfi_startproc
@ %bb.0:
	.pad	#4
	sub	sp, #4
	.cfi_def_cfa_offset 4
	str	r0, [sp]
.Ltmp20:
	.loc	4 200 5 prologue_end            @ ../Firmware/GD32E23x_standard_peripheral/Source/gd32e23x_spi.c:200:5
	ldr	r1, [sp]
	.loc	4 200 26 is_stmt 0              @ ../Firmware/GD32E23x_standard_peripheral/Source/gd32e23x_spi.c:200:26
	ldr	r0, [r1]
	movs	r2, #64
	bics	r0, r2
	str	r0, [r1]
	.loc	4 201 1 is_stmt 1               @ ../Firmware/GD32E23x_standard_peripheral/Source/gd32e23x_spi.c:201:1
	add	sp, #4
	bx	lr
.Ltmp21:
.Lfunc_end4:
	.size	spi_disable, .Lfunc_end4-spi_disable
	.cfi_endproc
	.cantunwind
	.fnend
                                        @ -- End function
	.section	.text.i2s_init,"ax",%progbits
	.hidden	i2s_init                        @ -- Begin function i2s_init
	.globl	i2s_init
	.p2align	2
	.type	i2s_init,%function
	.code	16                              @ @i2s_init
	.thumb_func
i2s_init:
.Lfunc_begin5:
	.loc	4 227 0                         @ ../Firmware/GD32E23x_standard_peripheral/Source/gd32e23x_spi.c:227:0
	.fnstart
	.cfi_startproc
@ %bb.0:
	.pad	#20
	sub	sp, #20
	.cfi_def_cfa_offset 20
	str	r0, [sp, #16]
	str	r1, [sp, #12]
	str	r2, [sp, #8]
	str	r3, [sp, #4]
	movs	r0, #0
.Ltmp22:
	.loc	4 228 14 prologue_end           @ ../Firmware/GD32E23x_standard_peripheral/Source/gd32e23x_spi.c:228:14
	str	r0, [sp]
	.loc	4 229 11                        @ ../Firmware/GD32E23x_standard_peripheral/Source/gd32e23x_spi.c:229:11
	ldr	r0, [sp, #16]
	ldr	r0, [r0, #28]
	.loc	4 229 9 is_stmt 0               @ ../Firmware/GD32E23x_standard_peripheral/Source/gd32e23x_spi.c:229:9
	str	r0, [sp]
	.loc	4 230 9 is_stmt 1               @ ../Firmware/GD32E23x_standard_peripheral/Source/gd32e23x_spi.c:230:9
	ldr	r0, [sp]
	ldr	r1, __arm_cp.5_0
	ands	r0, r1
	str	r0, [sp]
	.loc	4 233 9                         @ ../Firmware/GD32E23x_standard_peripheral/Source/gd32e23x_spi.c:233:9
	ldr	r0, [sp]
	movw	r1, #2048
	orrs	r0, r1
	str	r0, [sp]
	.loc	4 235 22                        @ ../Firmware/GD32E23x_standard_peripheral/Source/gd32e23x_spi.c:235:22
	ldr	r1, [sp, #12]
	.loc	4 235 9 is_stmt 0               @ ../Firmware/GD32E23x_standard_peripheral/Source/gd32e23x_spi.c:235:9
	ldr	r0, [sp]
	orrs	r0, r1
	str	r0, [sp]
	.loc	4 237 22 is_stmt 1              @ ../Firmware/GD32E23x_standard_peripheral/Source/gd32e23x_spi.c:237:22
	ldr	r1, [sp, #8]
	.loc	4 237 9 is_stmt 0               @ ../Firmware/GD32E23x_standard_peripheral/Source/gd32e23x_spi.c:237:9
	ldr	r0, [sp]
	orrs	r0, r1
	str	r0, [sp]
	.loc	4 239 22 is_stmt 1              @ ../Firmware/GD32E23x_standard_peripheral/Source/gd32e23x_spi.c:239:22
	ldr	r1, [sp, #4]
	.loc	4 239 9 is_stmt 0               @ ../Firmware/GD32E23x_standard_peripheral/Source/gd32e23x_spi.c:239:9
	ldr	r0, [sp]
	orrs	r0, r1
	str	r0, [sp]
	.loc	4 242 40 is_stmt 1              @ ../Firmware/GD32E23x_standard_peripheral/Source/gd32e23x_spi.c:242:40
	ldr	r0, [sp]
	.loc	4 242 5 is_stmt 0               @ ../Firmware/GD32E23x_standard_peripheral/Source/gd32e23x_spi.c:242:5
	ldr	r1, [sp, #16]
	.loc	4 242 28                        @ ../Firmware/GD32E23x_standard_peripheral/Source/gd32e23x_spi.c:242:28
	str	r0, [r1, #28]
	.loc	4 243 1 is_stmt 1               @ ../Firmware/GD32E23x_standard_peripheral/Source/gd32e23x_spi.c:243:1
	add	sp, #20
	bx	lr
.Ltmp23:
	.p2align	2
@ %bb.1:
	.loc	4 0 1 is_stmt 0                 @ ../Firmware/GD32E23x_standard_peripheral/Source/gd32e23x_spi.c:0:1
__arm_cp.5_0:
	.long	61511                           @ 0xf047
.Lcpi_end5:
	.size	__arm_cp.5_0, .Lcpi_end5-__arm_cp.5_0
.Lfunc_end5:
	.size	i2s_init, .Lfunc_end5-i2s_init
	.cfi_endproc
	.cantunwind
	.fnend
                                        @ -- End function
	.section	.text.i2s_psc_config,"ax",%progbits
	.hidden	i2s_psc_config                  @ -- Begin function i2s_psc_config
	.globl	i2s_psc_config
	.p2align	1
	.type	i2s_psc_config,%function
	.code	16                              @ @i2s_psc_config
	.thumb_func
i2s_psc_config:
.Lfunc_begin6:
	.loc	4 273 0 is_stmt 1               @ ../Firmware/GD32E23x_standard_peripheral/Source/gd32e23x_spi.c:273:0
	.fnstart
	.cfi_startproc
@ %bb.0:
	.save	{r7, lr}
	push	{r7, lr}
	.cfi_def_cfa_offset 8
	.cfi_offset lr, -4
	.cfi_offset r7, -8
	.pad	#32
	sub	sp, #32
	.cfi_def_cfa_offset 40
	str	r0, [sp, #28]
	str	r1, [sp, #24]
	str	r2, [sp, #20]
	str	r3, [sp, #16]
	movs	r1, #2
.Ltmp24:
	.loc	4 274 14 prologue_end           @ ../Firmware/GD32E23x_standard_peripheral/Source/gd32e23x_spi.c:274:14
	str	r1, [sp, #12]
	movs	r0, #0
	.loc	4 274 27 is_stmt 0              @ ../Firmware/GD32E23x_standard_peripheral/Source/gd32e23x_spi.c:274:27
	str	r0, [sp, #8]
	.loc	4 275 14 is_stmt 1              @ ../Firmware/GD32E23x_standard_peripheral/Source/gd32e23x_spi.c:275:14
	str	r0, [sp, #4]
	.loc	4 276 14                        @ ../Firmware/GD32E23x_standard_peripheral/Source/gd32e23x_spi.c:276:14
	str	r0, [sp]
	.loc	4 279 5                         @ ../Firmware/GD32E23x_standard_peripheral/Source/gd32e23x_spi.c:279:5
	ldr	r2, [sp, #28]
	.loc	4 279 28 is_stmt 0              @ ../Firmware/GD32E23x_standard_peripheral/Source/gd32e23x_spi.c:279:28
	str	r1, [r2, #32]
	.loc	4 282 16 is_stmt 1              @ ../Firmware/GD32E23x_standard_peripheral/Source/gd32e23x_spi.c:282:16
	bl	rcu_clock_freq_get
	.loc	4 282 14 is_stmt 0              @ ../Firmware/GD32E23x_standard_peripheral/Source/gd32e23x_spi.c:282:14
	str	r0, [sp]
.Ltmp25:
	.loc	4 285 29 is_stmt 1              @ ../Firmware/GD32E23x_standard_peripheral/Source/gd32e23x_spi.c:285:29
	ldr	r0, [sp, #16]
	movw	r1, #512
.Ltmp26:
	.loc	4 285 8 is_stmt 0               @ ../Firmware/GD32E23x_standard_peripheral/Source/gd32e23x_spi.c:285:8
	cmp	r0, r1
	bne	.LBB6_2
	b	.LBB6_1
.LBB6_1:
.Ltmp27:
	.loc	4 286 29 is_stmt 1              @ ../Firmware/GD32E23x_standard_peripheral/Source/gd32e23x_spi.c:286:29
	ldr	r0, [sp]
	.loc	4 286 38 is_stmt 0              @ ../Firmware/GD32E23x_standard_peripheral/Source/gd32e23x_spi.c:286:38
	lsrs	r1, r0, #8
	movs	r0, #10
	.loc	4 286 46                        @ ../Firmware/GD32E23x_standard_peripheral/Source/gd32e23x_spi.c:286:46
	muls	r0, r1, r0
	.loc	4 286 55                        @ ../Firmware/GD32E23x_standard_peripheral/Source/gd32e23x_spi.c:286:55
	ldr	r1, [sp, #24]
	.loc	4 286 53                        @ ../Firmware/GD32E23x_standard_peripheral/Source/gd32e23x_spi.c:286:53
	udiv	r0, r0, r1
	.loc	4 286 14                        @ ../Firmware/GD32E23x_standard_peripheral/Source/gd32e23x_spi.c:286:14
	str	r0, [sp, #4]
	.loc	4 287 5 is_stmt 1               @ ../Firmware/GD32E23x_standard_peripheral/Source/gd32e23x_spi.c:287:5
	b	.LBB6_6
.Ltmp28:
.LBB6_2:
	.loc	4 288 43                        @ ../Firmware/GD32E23x_standard_peripheral/Source/gd32e23x_spi.c:288:43
	ldr	r0, [sp, #20]
.Ltmp29:
	.loc	4 288 12 is_stmt 0              @ ../Firmware/GD32E23x_standard_peripheral/Source/gd32e23x_spi.c:288:12
	cbnz	r0, .LBB6_4
	b	.LBB6_3
.LBB6_3:
.Ltmp30:
	.loc	4 289 33 is_stmt 1              @ ../Firmware/GD32E23x_standard_peripheral/Source/gd32e23x_spi.c:289:33
	ldr	r0, [sp]
	.loc	4 289 42 is_stmt 0              @ ../Firmware/GD32E23x_standard_peripheral/Source/gd32e23x_spi.c:289:42
	lsrs	r1, r0, #5
	movs	r0, #10
	.loc	4 289 49                        @ ../Firmware/GD32E23x_standard_peripheral/Source/gd32e23x_spi.c:289:49
	muls	r0, r1, r0
	.loc	4 289 58                        @ ../Firmware/GD32E23x_standard_peripheral/Source/gd32e23x_spi.c:289:58
	ldr	r1, [sp, #24]
	.loc	4 289 56                        @ ../Firmware/GD32E23x_standard_peripheral/Source/gd32e23x_spi.c:289:56
	udiv	r0, r0, r1
	.loc	4 289 18                        @ ../Firmware/GD32E23x_standard_peripheral/Source/gd32e23x_spi.c:289:18
	str	r0, [sp, #4]
	.loc	4 290 9 is_stmt 1               @ ../Firmware/GD32E23x_standard_peripheral/Source/gd32e23x_spi.c:290:9
	b	.LBB6_5
.Ltmp31:
.LBB6_4:
	.loc	4 291 33                        @ ../Firmware/GD32E23x_standard_peripheral/Source/gd32e23x_spi.c:291:33
	ldr	r0, [sp]
	.loc	4 291 42 is_stmt 0              @ ../Firmware/GD32E23x_standard_peripheral/Source/gd32e23x_spi.c:291:42
	lsrs	r1, r0, #6
	movs	r0, #10
	.loc	4 291 49                        @ ../Firmware/GD32E23x_standard_peripheral/Source/gd32e23x_spi.c:291:49
	muls	r0, r1, r0
	.loc	4 291 58                        @ ../Firmware/GD32E23x_standard_peripheral/Source/gd32e23x_spi.c:291:58
	ldr	r1, [sp, #24]
	.loc	4 291 56                        @ ../Firmware/GD32E23x_standard_peripheral/Source/gd32e23x_spi.c:291:56
	udiv	r0, r0, r1
	.loc	4 291 18                        @ ../Firmware/GD32E23x_standard_peripheral/Source/gd32e23x_spi.c:291:18
	str	r0, [sp, #4]
	b	.LBB6_5
.Ltmp32:
.LBB6_5:
	.loc	4 0 18                          @ ../Firmware/GD32E23x_standard_peripheral/Source/gd32e23x_spi.c:0:18
	b	.LBB6_6
.LBB6_6:
	.loc	4 296 13 is_stmt 1              @ ../Firmware/GD32E23x_standard_peripheral/Source/gd32e23x_spi.c:296:13
	ldr	r0, [sp, #4]
	.loc	4 296 18 is_stmt 0              @ ../Firmware/GD32E23x_standard_peripheral/Source/gd32e23x_spi.c:296:18
	adds	r0, r0, #5
	movs	r1, #10
	.loc	4 296 24                        @ ../Firmware/GD32E23x_standard_peripheral/Source/gd32e23x_spi.c:296:24
	udiv	r0, r0, r1
	.loc	4 296 10                        @ ../Firmware/GD32E23x_standard_peripheral/Source/gd32e23x_spi.c:296:10
	str	r0, [sp, #4]
	.loc	4 297 14 is_stmt 1              @ ../Firmware/GD32E23x_standard_peripheral/Source/gd32e23x_spi.c:297:14
	ldr	r0, [sp, #4]
	movs	r1, #1
	.loc	4 297 19 is_stmt 0              @ ../Firmware/GD32E23x_standard_peripheral/Source/gd32e23x_spi.c:297:19
	ands	r0, r1
	.loc	4 297 11                        @ ../Firmware/GD32E23x_standard_peripheral/Source/gd32e23x_spi.c:297:11
	str	r0, [sp, #8]
	.loc	4 298 16 is_stmt 1              @ ../Firmware/GD32E23x_standard_peripheral/Source/gd32e23x_spi.c:298:16
	ldr	r0, [sp, #4]
	.loc	4 298 23 is_stmt 0              @ ../Firmware/GD32E23x_standard_peripheral/Source/gd32e23x_spi.c:298:23
	ldr	r1, [sp, #8]
	.loc	4 298 21                        @ ../Firmware/GD32E23x_standard_peripheral/Source/gd32e23x_spi.c:298:21
	subs	r0, r0, r1
	.loc	4 298 30                        @ ../Firmware/GD32E23x_standard_peripheral/Source/gd32e23x_spi.c:298:30
	lsrs	r0, r0, #1
	.loc	4 298 12                        @ ../Firmware/GD32E23x_standard_peripheral/Source/gd32e23x_spi.c:298:12
	str	r0, [sp, #12]
	.loc	4 299 15 is_stmt 1              @ ../Firmware/GD32E23x_standard_peripheral/Source/gd32e23x_spi.c:299:15
	ldr	r0, [sp, #8]
	.loc	4 299 21 is_stmt 0              @ ../Firmware/GD32E23x_standard_peripheral/Source/gd32e23x_spi.c:299:21
	lsls	r0, r0, #8
	.loc	4 299 12                        @ ../Firmware/GD32E23x_standard_peripheral/Source/gd32e23x_spi.c:299:12
	str	r0, [sp, #8]
.Ltmp33:
	.loc	4 302 9 is_stmt 1               @ ../Firmware/GD32E23x_standard_peripheral/Source/gd32e23x_spi.c:302:9
	ldr	r0, [sp, #12]
	.loc	4 302 22 is_stmt 0              @ ../Firmware/GD32E23x_standard_peripheral/Source/gd32e23x_spi.c:302:22
	cmp	r0, #2
	blo	.LBB6_8
	b	.LBB6_7
.LBB6_7:
	.loc	4 302 26                        @ ../Firmware/GD32E23x_standard_peripheral/Source/gd32e23x_spi.c:302:26
	ldr	r0, [sp, #12]
.Ltmp34:
	.loc	4 302 8                         @ ../Firmware/GD32E23x_standard_peripheral/Source/gd32e23x_spi.c:302:8
	lsrs	r0, r0, #8
	cbz	r0, .LBB6_9
	b	.LBB6_8
.LBB6_8:
	.loc	4 0 8                           @ ../Firmware/GD32E23x_standard_peripheral/Source/gd32e23x_spi.c:0:8
	movs	r0, #2
.Ltmp35:
	.loc	4 303 16 is_stmt 1              @ ../Firmware/GD32E23x_standard_peripheral/Source/gd32e23x_spi.c:303:16
	str	r0, [sp, #12]
	movs	r0, #0
	.loc	4 304 15                        @ ../Firmware/GD32E23x_standard_peripheral/Source/gd32e23x_spi.c:304:15
	str	r0, [sp, #8]
	.loc	4 305 5                         @ ../Firmware/GD32E23x_standard_peripheral/Source/gd32e23x_spi.c:305:5
	b	.LBB6_9
.Ltmp36:
.LBB6_9:
	.loc	4 308 41                        @ ../Firmware/GD32E23x_standard_peripheral/Source/gd32e23x_spi.c:308:41
	ldr	r0, [sp, #12]
	.loc	4 308 50 is_stmt 0              @ ../Firmware/GD32E23x_standard_peripheral/Source/gd32e23x_spi.c:308:50
	ldr	r1, [sp, #8]
	.loc	4 308 48                        @ ../Firmware/GD32E23x_standard_peripheral/Source/gd32e23x_spi.c:308:48
	orrs	r0, r1
	.loc	4 308 58                        @ ../Firmware/GD32E23x_standard_peripheral/Source/gd32e23x_spi.c:308:58
	ldr	r1, [sp, #16]
	.loc	4 308 56                        @ ../Firmware/GD32E23x_standard_peripheral/Source/gd32e23x_spi.c:308:56
	orrs	r0, r1
	.loc	4 308 5                         @ ../Firmware/GD32E23x_standard_peripheral/Source/gd32e23x_spi.c:308:5
	ldr	r1, [sp, #28]
	.loc	4 308 28                        @ ../Firmware/GD32E23x_standard_peripheral/Source/gd32e23x_spi.c:308:28
	str	r0, [r1, #32]
	.loc	4 311 5 is_stmt 1               @ ../Firmware/GD32E23x_standard_peripheral/Source/gd32e23x_spi.c:311:5
	ldr	r1, [sp, #28]
	.loc	4 311 28 is_stmt 0              @ ../Firmware/GD32E23x_standard_peripheral/Source/gd32e23x_spi.c:311:28
	ldr	r0, [r1, #28]
	movs	r2, #7
	bics	r0, r2
	str	r0, [r1, #28]
	.loc	4 314 41 is_stmt 1              @ ../Firmware/GD32E23x_standard_peripheral/Source/gd32e23x_spi.c:314:41
	ldr	r2, [sp, #20]
	.loc	4 314 5 is_stmt 0               @ ../Firmware/GD32E23x_standard_peripheral/Source/gd32e23x_spi.c:314:5
	ldr	r1, [sp, #28]
	.loc	4 314 28                        @ ../Firmware/GD32E23x_standard_peripheral/Source/gd32e23x_spi.c:314:28
	ldr	r0, [r1, #28]
	orrs	r0, r2
	str	r0, [r1, #28]
	.loc	4 315 1 is_stmt 1               @ ../Firmware/GD32E23x_standard_peripheral/Source/gd32e23x_spi.c:315:1
	add	sp, #32
	pop	{r7, pc}
.Ltmp37:
.Lfunc_end6:
	.size	i2s_psc_config, .Lfunc_end6-i2s_psc_config
	.cfi_endproc
	.cantunwind
	.fnend
                                        @ -- End function
	.section	.text.i2s_enable,"ax",%progbits
	.hidden	i2s_enable                      @ -- Begin function i2s_enable
	.globl	i2s_enable
	.p2align	1
	.type	i2s_enable,%function
	.code	16                              @ @i2s_enable
	.thumb_func
i2s_enable:
.Lfunc_begin7:
	.loc	4 325 0                         @ ../Firmware/GD32E23x_standard_peripheral/Source/gd32e23x_spi.c:325:0
	.fnstart
	.cfi_startproc
@ %bb.0:
	.pad	#4
	sub	sp, #4
	.cfi_def_cfa_offset 4
	str	r0, [sp]
.Ltmp38:
	.loc	4 326 5 prologue_end            @ ../Firmware/GD32E23x_standard_peripheral/Source/gd32e23x_spi.c:326:5
	ldr	r1, [sp]
	.loc	4 326 28 is_stmt 0              @ ../Firmware/GD32E23x_standard_peripheral/Source/gd32e23x_spi.c:326:28
	ldr	r0, [r1, #28]
	movw	r2, #1024
	orrs	r0, r2
	str	r0, [r1, #28]
	.loc	4 327 1 is_stmt 1               @ ../Firmware/GD32E23x_standard_peripheral/Source/gd32e23x_spi.c:327:1
	add	sp, #4
	bx	lr
.Ltmp39:
.Lfunc_end7:
	.size	i2s_enable, .Lfunc_end7-i2s_enable
	.cfi_endproc
	.cantunwind
	.fnend
                                        @ -- End function
	.section	.text.i2s_disable,"ax",%progbits
	.hidden	i2s_disable                     @ -- Begin function i2s_disable
	.globl	i2s_disable
	.p2align	1
	.type	i2s_disable,%function
	.code	16                              @ @i2s_disable
	.thumb_func
i2s_disable:
.Lfunc_begin8:
	.loc	4 336 0                         @ ../Firmware/GD32E23x_standard_peripheral/Source/gd32e23x_spi.c:336:0
	.fnstart
	.cfi_startproc
@ %bb.0:
	.pad	#4
	sub	sp, #4
	.cfi_def_cfa_offset 4
	str	r0, [sp]
.Ltmp40:
	.loc	4 337 5 prologue_end            @ ../Firmware/GD32E23x_standard_peripheral/Source/gd32e23x_spi.c:337:5
	ldr	r1, [sp]
	.loc	4 337 28 is_stmt 0              @ ../Firmware/GD32E23x_standard_peripheral/Source/gd32e23x_spi.c:337:28
	ldr	r0, [r1, #28]
	movw	r2, #1024
	bics	r0, r2
	str	r0, [r1, #28]
	.loc	4 338 1 is_stmt 1               @ ../Firmware/GD32E23x_standard_peripheral/Source/gd32e23x_spi.c:338:1
	add	sp, #4
	bx	lr
.Ltmp41:
.Lfunc_end8:
	.size	i2s_disable, .Lfunc_end8-i2s_disable
	.cfi_endproc
	.cantunwind
	.fnend
                                        @ -- End function
	.section	.text.spi_nss_output_enable,"ax",%progbits
	.hidden	spi_nss_output_enable           @ -- Begin function spi_nss_output_enable
	.globl	spi_nss_output_enable
	.p2align	1
	.type	spi_nss_output_enable,%function
	.code	16                              @ @spi_nss_output_enable
	.thumb_func
spi_nss_output_enable:
.Lfunc_begin9:
	.loc	4 347 0                         @ ../Firmware/GD32E23x_standard_peripheral/Source/gd32e23x_spi.c:347:0
	.fnstart
	.cfi_startproc
@ %bb.0:
	.pad	#4
	sub	sp, #4
	.cfi_def_cfa_offset 4
	str	r0, [sp]
.Ltmp42:
	.loc	4 348 5 prologue_end            @ ../Firmware/GD32E23x_standard_peripheral/Source/gd32e23x_spi.c:348:5
	ldr	r1, [sp]
	.loc	4 348 26 is_stmt 0              @ ../Firmware/GD32E23x_standard_peripheral/Source/gd32e23x_spi.c:348:26
	ldr	r0, [r1, #4]
	movs	r2, #4
	orrs	r0, r2
	str	r0, [r1, #4]
	.loc	4 349 1 is_stmt 1               @ ../Firmware/GD32E23x_standard_peripheral/Source/gd32e23x_spi.c:349:1
	add	sp, #4
	bx	lr
.Ltmp43:
.Lfunc_end9:
	.size	spi_nss_output_enable, .Lfunc_end9-spi_nss_output_enable
	.cfi_endproc
	.cantunwind
	.fnend
                                        @ -- End function
	.section	.text.spi_nss_output_disable,"ax",%progbits
	.hidden	spi_nss_output_disable          @ -- Begin function spi_nss_output_disable
	.globl	spi_nss_output_disable
	.p2align	1
	.type	spi_nss_output_disable,%function
	.code	16                              @ @spi_nss_output_disable
	.thumb_func
spi_nss_output_disable:
.Lfunc_begin10:
	.loc	4 358 0                         @ ../Firmware/GD32E23x_standard_peripheral/Source/gd32e23x_spi.c:358:0
	.fnstart
	.cfi_startproc
@ %bb.0:
	.pad	#4
	sub	sp, #4
	.cfi_def_cfa_offset 4
	str	r0, [sp]
.Ltmp44:
	.loc	4 359 5 prologue_end            @ ../Firmware/GD32E23x_standard_peripheral/Source/gd32e23x_spi.c:359:5
	ldr	r1, [sp]
	.loc	4 359 26 is_stmt 0              @ ../Firmware/GD32E23x_standard_peripheral/Source/gd32e23x_spi.c:359:26
	ldr	r0, [r1, #4]
	movs	r2, #4
	bics	r0, r2
	str	r0, [r1, #4]
	.loc	4 360 1 is_stmt 1               @ ../Firmware/GD32E23x_standard_peripheral/Source/gd32e23x_spi.c:360:1
	add	sp, #4
	bx	lr
.Ltmp45:
.Lfunc_end10:
	.size	spi_nss_output_disable, .Lfunc_end10-spi_nss_output_disable
	.cfi_endproc
	.cantunwind
	.fnend
                                        @ -- End function
	.section	.text.spi_nss_internal_high,"ax",%progbits
	.hidden	spi_nss_internal_high           @ -- Begin function spi_nss_internal_high
	.globl	spi_nss_internal_high
	.p2align	1
	.type	spi_nss_internal_high,%function
	.code	16                              @ @spi_nss_internal_high
	.thumb_func
spi_nss_internal_high:
.Lfunc_begin11:
	.loc	4 369 0                         @ ../Firmware/GD32E23x_standard_peripheral/Source/gd32e23x_spi.c:369:0
	.fnstart
	.cfi_startproc
@ %bb.0:
	.pad	#4
	sub	sp, #4
	.cfi_def_cfa_offset 4
	str	r0, [sp]
.Ltmp46:
	.loc	4 370 5 prologue_end            @ ../Firmware/GD32E23x_standard_peripheral/Source/gd32e23x_spi.c:370:5
	ldr	r1, [sp]
	.loc	4 370 26 is_stmt 0              @ ../Firmware/GD32E23x_standard_peripheral/Source/gd32e23x_spi.c:370:26
	ldr	r0, [r1]
	movw	r2, #256
	orrs	r0, r2
	str	r0, [r1]
	.loc	4 371 1 is_stmt 1               @ ../Firmware/GD32E23x_standard_peripheral/Source/gd32e23x_spi.c:371:1
	add	sp, #4
	bx	lr
.Ltmp47:
.Lfunc_end11:
	.size	spi_nss_internal_high, .Lfunc_end11-spi_nss_internal_high
	.cfi_endproc
	.cantunwind
	.fnend
                                        @ -- End function
	.section	.text.spi_nss_internal_low,"ax",%progbits
	.hidden	spi_nss_internal_low            @ -- Begin function spi_nss_internal_low
	.globl	spi_nss_internal_low
	.p2align	1
	.type	spi_nss_internal_low,%function
	.code	16                              @ @spi_nss_internal_low
	.thumb_func
spi_nss_internal_low:
.Lfunc_begin12:
	.loc	4 380 0                         @ ../Firmware/GD32E23x_standard_peripheral/Source/gd32e23x_spi.c:380:0
	.fnstart
	.cfi_startproc
@ %bb.0:
	.pad	#4
	sub	sp, #4
	.cfi_def_cfa_offset 4
	str	r0, [sp]
.Ltmp48:
	.loc	4 381 5 prologue_end            @ ../Firmware/GD32E23x_standard_peripheral/Source/gd32e23x_spi.c:381:5
	ldr	r1, [sp]
	.loc	4 381 26 is_stmt 0              @ ../Firmware/GD32E23x_standard_peripheral/Source/gd32e23x_spi.c:381:26
	ldr	r0, [r1]
	movw	r2, #256
	bics	r0, r2
	str	r0, [r1]
	.loc	4 382 1 is_stmt 1               @ ../Firmware/GD32E23x_standard_peripheral/Source/gd32e23x_spi.c:382:1
	add	sp, #4
	bx	lr
.Ltmp49:
.Lfunc_end12:
	.size	spi_nss_internal_low, .Lfunc_end12-spi_nss_internal_low
	.cfi_endproc
	.cantunwind
	.fnend
                                        @ -- End function
	.section	.text.spi_dma_enable,"ax",%progbits
	.hidden	spi_dma_enable                  @ -- Begin function spi_dma_enable
	.globl	spi_dma_enable
	.p2align	1
	.type	spi_dma_enable,%function
	.code	16                              @ @spi_dma_enable
	.thumb_func
spi_dma_enable:
.Lfunc_begin13:
	.loc	4 395 0                         @ ../Firmware/GD32E23x_standard_peripheral/Source/gd32e23x_spi.c:395:0
	.fnstart
	.cfi_startproc
@ %bb.0:
	.pad	#8
	sub	sp, #8
	.cfi_def_cfa_offset 8
                                        @ kill: def $r2 killed $r1
	str	r0, [sp, #4]
	mov	r0, sp
	strb	r1, [r0]
.Ltmp50:
	.loc	4 396 28 prologue_end           @ ../Firmware/GD32E23x_standard_peripheral/Source/gd32e23x_spi.c:396:28
	ldrb	r0, [r0]
.Ltmp51:
	.loc	4 396 8 is_stmt 0               @ ../Firmware/GD32E23x_standard_peripheral/Source/gd32e23x_spi.c:396:8
	cbnz	r0, .LBB13_2
	b	.LBB13_1
.LBB13_1:
.Ltmp52:
	.loc	4 397 9 is_stmt 1               @ ../Firmware/GD32E23x_standard_peripheral/Source/gd32e23x_spi.c:397:9
	ldr	r1, [sp, #4]
	.loc	4 397 30 is_stmt 0              @ ../Firmware/GD32E23x_standard_peripheral/Source/gd32e23x_spi.c:397:30
	ldr	r0, [r1, #4]
	movs	r2, #2
	orrs	r0, r2
	str	r0, [r1, #4]
	.loc	4 398 5 is_stmt 1               @ ../Firmware/GD32E23x_standard_peripheral/Source/gd32e23x_spi.c:398:5
	b	.LBB13_3
.Ltmp53:
.LBB13_2:
	.loc	4 399 9                         @ ../Firmware/GD32E23x_standard_peripheral/Source/gd32e23x_spi.c:399:9
	ldr	r1, [sp, #4]
	.loc	4 399 30 is_stmt 0              @ ../Firmware/GD32E23x_standard_peripheral/Source/gd32e23x_spi.c:399:30
	ldr	r0, [r1, #4]
	movs	r2, #1
	orrs	r0, r2
	str	r0, [r1, #4]
	b	.LBB13_3
.Ltmp54:
.LBB13_3:
	.loc	4 401 1 is_stmt 1               @ ../Firmware/GD32E23x_standard_peripheral/Source/gd32e23x_spi.c:401:1
	add	sp, #8
	bx	lr
.Ltmp55:
.Lfunc_end13:
	.size	spi_dma_enable, .Lfunc_end13-spi_dma_enable
	.cfi_endproc
	.cantunwind
	.fnend
                                        @ -- End function
	.section	.text.spi_dma_disable,"ax",%progbits
	.hidden	spi_dma_disable                 @ -- Begin function spi_dma_disable
	.globl	spi_dma_disable
	.p2align	1
	.type	spi_dma_disable,%function
	.code	16                              @ @spi_dma_disable
	.thumb_func
spi_dma_disable:
.Lfunc_begin14:
	.loc	4 414 0                         @ ../Firmware/GD32E23x_standard_peripheral/Source/gd32e23x_spi.c:414:0
	.fnstart
	.cfi_startproc
@ %bb.0:
	.pad	#8
	sub	sp, #8
	.cfi_def_cfa_offset 8
                                        @ kill: def $r2 killed $r1
	str	r0, [sp, #4]
	mov	r0, sp
	strb	r1, [r0]
.Ltmp56:
	.loc	4 415 28 prologue_end           @ ../Firmware/GD32E23x_standard_peripheral/Source/gd32e23x_spi.c:415:28
	ldrb	r0, [r0]
.Ltmp57:
	.loc	4 415 8 is_stmt 0               @ ../Firmware/GD32E23x_standard_peripheral/Source/gd32e23x_spi.c:415:8
	cbnz	r0, .LBB14_2
	b	.LBB14_1
.LBB14_1:
.Ltmp58:
	.loc	4 416 9 is_stmt 1               @ ../Firmware/GD32E23x_standard_peripheral/Source/gd32e23x_spi.c:416:9
	ldr	r1, [sp, #4]
	.loc	4 416 30 is_stmt 0              @ ../Firmware/GD32E23x_standard_peripheral/Source/gd32e23x_spi.c:416:30
	ldr	r0, [r1, #4]
	movs	r2, #2
	bics	r0, r2
	str	r0, [r1, #4]
	.loc	4 417 5 is_stmt 1               @ ../Firmware/GD32E23x_standard_peripheral/Source/gd32e23x_spi.c:417:5
	b	.LBB14_3
.Ltmp59:
.LBB14_2:
	.loc	4 418 9                         @ ../Firmware/GD32E23x_standard_peripheral/Source/gd32e23x_spi.c:418:9
	ldr	r1, [sp, #4]
	.loc	4 418 30 is_stmt 0              @ ../Firmware/GD32E23x_standard_peripheral/Source/gd32e23x_spi.c:418:30
	ldr	r0, [r1, #4]
	movs	r2, #1
	bics	r0, r2
	str	r0, [r1, #4]
	b	.LBB14_3
.Ltmp60:
.LBB14_3:
	.loc	4 420 1 is_stmt 1               @ ../Firmware/GD32E23x_standard_peripheral/Source/gd32e23x_spi.c:420:1
	add	sp, #8
	bx	lr
.Ltmp61:
.Lfunc_end14:
	.size	spi_dma_disable, .Lfunc_end14-spi_dma_disable
	.cfi_endproc
	.cantunwind
	.fnend
                                        @ -- End function
	.section	.text.spi_transmit_odd_config,"ax",%progbits
	.hidden	spi_transmit_odd_config         @ -- Begin function spi_transmit_odd_config
	.globl	spi_transmit_odd_config
	.p2align	1
	.type	spi_transmit_odd_config,%function
	.code	16                              @ @spi_transmit_odd_config
	.thumb_func
spi_transmit_odd_config:
.Lfunc_begin15:
	.loc	4 433 0                         @ ../Firmware/GD32E23x_standard_peripheral/Source/gd32e23x_spi.c:433:0
	.fnstart
	.cfi_startproc
@ %bb.0:
	.pad	#8
	sub	sp, #8
	.cfi_def_cfa_offset 8
                                        @ kill: def $r2 killed $r1
	str	r0, [sp, #4]
	mov	r0, sp
	strh	r1, [r0]
.Ltmp62:
	.loc	4 435 5 prologue_end            @ ../Firmware/GD32E23x_standard_peripheral/Source/gd32e23x_spi.c:435:5
	ldr	r2, [sp, #4]
	.loc	4 435 26 is_stmt 0              @ ../Firmware/GD32E23x_standard_peripheral/Source/gd32e23x_spi.c:435:26
	ldr	r1, [r2, #4]
	movw	r3, #16384
	bics	r1, r3
	str	r1, [r2, #4]
	.loc	4 437 39 is_stmt 1              @ ../Firmware/GD32E23x_standard_peripheral/Source/gd32e23x_spi.c:437:39
	ldrh	r2, [r0]
	.loc	4 437 5 is_stmt 0               @ ../Firmware/GD32E23x_standard_peripheral/Source/gd32e23x_spi.c:437:5
	ldr	r1, [sp, #4]
	.loc	4 437 26                        @ ../Firmware/GD32E23x_standard_peripheral/Source/gd32e23x_spi.c:437:26
	ldr	r0, [r1, #4]
	orrs	r0, r2
	str	r0, [r1, #4]
	.loc	4 438 1 is_stmt 1               @ ../Firmware/GD32E23x_standard_peripheral/Source/gd32e23x_spi.c:438:1
	add	sp, #8
	bx	lr
.Ltmp63:
.Lfunc_end15:
	.size	spi_transmit_odd_config, .Lfunc_end15-spi_transmit_odd_config
	.cfi_endproc
	.cantunwind
	.fnend
                                        @ -- End function
	.section	.text.spi_receive_odd_config,"ax",%progbits
	.hidden	spi_receive_odd_config          @ -- Begin function spi_receive_odd_config
	.globl	spi_receive_odd_config
	.p2align	1
	.type	spi_receive_odd_config,%function
	.code	16                              @ @spi_receive_odd_config
	.thumb_func
spi_receive_odd_config:
.Lfunc_begin16:
	.loc	4 451 0                         @ ../Firmware/GD32E23x_standard_peripheral/Source/gd32e23x_spi.c:451:0
	.fnstart
	.cfi_startproc
@ %bb.0:
	.pad	#8
	sub	sp, #8
	.cfi_def_cfa_offset 8
                                        @ kill: def $r2 killed $r1
	str	r0, [sp, #4]
	mov	r0, sp
	strh	r1, [r0]
.Ltmp64:
	.loc	4 453 5 prologue_end            @ ../Firmware/GD32E23x_standard_peripheral/Source/gd32e23x_spi.c:453:5
	ldr	r2, [sp, #4]
	.loc	4 453 26 is_stmt 0              @ ../Firmware/GD32E23x_standard_peripheral/Source/gd32e23x_spi.c:453:26
	ldr	r1, [r2, #4]
	movw	r3, #8192
	bics	r1, r3
	str	r1, [r2, #4]
	.loc	4 455 39 is_stmt 1              @ ../Firmware/GD32E23x_standard_peripheral/Source/gd32e23x_spi.c:455:39
	ldrh	r2, [r0]
	.loc	4 455 5 is_stmt 0               @ ../Firmware/GD32E23x_standard_peripheral/Source/gd32e23x_spi.c:455:5
	ldr	r1, [sp, #4]
	.loc	4 455 26                        @ ../Firmware/GD32E23x_standard_peripheral/Source/gd32e23x_spi.c:455:26
	ldr	r0, [r1, #4]
	orrs	r0, r2
	str	r0, [r1, #4]
	.loc	4 456 1 is_stmt 1               @ ../Firmware/GD32E23x_standard_peripheral/Source/gd32e23x_spi.c:456:1
	add	sp, #8
	bx	lr
.Ltmp65:
.Lfunc_end16:
	.size	spi_receive_odd_config, .Lfunc_end16-spi_receive_odd_config
	.cfi_endproc
	.cantunwind
	.fnend
                                        @ -- End function
	.section	.text.spi_i2s_data_frame_format_config,"ax",%progbits
	.hidden	spi_i2s_data_frame_format_config @ -- Begin function spi_i2s_data_frame_format_config
	.globl	spi_i2s_data_frame_format_config
	.p2align	2
	.type	spi_i2s_data_frame_format_config,%function
	.code	16                              @ @spi_i2s_data_frame_format_config
	.thumb_func
spi_i2s_data_frame_format_config:
.Lfunc_begin17:
	.loc	4 468 0                         @ ../Firmware/GD32E23x_standard_peripheral/Source/gd32e23x_spi.c:468:0
	.fnstart
	.cfi_startproc
@ %bb.0:
	.pad	#16
	sub	sp, #16
	.cfi_def_cfa_offset 16
                                        @ kill: def $r2 killed $r1
	str	r0, [sp, #8]
	add	r0, sp, #4
	strh	r1, [r0]
.Ltmp66:
	.loc	4 470 16 prologue_end           @ ../Firmware/GD32E23x_standard_peripheral/Source/gd32e23x_spi.c:470:16
	ldr	r0, [sp, #8]
	ldr	r1, __arm_cp.17_0
.Ltmp67:
	.loc	4 470 8 is_stmt 0               @ ../Firmware/GD32E23x_standard_peripheral/Source/gd32e23x_spi.c:470:8
	cmp	r0, r1
	bne	.LBB17_6
	b	.LBB17_1
.LBB17_1:
	.loc	4 0 8                           @ ../Firmware/GD32E23x_standard_peripheral/Source/gd32e23x_spi.c:0:8
	add	r0, sp, #4
.Ltmp68:
	.loc	4 472 35 is_stmt 1              @ ../Firmware/GD32E23x_standard_peripheral/Source/gd32e23x_spi.c:472:35
	ldrh	r0, [r0]
	movw	r1, #1792
	.loc	4 472 49 is_stmt 0              @ ../Firmware/GD32E23x_standard_peripheral/Source/gd32e23x_spi.c:472:49
	cmp	r0, r1
	beq	.LBB17_4
	b	.LBB17_2
.LBB17_2:
	.loc	4 0 49                          @ ../Firmware/GD32E23x_standard_peripheral/Source/gd32e23x_spi.c:0:49
	add	r0, sp, #4
	.loc	4 472 76                        @ ../Firmware/GD32E23x_standard_peripheral/Source/gd32e23x_spi.c:472:76
	ldrh	r0, [r0]
	movw	r1, #3840
.Ltmp69:
	.loc	4 472 12                        @ ../Firmware/GD32E23x_standard_peripheral/Source/gd32e23x_spi.c:472:12
	cmp	r0, r1
	beq	.LBB17_4
	b	.LBB17_3
.LBB17_3:
	.loc	4 0 12                          @ ../Firmware/GD32E23x_standard_peripheral/Source/gd32e23x_spi.c:0:12
	add	r1, sp, #12
	movs	r0, #0
.Ltmp70:
	.loc	4 473 13 is_stmt 1              @ ../Firmware/GD32E23x_standard_peripheral/Source/gd32e23x_spi.c:473:13
	strb	r0, [r1]
	b	.LBB17_8
.Ltmp71:
.LBB17_4:
	.loc	4 476 13                        @ ../Firmware/GD32E23x_standard_peripheral/Source/gd32e23x_spi.c:476:13
	ldr	r2, [sp, #8]
	.loc	4 476 34 is_stmt 0              @ ../Firmware/GD32E23x_standard_peripheral/Source/gd32e23x_spi.c:476:34
	ldr	r1, [r2]
	movw	r0, #2048
	bics	r1, r0
	str	r1, [r2]
	add	r1, sp, #4
	.loc	4 478 38 is_stmt 1              @ ../Firmware/GD32E23x_standard_peripheral/Source/gd32e23x_spi.c:478:38
	ldrh	r2, [r1]
	.loc	4 478 61 is_stmt 0              @ ../Firmware/GD32E23x_standard_peripheral/Source/gd32e23x_spi.c:478:61
	ands	r2, r0
	.loc	4 478 13                        @ ../Firmware/GD32E23x_standard_peripheral/Source/gd32e23x_spi.c:478:13
	ldr	r1, [sp, #8]
	.loc	4 478 34                        @ ../Firmware/GD32E23x_standard_peripheral/Source/gd32e23x_spi.c:478:34
	ldr	r0, [r1]
	orrs	r0, r2
	str	r0, [r1]
	b	.LBB17_5
.Ltmp72:
.LBB17_5:
	.loc	4 480 5 is_stmt 1               @ ../Firmware/GD32E23x_standard_peripheral/Source/gd32e23x_spi.c:480:5
	b	.LBB17_7
.Ltmp73:
.LBB17_6:
	.loc	4 481 15                        @ ../Firmware/GD32E23x_standard_peripheral/Source/gd32e23x_spi.c:481:15
	ldr	r0, [sp, #8]
	ldr	r0, [r0, #4]
	.loc	4 481 13 is_stmt 0              @ ../Firmware/GD32E23x_standard_peripheral/Source/gd32e23x_spi.c:481:13
	str	r0, [sp]
	.loc	4 483 13 is_stmt 1              @ ../Firmware/GD32E23x_standard_peripheral/Source/gd32e23x_spi.c:483:13
	ldr	r0, [sp]
	movw	r1, #3840
	bics	r0, r1
	str	r0, [sp]
	add	r0, sp, #4
	.loc	4 484 26                        @ ../Firmware/GD32E23x_standard_peripheral/Source/gd32e23x_spi.c:484:26
	ldrh	r1, [r0]
	.loc	4 484 13 is_stmt 0              @ ../Firmware/GD32E23x_standard_peripheral/Source/gd32e23x_spi.c:484:13
	ldr	r0, [sp]
	orrs	r0, r1
	str	r0, [sp]
	.loc	4 486 32 is_stmt 1              @ ../Firmware/GD32E23x_standard_peripheral/Source/gd32e23x_spi.c:486:32
	ldr	r0, [sp]
	.loc	4 486 9 is_stmt 0               @ ../Firmware/GD32E23x_standard_peripheral/Source/gd32e23x_spi.c:486:9
	ldr	r1, [sp, #8]
	.loc	4 486 30                        @ ../Firmware/GD32E23x_standard_peripheral/Source/gd32e23x_spi.c:486:30
	str	r0, [r1, #4]
	b	.LBB17_7
.Ltmp74:
.LBB17_7:
	.loc	4 0 30                          @ ../Firmware/GD32E23x_standard_peripheral/Source/gd32e23x_spi.c:0:30
	add	r1, sp, #12
	movs	r0, #1
	.loc	4 488 5 is_stmt 1               @ ../Firmware/GD32E23x_standard_peripheral/Source/gd32e23x_spi.c:488:5
	strb	r0, [r1]
	b	.LBB17_8
.LBB17_8:
	.loc	4 0 5 is_stmt 0                 @ ../Firmware/GD32E23x_standard_peripheral/Source/gd32e23x_spi.c:0:5
	add	r0, sp, #12
	.loc	4 489 1 is_stmt 1               @ ../Firmware/GD32E23x_standard_peripheral/Source/gd32e23x_spi.c:489:1
	ldrb	r0, [r0]
	add	sp, #16
	bx	lr
.Ltmp75:
	.p2align	2
@ %bb.9:
	.loc	4 0 1 is_stmt 0                 @ ../Firmware/GD32E23x_standard_peripheral/Source/gd32e23x_spi.c:0:1
__arm_cp.17_0:
	.long	1073819648                      @ 0x40013000
.Lcpi_end6:
	.size	__arm_cp.17_0, .Lcpi_end6-__arm_cp.17_0
.Lfunc_end17:
	.size	spi_i2s_data_frame_format_config, .Lfunc_end17-spi_i2s_data_frame_format_config
	.cfi_endproc
	.cantunwind
	.fnend
                                        @ -- End function
	.section	.text.spi_fifo_access_size_config,"ax",%progbits
	.hidden	spi_fifo_access_size_config     @ -- Begin function spi_fifo_access_size_config
	.globl	spi_fifo_access_size_config
	.p2align	1
	.type	spi_fifo_access_size_config,%function
	.code	16                              @ @spi_fifo_access_size_config
	.thumb_func
spi_fifo_access_size_config:
.Lfunc_begin18:
	.loc	4 502 0 is_stmt 1               @ ../Firmware/GD32E23x_standard_peripheral/Source/gd32e23x_spi.c:502:0
	.fnstart
	.cfi_startproc
@ %bb.0:
	.pad	#8
	sub	sp, #8
	.cfi_def_cfa_offset 8
                                        @ kill: def $r2 killed $r1
	str	r0, [sp, #4]
	mov	r0, sp
	strh	r1, [r0]
.Ltmp76:
	.loc	4 504 5 prologue_end            @ ../Firmware/GD32E23x_standard_peripheral/Source/gd32e23x_spi.c:504:5
	ldr	r2, [sp, #4]
	.loc	4 504 26 is_stmt 0              @ ../Firmware/GD32E23x_standard_peripheral/Source/gd32e23x_spi.c:504:26
	ldr	r1, [r2, #4]
	movw	r3, #4096
	bics	r1, r3
	str	r1, [r2, #4]
	.loc	4 506 39 is_stmt 1              @ ../Firmware/GD32E23x_standard_peripheral/Source/gd32e23x_spi.c:506:39
	ldrh	r2, [r0]
	.loc	4 506 5 is_stmt 0               @ ../Firmware/GD32E23x_standard_peripheral/Source/gd32e23x_spi.c:506:5
	ldr	r1, [sp, #4]
	.loc	4 506 26                        @ ../Firmware/GD32E23x_standard_peripheral/Source/gd32e23x_spi.c:506:26
	ldr	r0, [r1, #4]
	orrs	r0, r2
	str	r0, [r1, #4]
	.loc	4 507 1 is_stmt 1               @ ../Firmware/GD32E23x_standard_peripheral/Source/gd32e23x_spi.c:507:1
	add	sp, #8
	bx	lr
.Ltmp77:
.Lfunc_end18:
	.size	spi_fifo_access_size_config, .Lfunc_end18-spi_fifo_access_size_config
	.cfi_endproc
	.cantunwind
	.fnend
                                        @ -- End function
	.section	.text.spi_bidirectional_transfer_config,"ax",%progbits
	.hidden	spi_bidirectional_transfer_config @ -- Begin function spi_bidirectional_transfer_config
	.globl	spi_bidirectional_transfer_config
	.p2align	1
	.type	spi_bidirectional_transfer_config,%function
	.code	16                              @ @spi_bidirectional_transfer_config
	.thumb_func
spi_bidirectional_transfer_config:
.Lfunc_begin19:
	.loc	4 520 0                         @ ../Firmware/GD32E23x_standard_peripheral/Source/gd32e23x_spi.c:520:0
	.fnstart
	.cfi_startproc
@ %bb.0:
	.pad	#8
	sub	sp, #8
	.cfi_def_cfa_offset 8
	str	r0, [sp, #4]
	str	r1, [sp]
.Ltmp78:
	.loc	4 521 38 prologue_end           @ ../Firmware/GD32E23x_standard_peripheral/Source/gd32e23x_spi.c:521:38
	ldr	r0, [sp]
	movw	r1, #16384
.Ltmp79:
	.loc	4 521 8 is_stmt 0               @ ../Firmware/GD32E23x_standard_peripheral/Source/gd32e23x_spi.c:521:8
	cmp	r0, r1
	bne	.LBB19_2
	b	.LBB19_1
.LBB19_1:
.Ltmp80:
	.loc	4 523 9 is_stmt 1               @ ../Firmware/GD32E23x_standard_peripheral/Source/gd32e23x_spi.c:523:9
	ldr	r1, [sp, #4]
	.loc	4 523 30 is_stmt 0              @ ../Firmware/GD32E23x_standard_peripheral/Source/gd32e23x_spi.c:523:30
	ldr	r0, [r1]
	movw	r2, #16384
	orrs	r0, r2
	str	r0, [r1]
	.loc	4 524 5 is_stmt 1               @ ../Firmware/GD32E23x_standard_peripheral/Source/gd32e23x_spi.c:524:5
	b	.LBB19_3
.Ltmp81:
.LBB19_2:
	.loc	4 526 9                         @ ../Firmware/GD32E23x_standard_peripheral/Source/gd32e23x_spi.c:526:9
	ldr	r1, [sp, #4]
	.loc	4 526 30 is_stmt 0              @ ../Firmware/GD32E23x_standard_peripheral/Source/gd32e23x_spi.c:526:30
	ldr	r0, [r1]
	movw	r2, #16384
	bics	r0, r2
	str	r0, [r1]
	b	.LBB19_3
.Ltmp82:
.LBB19_3:
	.loc	4 528 1 is_stmt 1               @ ../Firmware/GD32E23x_standard_peripheral/Source/gd32e23x_spi.c:528:1
	add	sp, #8
	bx	lr
.Ltmp83:
.Lfunc_end19:
	.size	spi_bidirectional_transfer_config, .Lfunc_end19-spi_bidirectional_transfer_config
	.cfi_endproc
	.cantunwind
	.fnend
                                        @ -- End function
	.section	.text.spi_i2s_data_transmit,"ax",%progbits
	.hidden	spi_i2s_data_transmit           @ -- Begin function spi_i2s_data_transmit
	.globl	spi_i2s_data_transmit
	.p2align	2
	.type	spi_i2s_data_transmit,%function
	.code	16                              @ @spi_i2s_data_transmit
	.thumb_func
spi_i2s_data_transmit:
.Lfunc_begin20:
	.loc	4 538 0                         @ ../Firmware/GD32E23x_standard_peripheral/Source/gd32e23x_spi.c:538:0
	.fnstart
	.cfi_startproc
@ %bb.0:
	.pad	#16
	sub	sp, #16
	.cfi_def_cfa_offset 16
                                        @ kill: def $r2 killed $r1
	str	r0, [sp, #12]
	add	r0, sp, #8
	strh	r1, [r0]
.Ltmp84:
	.loc	4 540 16 prologue_end           @ ../Firmware/GD32E23x_standard_peripheral/Source/gd32e23x_spi.c:540:16
	ldr	r0, [sp, #12]
	ldr	r1, __arm_cp.20_0
.Ltmp85:
	.loc	4 540 8 is_stmt 0               @ ../Firmware/GD32E23x_standard_peripheral/Source/gd32e23x_spi.c:540:8
	cmp	r0, r1
	bne	.LBB20_2
	b	.LBB20_1
.LBB20_1:
	.loc	4 0 8                           @ ../Firmware/GD32E23x_standard_peripheral/Source/gd32e23x_spi.c:0:8
	add	r0, sp, #8
.Ltmp86:
	.loc	4 541 42 is_stmt 1              @ ../Firmware/GD32E23x_standard_peripheral/Source/gd32e23x_spi.c:541:42
	ldrh	r0, [r0]
	.loc	4 541 9 is_stmt 0               @ ../Firmware/GD32E23x_standard_peripheral/Source/gd32e23x_spi.c:541:9
	ldr	r1, [sp, #12]
	.loc	4 541 30                        @ ../Firmware/GD32E23x_standard_peripheral/Source/gd32e23x_spi.c:541:30
	str	r0, [r1, #12]
	.loc	4 542 5 is_stmt 1               @ ../Firmware/GD32E23x_standard_peripheral/Source/gd32e23x_spi.c:542:5
	b	.LBB20_6
.Ltmp87:
.LBB20_2:
	.loc	4 544 17                        @ ../Firmware/GD32E23x_standard_peripheral/Source/gd32e23x_spi.c:544:17
	ldr	r0, [sp, #12]
	ldr	r0, [r0, #4]
	movw	r1, #4096
	.loc	4 544 38 is_stmt 0              @ ../Firmware/GD32E23x_standard_peripheral/Source/gd32e23x_spi.c:544:38
	ands	r0, r1
	.loc	4 544 15                        @ ../Firmware/GD32E23x_standard_peripheral/Source/gd32e23x_spi.c:544:15
	str	r0, [sp]
.Ltmp88:
	.loc	4 545 21 is_stmt 1              @ ../Firmware/GD32E23x_standard_peripheral/Source/gd32e23x_spi.c:545:21
	ldr	r0, [sp]
.Ltmp89:
	.loc	4 545 12 is_stmt 0              @ ../Firmware/GD32E23x_standard_peripheral/Source/gd32e23x_spi.c:545:12
	cbz	r0, .LBB20_4
	b	.LBB20_3
.LBB20_3:
.Ltmp90:
	.loc	4 546 19 is_stmt 1              @ ../Firmware/GD32E23x_standard_peripheral/Source/gd32e23x_spi.c:546:19
	ldr	r0, [sp, #12]
	.loc	4 546 30 is_stmt 0              @ ../Firmware/GD32E23x_standard_peripheral/Source/gd32e23x_spi.c:546:30
	adds	r0, #12
	.loc	4 546 17                        @ ../Firmware/GD32E23x_standard_peripheral/Source/gd32e23x_spi.c:546:17
	str	r0, [sp, #4]
	.loc	4 547 42 is_stmt 1              @ ../Firmware/GD32E23x_standard_peripheral/Source/gd32e23x_spi.c:547:42
	ldr	r0, [sp, #8]
	.loc	4 547 26 is_stmt 0              @ ../Firmware/GD32E23x_standard_peripheral/Source/gd32e23x_spi.c:547:26
	ldr	r1, [sp, #4]
	.loc	4 547 31                        @ ../Firmware/GD32E23x_standard_peripheral/Source/gd32e23x_spi.c:547:31
	strb	r0, [r1]
	.loc	4 548 9 is_stmt 1               @ ../Firmware/GD32E23x_standard_peripheral/Source/gd32e23x_spi.c:548:9
	b	.LBB20_5
.Ltmp91:
.LBB20_4:
	.loc	4 0 9 is_stmt 0                 @ ../Firmware/GD32E23x_standard_peripheral/Source/gd32e23x_spi.c:0:9
	add	r0, sp, #8
.Ltmp92:
	.loc	4 549 46 is_stmt 1              @ ../Firmware/GD32E23x_standard_peripheral/Source/gd32e23x_spi.c:549:46
	ldrh	r0, [r0]
	.loc	4 549 13 is_stmt 0              @ ../Firmware/GD32E23x_standard_peripheral/Source/gd32e23x_spi.c:549:13
	ldr	r1, [sp, #12]
	.loc	4 549 34                        @ ../Firmware/GD32E23x_standard_peripheral/Source/gd32e23x_spi.c:549:34
	str	r0, [r1, #12]
	b	.LBB20_5
.Ltmp93:
.LBB20_5:
	.loc	4 0 34                          @ ../Firmware/GD32E23x_standard_peripheral/Source/gd32e23x_spi.c:0:34
	b	.LBB20_6
.LBB20_6:
	.loc	4 552 1 is_stmt 1               @ ../Firmware/GD32E23x_standard_peripheral/Source/gd32e23x_spi.c:552:1
	add	sp, #16
	bx	lr
.Ltmp94:
	.p2align	2
@ %bb.7:
	.loc	4 0 1 is_stmt 0                 @ ../Firmware/GD32E23x_standard_peripheral/Source/gd32e23x_spi.c:0:1
__arm_cp.20_0:
	.long	1073819648                      @ 0x40013000
.Lcpi_end7:
	.size	__arm_cp.20_0, .Lcpi_end7-__arm_cp.20_0
.Lfunc_end20:
	.size	spi_i2s_data_transmit, .Lfunc_end20-spi_i2s_data_transmit
	.cfi_endproc
	.cantunwind
	.fnend
                                        @ -- End function
	.section	.text.spi_i2s_data_receive,"ax",%progbits
	.hidden	spi_i2s_data_receive            @ -- Begin function spi_i2s_data_receive
	.globl	spi_i2s_data_receive
	.p2align	2
	.type	spi_i2s_data_receive,%function
	.code	16                              @ @spi_i2s_data_receive
	.thumb_func
spi_i2s_data_receive:
.Lfunc_begin21:
	.loc	4 561 0 is_stmt 1               @ ../Firmware/GD32E23x_standard_peripheral/Source/gd32e23x_spi.c:561:0
	.fnstart
	.cfi_startproc
@ %bb.0:
	.pad	#16
	sub	sp, #16
	.cfi_def_cfa_offset 16
	str	r0, [sp, #8]
.Ltmp95:
	.loc	4 563 16 prologue_end           @ ../Firmware/GD32E23x_standard_peripheral/Source/gd32e23x_spi.c:563:16
	ldr	r0, [sp, #8]
	ldr	r1, __arm_cp.21_0
.Ltmp96:
	.loc	4 563 8 is_stmt 0               @ ../Firmware/GD32E23x_standard_peripheral/Source/gd32e23x_spi.c:563:8
	cmp	r0, r1
	bne	.LBB21_2
	b	.LBB21_1
.LBB21_1:
.Ltmp97:
	.loc	4 564 27 is_stmt 1              @ ../Firmware/GD32E23x_standard_peripheral/Source/gd32e23x_spi.c:564:27
	ldr	r0, [sp, #8]
	ldr	r0, [r0, #12]
	add	r1, sp, #12
	.loc	4 564 9 is_stmt 0               @ ../Firmware/GD32E23x_standard_peripheral/Source/gd32e23x_spi.c:564:9
	strh	r0, [r1]
	b	.LBB21_5
.Ltmp98:
.LBB21_2:
	.loc	4 567 17 is_stmt 1              @ ../Firmware/GD32E23x_standard_peripheral/Source/gd32e23x_spi.c:567:17
	ldr	r0, [sp, #8]
	ldr	r0, [r0, #4]
	movw	r1, #4096
	.loc	4 567 38 is_stmt 0              @ ../Firmware/GD32E23x_standard_peripheral/Source/gd32e23x_spi.c:567:38
	ands	r0, r1
	.loc	4 567 15                        @ ../Firmware/GD32E23x_standard_peripheral/Source/gd32e23x_spi.c:567:15
	str	r0, [sp]
.Ltmp99:
	.loc	4 568 21 is_stmt 1              @ ../Firmware/GD32E23x_standard_peripheral/Source/gd32e23x_spi.c:568:21
	ldr	r0, [sp]
.Ltmp100:
	.loc	4 568 12 is_stmt 0              @ ../Firmware/GD32E23x_standard_peripheral/Source/gd32e23x_spi.c:568:12
	cbz	r0, .LBB21_4
	b	.LBB21_3
.LBB21_3:
.Ltmp101:
	.loc	4 569 19 is_stmt 1              @ ../Firmware/GD32E23x_standard_peripheral/Source/gd32e23x_spi.c:569:19
	ldr	r0, [sp, #8]
	.loc	4 569 30 is_stmt 0              @ ../Firmware/GD32E23x_standard_peripheral/Source/gd32e23x_spi.c:569:30
	adds	r0, #12
	.loc	4 569 17                        @ ../Firmware/GD32E23x_standard_peripheral/Source/gd32e23x_spi.c:569:17
	str	r0, [sp, #4]
	.loc	4 570 44 is_stmt 1              @ ../Firmware/GD32E23x_standard_peripheral/Source/gd32e23x_spi.c:570:44
	ldr	r0, [sp, #4]
	.loc	4 570 31 is_stmt 0              @ ../Firmware/GD32E23x_standard_peripheral/Source/gd32e23x_spi.c:570:31
	ldrb	r0, [r0]
	add	r1, sp, #12
	.loc	4 570 13                        @ ../Firmware/GD32E23x_standard_peripheral/Source/gd32e23x_spi.c:570:13
	strh	r0, [r1]
	b	.LBB21_5
.Ltmp102:
.LBB21_4:
	.loc	4 572 31 is_stmt 1              @ ../Firmware/GD32E23x_standard_peripheral/Source/gd32e23x_spi.c:572:31
	ldr	r0, [sp, #8]
	ldr	r0, [r0, #12]
	add	r1, sp, #12
	.loc	4 572 13 is_stmt 0              @ ../Firmware/GD32E23x_standard_peripheral/Source/gd32e23x_spi.c:572:13
	strh	r0, [r1]
	b	.LBB21_5
.Ltmp103:
.LBB21_5:
	.loc	4 0 13                          @ ../Firmware/GD32E23x_standard_peripheral/Source/gd32e23x_spi.c:0:13
	add	r0, sp, #12
	.loc	4 575 1 is_stmt 1               @ ../Firmware/GD32E23x_standard_peripheral/Source/gd32e23x_spi.c:575:1
	ldrh	r0, [r0]
	add	sp, #16
	bx	lr
.Ltmp104:
	.p2align	2
@ %bb.6:
	.loc	4 0 1 is_stmt 0                 @ ../Firmware/GD32E23x_standard_peripheral/Source/gd32e23x_spi.c:0:1
__arm_cp.21_0:
	.long	1073819648                      @ 0x40013000
.Lcpi_end8:
	.size	__arm_cp.21_0, .Lcpi_end8-__arm_cp.21_0
.Lfunc_end21:
	.size	spi_i2s_data_receive, .Lfunc_end21-spi_i2s_data_receive
	.cfi_endproc
	.cantunwind
	.fnend
                                        @ -- End function
	.section	.text.spi_i2s_format_error_clear,"ax",%progbits
	.hidden	spi_i2s_format_error_clear      @ -- Begin function spi_i2s_format_error_clear
	.globl	spi_i2s_format_error_clear
	.p2align	1
	.type	spi_i2s_format_error_clear,%function
	.code	16                              @ @spi_i2s_format_error_clear
	.thumb_func
spi_i2s_format_error_clear:
.Lfunc_begin22:
	.loc	4 587 0 is_stmt 1               @ ../Firmware/GD32E23x_standard_peripheral/Source/gd32e23x_spi.c:587:0
	.fnstart
	.cfi_startproc
@ %bb.0:
	.pad	#8
	sub	sp, #8
	.cfi_def_cfa_offset 8
	str	r0, [sp, #4]
	str	r1, [sp]
.Ltmp105:
	.loc	4 588 40 prologue_end           @ ../Firmware/GD32E23x_standard_peripheral/Source/gd32e23x_spi.c:588:40
	ldr	r0, [sp]
	.loc	4 588 39 is_stmt 0              @ ../Firmware/GD32E23x_standard_peripheral/Source/gd32e23x_spi.c:588:39
	mvns	r0, r0
	.loc	4 588 5                         @ ../Firmware/GD32E23x_standard_peripheral/Source/gd32e23x_spi.c:588:5
	ldr	r1, [sp, #4]
	.loc	4 588 26                        @ ../Firmware/GD32E23x_standard_peripheral/Source/gd32e23x_spi.c:588:26
	str	r0, [r1, #8]
	.loc	4 589 1 is_stmt 1               @ ../Firmware/GD32E23x_standard_peripheral/Source/gd32e23x_spi.c:589:1
	add	sp, #8
	bx	lr
.Ltmp106:
.Lfunc_end22:
	.size	spi_i2s_format_error_clear, .Lfunc_end22-spi_i2s_format_error_clear
	.cfi_endproc
	.cantunwind
	.fnend
                                        @ -- End function
	.section	.text.spi_crc_polynomial_set,"ax",%progbits
	.hidden	spi_crc_polynomial_set          @ -- Begin function spi_crc_polynomial_set
	.globl	spi_crc_polynomial_set
	.p2align	1
	.type	spi_crc_polynomial_set,%function
	.code	16                              @ @spi_crc_polynomial_set
	.thumb_func
spi_crc_polynomial_set:
.Lfunc_begin23:
	.loc	4 599 0                         @ ../Firmware/GD32E23x_standard_peripheral/Source/gd32e23x_spi.c:599:0
	.fnstart
	.cfi_startproc
@ %bb.0:
	.pad	#8
	sub	sp, #8
	.cfi_def_cfa_offset 8
                                        @ kill: def $r2 killed $r1
	str	r0, [sp, #4]
	mov	r0, sp
	strh	r1, [r0]
.Ltmp107:
	.loc	4 601 5 prologue_end            @ ../Firmware/GD32E23x_standard_peripheral/Source/gd32e23x_spi.c:601:5
	ldr	r2, [sp, #4]
	.loc	4 601 26 is_stmt 0              @ ../Firmware/GD32E23x_standard_peripheral/Source/gd32e23x_spi.c:601:26
	ldr	r1, [r2]
	movw	r3, #8192
	orrs	r1, r3
	str	r1, [r2]
	.loc	4 603 41 is_stmt 1              @ ../Firmware/GD32E23x_standard_peripheral/Source/gd32e23x_spi.c:603:41
	ldrh	r0, [r0]
	.loc	4 603 5 is_stmt 0               @ ../Firmware/GD32E23x_standard_peripheral/Source/gd32e23x_spi.c:603:5
	ldr	r1, [sp, #4]
	.loc	4 603 29                        @ ../Firmware/GD32E23x_standard_peripheral/Source/gd32e23x_spi.c:603:29
	str	r0, [r1, #16]
	.loc	4 604 1 is_stmt 1               @ ../Firmware/GD32E23x_standard_peripheral/Source/gd32e23x_spi.c:604:1
	add	sp, #8
	bx	lr
.Ltmp108:
.Lfunc_end23:
	.size	spi_crc_polynomial_set, .Lfunc_end23-spi_crc_polynomial_set
	.cfi_endproc
	.cantunwind
	.fnend
                                        @ -- End function
	.section	.text.spi_crc_polynomial_get,"ax",%progbits
	.hidden	spi_crc_polynomial_get          @ -- Begin function spi_crc_polynomial_get
	.globl	spi_crc_polynomial_get
	.p2align	1
	.type	spi_crc_polynomial_get,%function
	.code	16                              @ @spi_crc_polynomial_get
	.thumb_func
spi_crc_polynomial_get:
.Lfunc_begin24:
	.loc	4 613 0                         @ ../Firmware/GD32E23x_standard_peripheral/Source/gd32e23x_spi.c:613:0
	.fnstart
	.cfi_startproc
@ %bb.0:
	.pad	#4
	sub	sp, #4
	.cfi_def_cfa_offset 4
	str	r0, [sp]
.Ltmp109:
	.loc	4 614 23 prologue_end           @ ../Firmware/GD32E23x_standard_peripheral/Source/gd32e23x_spi.c:614:23
	ldr	r0, [sp]
	ldr	r0, [r0, #16]
	.loc	4 614 5 is_stmt 0               @ ../Firmware/GD32E23x_standard_peripheral/Source/gd32e23x_spi.c:614:5
	uxth	r0, r0
	add	sp, #4
	bx	lr
.Ltmp110:
.Lfunc_end24:
	.size	spi_crc_polynomial_get, .Lfunc_end24-spi_crc_polynomial_get
	.cfi_endproc
	.cantunwind
	.fnend
                                        @ -- End function
	.section	.text.spi_crc_length_set,"ax",%progbits
	.hidden	spi_crc_length_set              @ -- Begin function spi_crc_length_set
	.globl	spi_crc_length_set
	.p2align	1
	.type	spi_crc_length_set,%function
	.code	16                              @ @spi_crc_length_set
	.thumb_func
spi_crc_length_set:
.Lfunc_begin25:
	.loc	4 628 0 is_stmt 1               @ ../Firmware/GD32E23x_standard_peripheral/Source/gd32e23x_spi.c:628:0
	.fnstart
	.cfi_startproc
@ %bb.0:
	.pad	#8
	sub	sp, #8
	.cfi_def_cfa_offset 8
                                        @ kill: def $r2 killed $r1
	str	r0, [sp, #4]
	mov	r0, sp
	strh	r1, [r0]
.Ltmp111:
	.loc	4 630 5 prologue_end            @ ../Firmware/GD32E23x_standard_peripheral/Source/gd32e23x_spi.c:630:5
	ldr	r2, [sp, #4]
	.loc	4 630 26 is_stmt 0              @ ../Firmware/GD32E23x_standard_peripheral/Source/gd32e23x_spi.c:630:26
	ldr	r1, [r2]
	movw	r3, #2048
	bics	r1, r3
	str	r1, [r2]
	.loc	4 632 39 is_stmt 1              @ ../Firmware/GD32E23x_standard_peripheral/Source/gd32e23x_spi.c:632:39
	ldrh	r2, [r0]
	.loc	4 632 5 is_stmt 0               @ ../Firmware/GD32E23x_standard_peripheral/Source/gd32e23x_spi.c:632:5
	ldr	r1, [sp, #4]
	.loc	4 632 26                        @ ../Firmware/GD32E23x_standard_peripheral/Source/gd32e23x_spi.c:632:26
	ldr	r0, [r1]
	orrs	r0, r2
	str	r0, [r1]
	.loc	4 633 1 is_stmt 1               @ ../Firmware/GD32E23x_standard_peripheral/Source/gd32e23x_spi.c:633:1
	add	sp, #8
	bx	lr
.Ltmp112:
.Lfunc_end25:
	.size	spi_crc_length_set, .Lfunc_end25-spi_crc_length_set
	.cfi_endproc
	.cantunwind
	.fnend
                                        @ -- End function
	.section	.text.spi_crc_on,"ax",%progbits
	.hidden	spi_crc_on                      @ -- Begin function spi_crc_on
	.globl	spi_crc_on
	.p2align	1
	.type	spi_crc_on,%function
	.code	16                              @ @spi_crc_on
	.thumb_func
spi_crc_on:
.Lfunc_begin26:
	.loc	4 642 0                         @ ../Firmware/GD32E23x_standard_peripheral/Source/gd32e23x_spi.c:642:0
	.fnstart
	.cfi_startproc
@ %bb.0:
	.pad	#4
	sub	sp, #4
	.cfi_def_cfa_offset 4
	str	r0, [sp]
.Ltmp113:
	.loc	4 643 5 prologue_end            @ ../Firmware/GD32E23x_standard_peripheral/Source/gd32e23x_spi.c:643:5
	ldr	r1, [sp]
	.loc	4 643 26 is_stmt 0              @ ../Firmware/GD32E23x_standard_peripheral/Source/gd32e23x_spi.c:643:26
	ldr	r0, [r1]
	movw	r2, #8192
	orrs	r0, r2
	str	r0, [r1]
	.loc	4 644 1 is_stmt 1               @ ../Firmware/GD32E23x_standard_peripheral/Source/gd32e23x_spi.c:644:1
	add	sp, #4
	bx	lr
.Ltmp114:
.Lfunc_end26:
	.size	spi_crc_on, .Lfunc_end26-spi_crc_on
	.cfi_endproc
	.cantunwind
	.fnend
                                        @ -- End function
	.section	.text.spi_crc_off,"ax",%progbits
	.hidden	spi_crc_off                     @ -- Begin function spi_crc_off
	.globl	spi_crc_off
	.p2align	1
	.type	spi_crc_off,%function
	.code	16                              @ @spi_crc_off
	.thumb_func
spi_crc_off:
.Lfunc_begin27:
	.loc	4 653 0                         @ ../Firmware/GD32E23x_standard_peripheral/Source/gd32e23x_spi.c:653:0
	.fnstart
	.cfi_startproc
@ %bb.0:
	.pad	#4
	sub	sp, #4
	.cfi_def_cfa_offset 4
	str	r0, [sp]
.Ltmp115:
	.loc	4 654 5 prologue_end            @ ../Firmware/GD32E23x_standard_peripheral/Source/gd32e23x_spi.c:654:5
	ldr	r1, [sp]
	.loc	4 654 26 is_stmt 0              @ ../Firmware/GD32E23x_standard_peripheral/Source/gd32e23x_spi.c:654:26
	ldr	r0, [r1]
	movw	r2, #8192
	bics	r0, r2
	str	r0, [r1]
	.loc	4 655 1 is_stmt 1               @ ../Firmware/GD32E23x_standard_peripheral/Source/gd32e23x_spi.c:655:1
	add	sp, #4
	bx	lr
.Ltmp116:
.Lfunc_end27:
	.size	spi_crc_off, .Lfunc_end27-spi_crc_off
	.cfi_endproc
	.cantunwind
	.fnend
                                        @ -- End function
	.section	.text.spi_crc_next,"ax",%progbits
	.hidden	spi_crc_next                    @ -- Begin function spi_crc_next
	.globl	spi_crc_next
	.p2align	1
	.type	spi_crc_next,%function
	.code	16                              @ @spi_crc_next
	.thumb_func
spi_crc_next:
.Lfunc_begin28:
	.loc	4 664 0                         @ ../Firmware/GD32E23x_standard_peripheral/Source/gd32e23x_spi.c:664:0
	.fnstart
	.cfi_startproc
@ %bb.0:
	.pad	#4
	sub	sp, #4
	.cfi_def_cfa_offset 4
	str	r0, [sp]
.Ltmp117:
	.loc	4 665 5 prologue_end            @ ../Firmware/GD32E23x_standard_peripheral/Source/gd32e23x_spi.c:665:5
	ldr	r1, [sp]
	.loc	4 665 26 is_stmt 0              @ ../Firmware/GD32E23x_standard_peripheral/Source/gd32e23x_spi.c:665:26
	ldr	r0, [r1]
	movw	r2, #4096
	orrs	r0, r2
	str	r0, [r1]
	.loc	4 666 1 is_stmt 1               @ ../Firmware/GD32E23x_standard_peripheral/Source/gd32e23x_spi.c:666:1
	add	sp, #4
	bx	lr
.Ltmp118:
.Lfunc_end28:
	.size	spi_crc_next, .Lfunc_end28-spi_crc_next
	.cfi_endproc
	.cantunwind
	.fnend
                                        @ -- End function
	.section	.text.spi_crc_get,"ax",%progbits
	.hidden	spi_crc_get                     @ -- Begin function spi_crc_get
	.globl	spi_crc_get
	.p2align	1
	.type	spi_crc_get,%function
	.code	16                              @ @spi_crc_get
	.thumb_func
spi_crc_get:
.Lfunc_begin29:
	.loc	4 679 0                         @ ../Firmware/GD32E23x_standard_peripheral/Source/gd32e23x_spi.c:679:0
	.fnstart
	.cfi_startproc
@ %bb.0:
	.pad	#12
	sub	sp, #12
	.cfi_def_cfa_offset 12
                                        @ kill: def $r2 killed $r1
	str	r0, [sp, #4]
	mov	r0, sp
	strb	r1, [r0]
.Ltmp119:
	.loc	4 680 22 prologue_end           @ ../Firmware/GD32E23x_standard_peripheral/Source/gd32e23x_spi.c:680:22
	ldrb	r0, [r0]
.Ltmp120:
	.loc	4 680 8 is_stmt 0               @ ../Firmware/GD32E23x_standard_peripheral/Source/gd32e23x_spi.c:680:8
	cbnz	r0, .LBB29_2
	b	.LBB29_1
.LBB29_1:
.Ltmp121:
	.loc	4 681 28 is_stmt 1              @ ../Firmware/GD32E23x_standard_peripheral/Source/gd32e23x_spi.c:681:28
	ldr	r0, [sp, #4]
	ldr	r0, [r0, #24]
	add	r1, sp, #8
	.loc	4 681 9 is_stmt 0               @ ../Firmware/GD32E23x_standard_peripheral/Source/gd32e23x_spi.c:681:9
	strh	r0, [r1]
	b	.LBB29_3
.Ltmp122:
.LBB29_2:
	.loc	4 683 28 is_stmt 1              @ ../Firmware/GD32E23x_standard_peripheral/Source/gd32e23x_spi.c:683:28
	ldr	r0, [sp, #4]
	ldr	r0, [r0, #20]
	add	r1, sp, #8
	.loc	4 683 9 is_stmt 0               @ ../Firmware/GD32E23x_standard_peripheral/Source/gd32e23x_spi.c:683:9
	strh	r0, [r1]
	b	.LBB29_3
.Ltmp123:
.LBB29_3:
	.loc	4 0 9                           @ ../Firmware/GD32E23x_standard_peripheral/Source/gd32e23x_spi.c:0:9
	add	r0, sp, #8
	.loc	4 685 1 is_stmt 1               @ ../Firmware/GD32E23x_standard_peripheral/Source/gd32e23x_spi.c:685:1
	ldrh	r0, [r0]
	add	sp, #12
	bx	lr
.Ltmp124:
.Lfunc_end29:
	.size	spi_crc_get, .Lfunc_end29-spi_crc_get
	.cfi_endproc
	.cantunwind
	.fnend
                                        @ -- End function
	.section	.text.spi_crc_error_clear,"ax",%progbits
	.hidden	spi_crc_error_clear             @ -- Begin function spi_crc_error_clear
	.globl	spi_crc_error_clear
	.p2align	1
	.type	spi_crc_error_clear,%function
	.code	16                              @ @spi_crc_error_clear
	.thumb_func
spi_crc_error_clear:
.Lfunc_begin30:
	.loc	4 694 0                         @ ../Firmware/GD32E23x_standard_peripheral/Source/gd32e23x_spi.c:694:0
	.fnstart
	.cfi_startproc
@ %bb.0:
	.pad	#4
	sub	sp, #4
	.cfi_def_cfa_offset 4
	str	r0, [sp]
.Ltmp125:
	.loc	4 695 5 prologue_end            @ ../Firmware/GD32E23x_standard_peripheral/Source/gd32e23x_spi.c:695:5
	ldr	r1, [sp]
	movs	r0, #16
	mvns	r0, r0
	.loc	4 695 26 is_stmt 0              @ ../Firmware/GD32E23x_standard_peripheral/Source/gd32e23x_spi.c:695:26
	str	r0, [r1, #8]
	.loc	4 696 1 is_stmt 1               @ ../Firmware/GD32E23x_standard_peripheral/Source/gd32e23x_spi.c:696:1
	add	sp, #4
	bx	lr
.Ltmp126:
.Lfunc_end30:
	.size	spi_crc_error_clear, .Lfunc_end30-spi_crc_error_clear
	.cfi_endproc
	.cantunwind
	.fnend
                                        @ -- End function
	.section	.text.spi_ti_mode_enable,"ax",%progbits
	.hidden	spi_ti_mode_enable              @ -- Begin function spi_ti_mode_enable
	.globl	spi_ti_mode_enable
	.p2align	1
	.type	spi_ti_mode_enable,%function
	.code	16                              @ @spi_ti_mode_enable
	.thumb_func
spi_ti_mode_enable:
.Lfunc_begin31:
	.loc	4 705 0                         @ ../Firmware/GD32E23x_standard_peripheral/Source/gd32e23x_spi.c:705:0
	.fnstart
	.cfi_startproc
@ %bb.0:
	.pad	#4
	sub	sp, #4
	.cfi_def_cfa_offset 4
	str	r0, [sp]
.Ltmp127:
	.loc	4 706 5 prologue_end            @ ../Firmware/GD32E23x_standard_peripheral/Source/gd32e23x_spi.c:706:5
	ldr	r1, [sp]
	.loc	4 706 26 is_stmt 0              @ ../Firmware/GD32E23x_standard_peripheral/Source/gd32e23x_spi.c:706:26
	ldr	r0, [r1, #4]
	movs	r2, #16
	orrs	r0, r2
	str	r0, [r1, #4]
	.loc	4 707 1 is_stmt 1               @ ../Firmware/GD32E23x_standard_peripheral/Source/gd32e23x_spi.c:707:1
	add	sp, #4
	bx	lr
.Ltmp128:
.Lfunc_end31:
	.size	spi_ti_mode_enable, .Lfunc_end31-spi_ti_mode_enable
	.cfi_endproc
	.cantunwind
	.fnend
                                        @ -- End function
	.section	.text.spi_ti_mode_disable,"ax",%progbits
	.hidden	spi_ti_mode_disable             @ -- Begin function spi_ti_mode_disable
	.globl	spi_ti_mode_disable
	.p2align	1
	.type	spi_ti_mode_disable,%function
	.code	16                              @ @spi_ti_mode_disable
	.thumb_func
spi_ti_mode_disable:
.Lfunc_begin32:
	.loc	4 716 0                         @ ../Firmware/GD32E23x_standard_peripheral/Source/gd32e23x_spi.c:716:0
	.fnstart
	.cfi_startproc
@ %bb.0:
	.pad	#4
	sub	sp, #4
	.cfi_def_cfa_offset 4
	str	r0, [sp]
.Ltmp129:
	.loc	4 717 5 prologue_end            @ ../Firmware/GD32E23x_standard_peripheral/Source/gd32e23x_spi.c:717:5
	ldr	r1, [sp]
	.loc	4 717 26 is_stmt 0              @ ../Firmware/GD32E23x_standard_peripheral/Source/gd32e23x_spi.c:717:26
	ldr	r0, [r1, #4]
	movs	r2, #16
	bics	r0, r2
	str	r0, [r1, #4]
	.loc	4 718 1 is_stmt 1               @ ../Firmware/GD32E23x_standard_peripheral/Source/gd32e23x_spi.c:718:1
	add	sp, #4
	bx	lr
.Ltmp130:
.Lfunc_end32:
	.size	spi_ti_mode_disable, .Lfunc_end32-spi_ti_mode_disable
	.cfi_endproc
	.cantunwind
	.fnend
                                        @ -- End function
	.section	.text.spi_nssp_mode_enable,"ax",%progbits
	.hidden	spi_nssp_mode_enable            @ -- Begin function spi_nssp_mode_enable
	.globl	spi_nssp_mode_enable
	.p2align	1
	.type	spi_nssp_mode_enable,%function
	.code	16                              @ @spi_nssp_mode_enable
	.thumb_func
spi_nssp_mode_enable:
.Lfunc_begin33:
	.loc	4 727 0                         @ ../Firmware/GD32E23x_standard_peripheral/Source/gd32e23x_spi.c:727:0
	.fnstart
	.cfi_startproc
@ %bb.0:
	.pad	#4
	sub	sp, #4
	.cfi_def_cfa_offset 4
	str	r0, [sp]
.Ltmp131:
	.loc	4 728 5 prologue_end            @ ../Firmware/GD32E23x_standard_peripheral/Source/gd32e23x_spi.c:728:5
	ldr	r1, [sp]
	.loc	4 728 26 is_stmt 0              @ ../Firmware/GD32E23x_standard_peripheral/Source/gd32e23x_spi.c:728:26
	ldr	r0, [r1, #4]
	movs	r2, #8
	orrs	r0, r2
	str	r0, [r1, #4]
	.loc	4 729 1 is_stmt 1               @ ../Firmware/GD32E23x_standard_peripheral/Source/gd32e23x_spi.c:729:1
	add	sp, #4
	bx	lr
.Ltmp132:
.Lfunc_end33:
	.size	spi_nssp_mode_enable, .Lfunc_end33-spi_nssp_mode_enable
	.cfi_endproc
	.cantunwind
	.fnend
                                        @ -- End function
	.section	.text.spi_nssp_mode_disable,"ax",%progbits
	.hidden	spi_nssp_mode_disable           @ -- Begin function spi_nssp_mode_disable
	.globl	spi_nssp_mode_disable
	.p2align	1
	.type	spi_nssp_mode_disable,%function
	.code	16                              @ @spi_nssp_mode_disable
	.thumb_func
spi_nssp_mode_disable:
.Lfunc_begin34:
	.loc	4 738 0                         @ ../Firmware/GD32E23x_standard_peripheral/Source/gd32e23x_spi.c:738:0
	.fnstart
	.cfi_startproc
@ %bb.0:
	.pad	#4
	sub	sp, #4
	.cfi_def_cfa_offset 4
	str	r0, [sp]
.Ltmp133:
	.loc	4 739 5 prologue_end            @ ../Firmware/GD32E23x_standard_peripheral/Source/gd32e23x_spi.c:739:5
	ldr	r1, [sp]
	.loc	4 739 26 is_stmt 0              @ ../Firmware/GD32E23x_standard_peripheral/Source/gd32e23x_spi.c:739:26
	ldr	r0, [r1, #4]
	movs	r2, #8
	bics	r0, r2
	str	r0, [r1, #4]
	.loc	4 740 1 is_stmt 1               @ ../Firmware/GD32E23x_standard_peripheral/Source/gd32e23x_spi.c:740:1
	add	sp, #4
	bx	lr
.Ltmp134:
.Lfunc_end34:
	.size	spi_nssp_mode_disable, .Lfunc_end34-spi_nssp_mode_disable
	.cfi_endproc
	.cantunwind
	.fnend
                                        @ -- End function
	.section	.text.spi_quad_enable,"ax",%progbits
	.hidden	spi_quad_enable                 @ -- Begin function spi_quad_enable
	.globl	spi_quad_enable
	.p2align	1
	.type	spi_quad_enable,%function
	.code	16                              @ @spi_quad_enable
	.thumb_func
spi_quad_enable:
.Lfunc_begin35:
	.loc	4 749 0                         @ ../Firmware/GD32E23x_standard_peripheral/Source/gd32e23x_spi.c:749:0
	.fnstart
	.cfi_startproc
@ %bb.0:
	.pad	#4
	sub	sp, #4
	.cfi_def_cfa_offset 4
	str	r0, [sp]
.Ltmp135:
	.loc	4 750 5 prologue_end            @ ../Firmware/GD32E23x_standard_peripheral/Source/gd32e23x_spi.c:750:5
	ldr	r1, [sp]
	movs	r2, #128
	.loc	4 750 26 is_stmt 0              @ ../Firmware/GD32E23x_standard_peripheral/Source/gd32e23x_spi.c:750:26
	ldr	r0, [r1, r2]
	movs	r3, #1
	orrs	r0, r3
	str	r0, [r1, r2]
	.loc	4 751 1 is_stmt 1               @ ../Firmware/GD32E23x_standard_peripheral/Source/gd32e23x_spi.c:751:1
	add	sp, #4
	bx	lr
.Ltmp136:
.Lfunc_end35:
	.size	spi_quad_enable, .Lfunc_end35-spi_quad_enable
	.cfi_endproc
	.cantunwind
	.fnend
                                        @ -- End function
	.section	.text.spi_quad_disable,"ax",%progbits
	.hidden	spi_quad_disable                @ -- Begin function spi_quad_disable
	.globl	spi_quad_disable
	.p2align	1
	.type	spi_quad_disable,%function
	.code	16                              @ @spi_quad_disable
	.thumb_func
spi_quad_disable:
.Lfunc_begin36:
	.loc	4 760 0                         @ ../Firmware/GD32E23x_standard_peripheral/Source/gd32e23x_spi.c:760:0
	.fnstart
	.cfi_startproc
@ %bb.0:
	.pad	#4
	sub	sp, #4
	.cfi_def_cfa_offset 4
	str	r0, [sp]
.Ltmp137:
	.loc	4 761 5 prologue_end            @ ../Firmware/GD32E23x_standard_peripheral/Source/gd32e23x_spi.c:761:5
	ldr	r1, [sp]
	movs	r2, #128
	.loc	4 761 26 is_stmt 0              @ ../Firmware/GD32E23x_standard_peripheral/Source/gd32e23x_spi.c:761:26
	ldr	r0, [r1, r2]
	movs	r3, #1
	bics	r0, r3
	str	r0, [r1, r2]
	.loc	4 762 1 is_stmt 1               @ ../Firmware/GD32E23x_standard_peripheral/Source/gd32e23x_spi.c:762:1
	add	sp, #4
	bx	lr
.Ltmp138:
.Lfunc_end36:
	.size	spi_quad_disable, .Lfunc_end36-spi_quad_disable
	.cfi_endproc
	.cantunwind
	.fnend
                                        @ -- End function
	.section	.text.spi_quad_write_enable,"ax",%progbits
	.hidden	spi_quad_write_enable           @ -- Begin function spi_quad_write_enable
	.globl	spi_quad_write_enable
	.p2align	1
	.type	spi_quad_write_enable,%function
	.code	16                              @ @spi_quad_write_enable
	.thumb_func
spi_quad_write_enable:
.Lfunc_begin37:
	.loc	4 771 0                         @ ../Firmware/GD32E23x_standard_peripheral/Source/gd32e23x_spi.c:771:0
	.fnstart
	.cfi_startproc
@ %bb.0:
	.pad	#4
	sub	sp, #4
	.cfi_def_cfa_offset 4
	str	r0, [sp]
.Ltmp139:
	.loc	4 772 5 prologue_end            @ ../Firmware/GD32E23x_standard_peripheral/Source/gd32e23x_spi.c:772:5
	ldr	r1, [sp]
	movs	r2, #128
	.loc	4 772 26 is_stmt 0              @ ../Firmware/GD32E23x_standard_peripheral/Source/gd32e23x_spi.c:772:26
	ldr	r0, [r1, r2]
	movs	r3, #2
	bics	r0, r3
	str	r0, [r1, r2]
	.loc	4 773 1 is_stmt 1               @ ../Firmware/GD32E23x_standard_peripheral/Source/gd32e23x_spi.c:773:1
	add	sp, #4
	bx	lr
.Ltmp140:
.Lfunc_end37:
	.size	spi_quad_write_enable, .Lfunc_end37-spi_quad_write_enable
	.cfi_endproc
	.cantunwind
	.fnend
                                        @ -- End function
	.section	.text.spi_quad_read_enable,"ax",%progbits
	.hidden	spi_quad_read_enable            @ -- Begin function spi_quad_read_enable
	.globl	spi_quad_read_enable
	.p2align	1
	.type	spi_quad_read_enable,%function
	.code	16                              @ @spi_quad_read_enable
	.thumb_func
spi_quad_read_enable:
.Lfunc_begin38:
	.loc	4 782 0                         @ ../Firmware/GD32E23x_standard_peripheral/Source/gd32e23x_spi.c:782:0
	.fnstart
	.cfi_startproc
@ %bb.0:
	.pad	#4
	sub	sp, #4
	.cfi_def_cfa_offset 4
	str	r0, [sp]
.Ltmp141:
	.loc	4 783 5 prologue_end            @ ../Firmware/GD32E23x_standard_peripheral/Source/gd32e23x_spi.c:783:5
	ldr	r1, [sp]
	movs	r2, #128
	.loc	4 783 26 is_stmt 0              @ ../Firmware/GD32E23x_standard_peripheral/Source/gd32e23x_spi.c:783:26
	ldr	r0, [r1, r2]
	movs	r3, #2
	orrs	r0, r3
	str	r0, [r1, r2]
	.loc	4 784 1 is_stmt 1               @ ../Firmware/GD32E23x_standard_peripheral/Source/gd32e23x_spi.c:784:1
	add	sp, #4
	bx	lr
.Ltmp142:
.Lfunc_end38:
	.size	spi_quad_read_enable, .Lfunc_end38-spi_quad_read_enable
	.cfi_endproc
	.cantunwind
	.fnend
                                        @ -- End function
	.section	.text.spi_quad_io23_output_enable,"ax",%progbits
	.hidden	spi_quad_io23_output_enable     @ -- Begin function spi_quad_io23_output_enable
	.globl	spi_quad_io23_output_enable
	.p2align	1
	.type	spi_quad_io23_output_enable,%function
	.code	16                              @ @spi_quad_io23_output_enable
	.thumb_func
spi_quad_io23_output_enable:
.Lfunc_begin39:
	.loc	4 793 0                         @ ../Firmware/GD32E23x_standard_peripheral/Source/gd32e23x_spi.c:793:0
	.fnstart
	.cfi_startproc
@ %bb.0:
	.pad	#4
	sub	sp, #4
	.cfi_def_cfa_offset 4
	str	r0, [sp]
.Ltmp143:
	.loc	4 794 5 prologue_end            @ ../Firmware/GD32E23x_standard_peripheral/Source/gd32e23x_spi.c:794:5
	ldr	r1, [sp]
	movs	r2, #128
	.loc	4 794 26 is_stmt 0              @ ../Firmware/GD32E23x_standard_peripheral/Source/gd32e23x_spi.c:794:26
	ldr	r0, [r1, r2]
	movs	r3, #4
	orrs	r0, r3
	str	r0, [r1, r2]
	.loc	4 795 1 is_stmt 1               @ ../Firmware/GD32E23x_standard_peripheral/Source/gd32e23x_spi.c:795:1
	add	sp, #4
	bx	lr
.Ltmp144:
.Lfunc_end39:
	.size	spi_quad_io23_output_enable, .Lfunc_end39-spi_quad_io23_output_enable
	.cfi_endproc
	.cantunwind
	.fnend
                                        @ -- End function
	.section	.text.spi_quad_io23_output_disable,"ax",%progbits
	.hidden	spi_quad_io23_output_disable    @ -- Begin function spi_quad_io23_output_disable
	.globl	spi_quad_io23_output_disable
	.p2align	1
	.type	spi_quad_io23_output_disable,%function
	.code	16                              @ @spi_quad_io23_output_disable
	.thumb_func
spi_quad_io23_output_disable:
.Lfunc_begin40:
	.loc	4 804 0                         @ ../Firmware/GD32E23x_standard_peripheral/Source/gd32e23x_spi.c:804:0
	.fnstart
	.cfi_startproc
@ %bb.0:
	.pad	#4
	sub	sp, #4
	.cfi_def_cfa_offset 4
	str	r0, [sp]
.Ltmp145:
	.loc	4 805 5 prologue_end            @ ../Firmware/GD32E23x_standard_peripheral/Source/gd32e23x_spi.c:805:5
	ldr	r1, [sp]
	movs	r2, #128
	.loc	4 805 26 is_stmt 0              @ ../Firmware/GD32E23x_standard_peripheral/Source/gd32e23x_spi.c:805:26
	ldr	r0, [r1, r2]
	movs	r3, #4
	bics	r0, r3
	str	r0, [r1, r2]
	.loc	4 806 1 is_stmt 1               @ ../Firmware/GD32E23x_standard_peripheral/Source/gd32e23x_spi.c:806:1
	add	sp, #4
	bx	lr
.Ltmp146:
.Lfunc_end40:
	.size	spi_quad_io23_output_disable, .Lfunc_end40-spi_quad_io23_output_disable
	.cfi_endproc
	.cantunwind
	.fnend
                                        @ -- End function
	.section	.text.spi_i2s_flag_get,"ax",%progbits
	.hidden	spi_i2s_flag_get                @ -- Begin function spi_i2s_flag_get
	.globl	spi_i2s_flag_get
	.p2align	2
	.type	spi_i2s_flag_get,%function
	.code	16                              @ @spi_i2s_flag_get
	.thumb_func
spi_i2s_flag_get:
.Lfunc_begin41:
	.loc	4 840 0                         @ ../Firmware/GD32E23x_standard_peripheral/Source/gd32e23x_spi.c:840:0
	.fnstart
	.cfi_startproc
@ %bb.0:
	.pad	#12
	sub	sp, #12
	.cfi_def_cfa_offset 12
	str	r0, [sp, #4]
	str	r1, [sp]
.Ltmp147:
	.loc	4 841 18 prologue_end           @ ../Firmware/GD32E23x_standard_peripheral/Source/gd32e23x_spi.c:841:18
	ldr	r0, [sp, #4]
	ldr	r0, [r0, #8]
	.loc	4 841 41 is_stmt 0              @ ../Firmware/GD32E23x_standard_peripheral/Source/gd32e23x_spi.c:841:41
	ldr	r1, [sp]
.Ltmp148:
	.loc	4 841 8                         @ ../Firmware/GD32E23x_standard_peripheral/Source/gd32e23x_spi.c:841:8
	tst	r0, r1
	beq	.LBB41_2
	b	.LBB41_1
.LBB41_1:
	.loc	4 0 8                           @ ../Firmware/GD32E23x_standard_peripheral/Source/gd32e23x_spi.c:0:8
	add	r1, sp, #8
	movs	r0, #1
.Ltmp149:
	.loc	4 842 9 is_stmt 1               @ ../Firmware/GD32E23x_standard_peripheral/Source/gd32e23x_spi.c:842:9
	strb	r0, [r1]
	b	.LBB41_13
.Ltmp150:
.LBB41_2:
	.loc	4 844 20                        @ ../Firmware/GD32E23x_standard_peripheral/Source/gd32e23x_spi.c:844:20
	ldr	r0, [sp, #4]
	ldr	r1, __arm_cp.41_0
.Ltmp151:
	.loc	4 844 12 is_stmt 0              @ ../Firmware/GD32E23x_standard_peripheral/Source/gd32e23x_spi.c:844:12
	cmp	r0, r1
	bne	.LBB41_12
	b	.LBB41_3
.LBB41_3:
.Ltmp152:
	.loc	4 846 35 is_stmt 1              @ ../Firmware/GD32E23x_standard_peripheral/Source/gd32e23x_spi.c:846:35
	ldr	r0, [sp]
.Ltmp153:
	.loc	4 846 16 is_stmt 0              @ ../Firmware/GD32E23x_standard_peripheral/Source/gd32e23x_spi.c:846:16
	cbnz	r0, .LBB41_7
	b	.LBB41_4
.LBB41_4:
.Ltmp154:
	.loc	4 847 30 is_stmt 1              @ ../Firmware/GD32E23x_standard_peripheral/Source/gd32e23x_spi.c:847:30
	ldr	r0, [sp, #4]
	ldr	r0, [r0, #8]
.Ltmp155:
	.loc	4 847 20 is_stmt 0              @ ../Firmware/GD32E23x_standard_peripheral/Source/gd32e23x_spi.c:847:20
	lsls	r0, r0, #19
	lsrs	r0, r0, #30
	cbz	r0, .LBB41_6
	b	.LBB41_5
.LBB41_5:
	.loc	4 0 20                          @ ../Firmware/GD32E23x_standard_peripheral/Source/gd32e23x_spi.c:0:20
	add	r1, sp, #8
	movs	r0, #0
.Ltmp156:
	.loc	4 848 21 is_stmt 1              @ ../Firmware/GD32E23x_standard_peripheral/Source/gd32e23x_spi.c:848:21
	strb	r0, [r1]
	b	.LBB41_13
.Ltmp157:
.LBB41_6:
	.loc	4 0 21 is_stmt 0                @ ../Firmware/GD32E23x_standard_peripheral/Source/gd32e23x_spi.c:0:21
	add	r1, sp, #8
	movs	r0, #1
.Ltmp158:
	.loc	4 850 21 is_stmt 1              @ ../Firmware/GD32E23x_standard_peripheral/Source/gd32e23x_spi.c:850:21
	strb	r0, [r1]
	b	.LBB41_13
.Ltmp159:
.LBB41_7:
	.loc	4 854 35                        @ ../Firmware/GD32E23x_standard_peripheral/Source/gd32e23x_spi.c:854:35
	ldr	r0, [sp]
.Ltmp160:
	.loc	4 854 16 is_stmt 0              @ ../Firmware/GD32E23x_standard_peripheral/Source/gd32e23x_spi.c:854:16
	cbnz	r0, .LBB41_11
	b	.LBB41_8
.LBB41_8:
.Ltmp161:
	.loc	4 855 30 is_stmt 1              @ ../Firmware/GD32E23x_standard_peripheral/Source/gd32e23x_spi.c:855:30
	ldr	r0, [sp, #4]
	ldr	r0, [r0, #8]
.Ltmp162:
	.loc	4 855 20 is_stmt 0              @ ../Firmware/GD32E23x_standard_peripheral/Source/gd32e23x_spi.c:855:20
	lsls	r0, r0, #21
	lsrs	r0, r0, #30
	cbz	r0, .LBB41_10
	b	.LBB41_9
.LBB41_9:
	.loc	4 0 20                          @ ../Firmware/GD32E23x_standard_peripheral/Source/gd32e23x_spi.c:0:20
	add	r1, sp, #8
	movs	r0, #0
.Ltmp163:
	.loc	4 856 21 is_stmt 1              @ ../Firmware/GD32E23x_standard_peripheral/Source/gd32e23x_spi.c:856:21
	strb	r0, [r1]
	b	.LBB41_13
.Ltmp164:
.LBB41_10:
	.loc	4 0 21 is_stmt 0                @ ../Firmware/GD32E23x_standard_peripheral/Source/gd32e23x_spi.c:0:21
	add	r1, sp, #8
	movs	r0, #1
.Ltmp165:
	.loc	4 858 21 is_stmt 1              @ ../Firmware/GD32E23x_standard_peripheral/Source/gd32e23x_spi.c:858:21
	strb	r0, [r1]
	b	.LBB41_13
.Ltmp166:
.LBB41_11:
	.loc	4 861 9                         @ ../Firmware/GD32E23x_standard_peripheral/Source/gd32e23x_spi.c:861:9
	b	.LBB41_12
.Ltmp167:
.LBB41_12:
	.loc	4 0 9 is_stmt 0                 @ ../Firmware/GD32E23x_standard_peripheral/Source/gd32e23x_spi.c:0:9
	add	r1, sp, #8
	movs	r0, #0
	.loc	4 862 9 is_stmt 1               @ ../Firmware/GD32E23x_standard_peripheral/Source/gd32e23x_spi.c:862:9
	strb	r0, [r1]
	b	.LBB41_13
.Ltmp168:
.LBB41_13:
	.loc	4 0 9 is_stmt 0                 @ ../Firmware/GD32E23x_standard_peripheral/Source/gd32e23x_spi.c:0:9
	add	r0, sp, #8
	.loc	4 864 1 is_stmt 1               @ ../Firmware/GD32E23x_standard_peripheral/Source/gd32e23x_spi.c:864:1
	ldrb	r0, [r0]
	add	sp, #12
	bx	lr
.Ltmp169:
	.p2align	2
@ %bb.14:
	.loc	4 0 1 is_stmt 0                 @ ../Firmware/GD32E23x_standard_peripheral/Source/gd32e23x_spi.c:0:1
__arm_cp.41_0:
	.long	1073756160                      @ 0x40003800
.Lcpi_end9:
	.size	__arm_cp.41_0, .Lcpi_end9-__arm_cp.41_0
.Lfunc_end41:
	.size	spi_i2s_flag_get, .Lfunc_end41-spi_i2s_flag_get
	.cfi_endproc
	.cantunwind
	.fnend
                                        @ -- End function
	.section	.text.spi_i2s_interrupt_enable,"ax",%progbits
	.hidden	spi_i2s_interrupt_enable        @ -- Begin function spi_i2s_interrupt_enable
	.globl	spi_i2s_interrupt_enable
	.p2align	1
	.type	spi_i2s_interrupt_enable,%function
	.code	16                              @ @spi_i2s_interrupt_enable
	.thumb_func
spi_i2s_interrupt_enable:
.Lfunc_begin42:
	.loc	4 879 0 is_stmt 1               @ ../Firmware/GD32E23x_standard_peripheral/Source/gd32e23x_spi.c:879:0
	.fnstart
	.cfi_startproc
@ %bb.0:
	.pad	#8
	sub	sp, #8
	.cfi_def_cfa_offset 8
                                        @ kill: def $r2 killed $r1
	str	r0, [sp, #4]
	mov	r0, sp
	strb	r1, [r0]
.Ltmp170:
	.loc	4 880 39 prologue_end           @ ../Firmware/GD32E23x_standard_peripheral/Source/gd32e23x_spi.c:880:39
	ldrb	r2, [r0]
	.loc	4 880 5 is_stmt 0               @ ../Firmware/GD32E23x_standard_peripheral/Source/gd32e23x_spi.c:880:5
	ldr	r1, [sp, #4]
	.loc	4 880 26                        @ ../Firmware/GD32E23x_standard_peripheral/Source/gd32e23x_spi.c:880:26
	ldr	r0, [r1, #4]
	orrs	r0, r2
	str	r0, [r1, #4]
	.loc	4 881 1 is_stmt 1               @ ../Firmware/GD32E23x_standard_peripheral/Source/gd32e23x_spi.c:881:1
	add	sp, #8
	bx	lr
.Ltmp171:
.Lfunc_end42:
	.size	spi_i2s_interrupt_enable, .Lfunc_end42-spi_i2s_interrupt_enable
	.cfi_endproc
	.cantunwind
	.fnend
                                        @ -- End function
	.section	.text.spi_i2s_interrupt_disable,"ax",%progbits
	.hidden	spi_i2s_interrupt_disable       @ -- Begin function spi_i2s_interrupt_disable
	.globl	spi_i2s_interrupt_disable
	.p2align	1
	.type	spi_i2s_interrupt_disable,%function
	.code	16                              @ @spi_i2s_interrupt_disable
	.thumb_func
spi_i2s_interrupt_disable:
.Lfunc_begin43:
	.loc	4 896 0                         @ ../Firmware/GD32E23x_standard_peripheral/Source/gd32e23x_spi.c:896:0
	.fnstart
	.cfi_startproc
@ %bb.0:
	.pad	#8
	sub	sp, #8
	.cfi_def_cfa_offset 8
                                        @ kill: def $r2 killed $r1
	str	r0, [sp, #4]
	mov	r0, sp
	strb	r1, [r0]
.Ltmp172:
	.loc	4 897 40 prologue_end           @ ../Firmware/GD32E23x_standard_peripheral/Source/gd32e23x_spi.c:897:40
	ldrb	r2, [r0]
	.loc	4 897 5 is_stmt 0               @ ../Firmware/GD32E23x_standard_peripheral/Source/gd32e23x_spi.c:897:5
	ldr	r1, [sp, #4]
	.loc	4 897 26                        @ ../Firmware/GD32E23x_standard_peripheral/Source/gd32e23x_spi.c:897:26
	ldr	r0, [r1, #4]
	bics	r0, r2
	str	r0, [r1, #4]
	.loc	4 898 1 is_stmt 1               @ ../Firmware/GD32E23x_standard_peripheral/Source/gd32e23x_spi.c:898:1
	add	sp, #8
	bx	lr
.Ltmp173:
.Lfunc_end43:
	.size	spi_i2s_interrupt_disable, .Lfunc_end43-spi_i2s_interrupt_disable
	.cfi_endproc
	.cantunwind
	.fnend
                                        @ -- End function
	.section	.text.spi_i2s_interrupt_flag_get,"ax",%progbits
	.hidden	spi_i2s_interrupt_flag_get      @ -- Begin function spi_i2s_interrupt_flag_get
	.globl	spi_i2s_interrupt_flag_get
	.p2align	2
	.type	spi_i2s_interrupt_flag_get,%function
	.code	16                              @ @spi_i2s_interrupt_flag_get
	.thumb_func
spi_i2s_interrupt_flag_get:
.Lfunc_begin44:
	.loc	4 916 0                         @ ../Firmware/GD32E23x_standard_peripheral/Source/gd32e23x_spi.c:916:0
	.fnstart
	.cfi_startproc
@ %bb.0:
	.pad	#24
	sub	sp, #24
	.cfi_def_cfa_offset 24
                                        @ kill: def $r2 killed $r1
	str	r0, [sp, #16]
	add	r0, sp, #12
	strb	r1, [r0]
.Ltmp174:
	.loc	4 917 21 prologue_end           @ ../Firmware/GD32E23x_standard_peripheral/Source/gd32e23x_spi.c:917:21
	ldr	r1, [sp, #16]
	ldr	r1, [r1, #8]
	.loc	4 917 14 is_stmt 0              @ ../Firmware/GD32E23x_standard_peripheral/Source/gd32e23x_spi.c:917:14
	str	r1, [sp, #8]
	.loc	4 918 21 is_stmt 1              @ ../Firmware/GD32E23x_standard_peripheral/Source/gd32e23x_spi.c:918:21
	ldr	r1, [sp, #16]
	ldr	r1, [r1, #4]
	.loc	4 918 14 is_stmt 0              @ ../Firmware/GD32E23x_standard_peripheral/Source/gd32e23x_spi.c:918:14
	str	r1, [sp, #4]
	.loc	4 920 12 is_stmt 1              @ ../Firmware/GD32E23x_standard_peripheral/Source/gd32e23x_spi.c:920:12
	ldrb	r0, [r0]
	.loc	4 920 5 is_stmt 0               @ ../Firmware/GD32E23x_standard_peripheral/Source/gd32e23x_spi.c:920:5
	str	r0, [sp]                        @ 4-byte Spill
	cmp	r0, #6
	bhi	.LBB44_10
@ %bb.1:
	.loc	4 0 5                           @ ../Firmware/GD32E23x_standard_peripheral/Source/gd32e23x_spi.c:0:5
	ldr	r1, [sp]                        @ 4-byte Reload
	lsls	r2, r1, #2
	adr	r0, .LJTI44_0
	adds	r0, r0, r2
	mov	pc, r0
@ %bb.2:
	.p2align	2
.LJTI44_0:
	b.w	.LBB44_3
	b.w	.LBB44_4
	b.w	.LBB44_5
	b.w	.LBB44_6
	b.w	.LBB44_7
	b.w	.LBB44_8
	b.w	.LBB44_9
.LBB44_3:
.Ltmp175:
	.loc	4 923 16 is_stmt 1              @ ../Firmware/GD32E23x_standard_peripheral/Source/gd32e23x_spi.c:923:16
	ldr	r0, [sp, #8]
	movs	r1, #2
	.loc	4 923 21 is_stmt 0              @ ../Firmware/GD32E23x_standard_peripheral/Source/gd32e23x_spi.c:923:21
	ands	r0, r1
	.loc	4 923 14                        @ ../Firmware/GD32E23x_standard_peripheral/Source/gd32e23x_spi.c:923:14
	str	r0, [sp, #8]
	.loc	4 924 16 is_stmt 1              @ ../Firmware/GD32E23x_standard_peripheral/Source/gd32e23x_spi.c:924:16
	ldr	r0, [sp, #4]
	movs	r1, #128
	.loc	4 924 21 is_stmt 0              @ ../Firmware/GD32E23x_standard_peripheral/Source/gd32e23x_spi.c:924:21
	ands	r0, r1
	.loc	4 924 14                        @ ../Firmware/GD32E23x_standard_peripheral/Source/gd32e23x_spi.c:924:14
	str	r0, [sp, #4]
	.loc	4 925 9 is_stmt 1               @ ../Firmware/GD32E23x_standard_peripheral/Source/gd32e23x_spi.c:925:9
	b	.LBB44_11
.LBB44_4:
	.loc	4 928 16                        @ ../Firmware/GD32E23x_standard_peripheral/Source/gd32e23x_spi.c:928:16
	ldr	r0, [sp, #8]
	movs	r1, #1
	.loc	4 928 21 is_stmt 0              @ ../Firmware/GD32E23x_standard_peripheral/Source/gd32e23x_spi.c:928:21
	ands	r0, r1
	.loc	4 928 14                        @ ../Firmware/GD32E23x_standard_peripheral/Source/gd32e23x_spi.c:928:14
	str	r0, [sp, #8]
	.loc	4 929 16 is_stmt 1              @ ../Firmware/GD32E23x_standard_peripheral/Source/gd32e23x_spi.c:929:16
	ldr	r0, [sp, #4]
	movs	r1, #64
	.loc	4 929 21 is_stmt 0              @ ../Firmware/GD32E23x_standard_peripheral/Source/gd32e23x_spi.c:929:21
	ands	r0, r1
	.loc	4 929 14                        @ ../Firmware/GD32E23x_standard_peripheral/Source/gd32e23x_spi.c:929:14
	str	r0, [sp, #4]
	.loc	4 930 9 is_stmt 1               @ ../Firmware/GD32E23x_standard_peripheral/Source/gd32e23x_spi.c:930:9
	b	.LBB44_11
.LBB44_5:
	.loc	4 933 16                        @ ../Firmware/GD32E23x_standard_peripheral/Source/gd32e23x_spi.c:933:16
	ldr	r0, [sp, #8]
	movs	r1, #64
	.loc	4 933 21 is_stmt 0              @ ../Firmware/GD32E23x_standard_peripheral/Source/gd32e23x_spi.c:933:21
	ands	r0, r1
	.loc	4 933 14                        @ ../Firmware/GD32E23x_standard_peripheral/Source/gd32e23x_spi.c:933:14
	str	r0, [sp, #8]
	.loc	4 934 16 is_stmt 1              @ ../Firmware/GD32E23x_standard_peripheral/Source/gd32e23x_spi.c:934:16
	ldr	r0, [sp, #4]
	movs	r1, #32
	.loc	4 934 21 is_stmt 0              @ ../Firmware/GD32E23x_standard_peripheral/Source/gd32e23x_spi.c:934:21
	ands	r0, r1
	.loc	4 934 14                        @ ../Firmware/GD32E23x_standard_peripheral/Source/gd32e23x_spi.c:934:14
	str	r0, [sp, #4]
	.loc	4 935 9 is_stmt 1               @ ../Firmware/GD32E23x_standard_peripheral/Source/gd32e23x_spi.c:935:9
	b	.LBB44_11
.LBB44_6:
	.loc	4 938 16                        @ ../Firmware/GD32E23x_standard_peripheral/Source/gd32e23x_spi.c:938:16
	ldr	r0, [sp, #8]
	movs	r1, #32
	.loc	4 938 21 is_stmt 0              @ ../Firmware/GD32E23x_standard_peripheral/Source/gd32e23x_spi.c:938:21
	ands	r0, r1
	.loc	4 938 14                        @ ../Firmware/GD32E23x_standard_peripheral/Source/gd32e23x_spi.c:938:14
	str	r0, [sp, #8]
	.loc	4 939 16 is_stmt 1              @ ../Firmware/GD32E23x_standard_peripheral/Source/gd32e23x_spi.c:939:16
	ldr	r0, [sp, #4]
	.loc	4 939 21 is_stmt 0              @ ../Firmware/GD32E23x_standard_peripheral/Source/gd32e23x_spi.c:939:21
	ands	r0, r1
	.loc	4 939 14                        @ ../Firmware/GD32E23x_standard_peripheral/Source/gd32e23x_spi.c:939:14
	str	r0, [sp, #4]
	.loc	4 940 9 is_stmt 1               @ ../Firmware/GD32E23x_standard_peripheral/Source/gd32e23x_spi.c:940:9
	b	.LBB44_11
.LBB44_7:
	.loc	4 943 16                        @ ../Firmware/GD32E23x_standard_peripheral/Source/gd32e23x_spi.c:943:16
	ldr	r0, [sp, #8]
	movs	r1, #16
	.loc	4 943 21 is_stmt 0              @ ../Firmware/GD32E23x_standard_peripheral/Source/gd32e23x_spi.c:943:21
	ands	r0, r1
	.loc	4 943 14                        @ ../Firmware/GD32E23x_standard_peripheral/Source/gd32e23x_spi.c:943:14
	str	r0, [sp, #8]
	.loc	4 944 16 is_stmt 1              @ ../Firmware/GD32E23x_standard_peripheral/Source/gd32e23x_spi.c:944:16
	ldr	r0, [sp, #4]
	movs	r1, #32
	.loc	4 944 21 is_stmt 0              @ ../Firmware/GD32E23x_standard_peripheral/Source/gd32e23x_spi.c:944:21
	ands	r0, r1
	.loc	4 944 14                        @ ../Firmware/GD32E23x_standard_peripheral/Source/gd32e23x_spi.c:944:14
	str	r0, [sp, #4]
	.loc	4 945 9 is_stmt 1               @ ../Firmware/GD32E23x_standard_peripheral/Source/gd32e23x_spi.c:945:9
	b	.LBB44_11
.LBB44_8:
	.loc	4 948 16                        @ ../Firmware/GD32E23x_standard_peripheral/Source/gd32e23x_spi.c:948:16
	ldr	r0, [sp, #8]
	movs	r1, #8
	.loc	4 948 21 is_stmt 0              @ ../Firmware/GD32E23x_standard_peripheral/Source/gd32e23x_spi.c:948:21
	ands	r0, r1
	.loc	4 948 14                        @ ../Firmware/GD32E23x_standard_peripheral/Source/gd32e23x_spi.c:948:14
	str	r0, [sp, #8]
	.loc	4 949 16 is_stmt 1              @ ../Firmware/GD32E23x_standard_peripheral/Source/gd32e23x_spi.c:949:16
	ldr	r0, [sp, #4]
	movs	r1, #32
	.loc	4 949 21 is_stmt 0              @ ../Firmware/GD32E23x_standard_peripheral/Source/gd32e23x_spi.c:949:21
	ands	r0, r1
	.loc	4 949 14                        @ ../Firmware/GD32E23x_standard_peripheral/Source/gd32e23x_spi.c:949:14
	str	r0, [sp, #4]
	.loc	4 950 9 is_stmt 1               @ ../Firmware/GD32E23x_standard_peripheral/Source/gd32e23x_spi.c:950:9
	b	.LBB44_11
.LBB44_9:
	.loc	4 953 16                        @ ../Firmware/GD32E23x_standard_peripheral/Source/gd32e23x_spi.c:953:16
	ldr	r0, [sp, #8]
	movw	r1, #256
	.loc	4 953 21 is_stmt 0              @ ../Firmware/GD32E23x_standard_peripheral/Source/gd32e23x_spi.c:953:21
	ands	r0, r1
	.loc	4 953 14                        @ ../Firmware/GD32E23x_standard_peripheral/Source/gd32e23x_spi.c:953:14
	str	r0, [sp, #8]
	.loc	4 954 16 is_stmt 1              @ ../Firmware/GD32E23x_standard_peripheral/Source/gd32e23x_spi.c:954:16
	ldr	r0, [sp, #4]
	movs	r1, #32
	.loc	4 954 21 is_stmt 0              @ ../Firmware/GD32E23x_standard_peripheral/Source/gd32e23x_spi.c:954:21
	ands	r0, r1
	.loc	4 954 14                        @ ../Firmware/GD32E23x_standard_peripheral/Source/gd32e23x_spi.c:954:14
	str	r0, [sp, #4]
	.loc	4 955 9 is_stmt 1               @ ../Firmware/GD32E23x_standard_peripheral/Source/gd32e23x_spi.c:955:9
	b	.LBB44_11
.LBB44_10:
	.loc	4 957 9                         @ ../Firmware/GD32E23x_standard_peripheral/Source/gd32e23x_spi.c:957:9
	b	.LBB44_11
.Ltmp176:
.LBB44_11:
	.loc	4 960 15                        @ ../Firmware/GD32E23x_standard_peripheral/Source/gd32e23x_spi.c:960:15
	ldr	r0, [sp, #8]
	.loc	4 960 21 is_stmt 0              @ ../Firmware/GD32E23x_standard_peripheral/Source/gd32e23x_spi.c:960:21
	cbz	r0, .LBB44_14
	b	.LBB44_12
.LBB44_12:
	.loc	4 960 31                        @ ../Firmware/GD32E23x_standard_peripheral/Source/gd32e23x_spi.c:960:31
	ldr	r0, [sp, #4]
.Ltmp177:
	.loc	4 960 8                         @ ../Firmware/GD32E23x_standard_peripheral/Source/gd32e23x_spi.c:960:8
	cbz	r0, .LBB44_14
	b	.LBB44_13
.LBB44_13:
	.loc	4 0 8                           @ ../Firmware/GD32E23x_standard_peripheral/Source/gd32e23x_spi.c:0:8
	add	r1, sp, #20
	movs	r0, #1
.Ltmp178:
	.loc	4 961 9 is_stmt 1               @ ../Firmware/GD32E23x_standard_peripheral/Source/gd32e23x_spi.c:961:9
	strb	r0, [r1]
	b	.LBB44_15
.Ltmp179:
.LBB44_14:
	.loc	4 0 9 is_stmt 0                 @ ../Firmware/GD32E23x_standard_peripheral/Source/gd32e23x_spi.c:0:9
	add	r1, sp, #20
	movs	r0, #0
.Ltmp180:
	.loc	4 963 9 is_stmt 1               @ ../Firmware/GD32E23x_standard_peripheral/Source/gd32e23x_spi.c:963:9
	strb	r0, [r1]
	b	.LBB44_15
.Ltmp181:
.LBB44_15:
	.loc	4 0 9 is_stmt 0                 @ ../Firmware/GD32E23x_standard_peripheral/Source/gd32e23x_spi.c:0:9
	add	r0, sp, #20
	.loc	4 965 1 is_stmt 1               @ ../Firmware/GD32E23x_standard_peripheral/Source/gd32e23x_spi.c:965:1
	ldrb	r0, [r0]
	add	sp, #24
	bx	lr
.Ltmp182:
.Lfunc_end44:
	.size	spi_i2s_interrupt_flag_get, .Lfunc_end44-spi_i2s_interrupt_flag_get
	.cfi_endproc
	.cantunwind
	.fnend
                                        @ -- End function
	.file	5 "D:\\GD32\\GD32E230\\Oscilloscope\\Project" "../Firmware/GD32E23x_standard_peripheral/Include\\gd32e23x_spi.h"
	.section	".note.GNU-stack","",%progbits
	.eabi_attribute	30, 6	@ Tag_ABI_optimization_goals
	.ARM_attribute	16, 1	@ Tag_AV_eba