	.text
	.syntax unified
	.eabi_attribute	67, "2.09"	@ Tag_conformance
	.cpu	cortex-m23
	.eabi_attribute	6, 16	@ Tag_CPU_arch
	.eabi_attribute	7, 77	@ Tag_CPU_arch_profile
	.eabi_attribute	8, 0	@ Tag_ARM_ISA_use
	.eabi_attribute	9, 3	@ Tag_THUMB_ISA_use
	.eabi_attribute	34, 0	@ Tag_CPU_unaligned_access
	.eabi_attribute	17, 1	@ Tag_ABI_PCS_GOT_use
	.eabi_attribute	20, 2	@ Tag_ABI_FP_denormal
	.eabi_attribute	21, 0	@ Tag_ABI_FP_exceptions
	.eabi_attribute	23, 1	@ Tag_ABI_FP_number_model
	.eabi_attribute	24, 1	@ Tag_ABI_align_needed
	.eabi_attribute	25, 1	@ Tag_ABI_align_preserved
	.eabi_attribute	38, 1	@ Tag_ABI_FP_16bit_format
	.eabi_attribute	18, 2	@ Tag_ABI_PCS_wchar_t
	.eabi_attribute	26, 1	@ Tag_ABI_enum_size
	.eabi_attribute	14, 0	@ Tag_ABI_PCS_R9_use
	.file	"gd32e23x_rtc.c"
	.file	1 "D:\\GD32\\GD32E230\\Oscilloscope\\Project" "../Firmware/CMSIS/GD/GD32E23x/Include\\gd32e23x.h"
	.file	2 "D:\\Keil_arm\\ARM\\ARMCLANG\\Bin\\..\\include" "stdint.h"
	.section	.text.rtc_deinit,"ax",%progbits
	.hidden	rtc_deinit                      @ -- Begin function rtc_deinit
	.globl	rtc_deinit
	.p2align	2
	.type	rtc_deinit,%function
	.code	16                              @ @rtc_deinit
	.thumb_func
rtc_deinit:
.Lfunc_begin0:
	.file	3 "D:\\GD32\\GD32E230\\Oscilloscope\\Project" "../Firmware/GD32E23x_standard_peripheral/Source/gd32e23x_rtc.c"
	.loc	3 44 0                          @ ../Firmware/GD32E23x_standard_peripheral/Source/gd32e23x_rtc.c:44:0
	.fnstart
	.cfi_sections .debug_frame
	.cfi_startproc
@ %bb.0:
	.save	{r7, lr}
	push	{r7, lr}
	.cfi_def_cfa_offset 8
	.cfi_offset lr, -4
	.cfi_offset r7, -8
	.pad	#8
	sub	sp, #8
	.cfi_def_cfa_offset 16
	add	r1, sp, #4
	str	r1, [sp]                        @ 4-byte Spill
	movs	r0, #0
.Ltmp0:
	.loc	3 45 15 prologue_end            @ ../Firmware/GD32E23x_standard_peripheral/Source/gd32e23x_rtc.c:45:15
	strb	r0, [r1]
	ldr	r1, __arm_cp.0_0
	.loc	3 48 14                         @ ../Firmware/GD32E23x_standard_peripheral/Source/gd32e23x_rtc.c:48:14
	str	r0, [r1]
	ldr	r2, __arm_cp.0_1
	movs	r1, #202
	.loc	3 51 13                         @ ../Firmware/GD32E23x_standard_peripheral/Source/gd32e23x_rtc.c:51:13
	str	r1, [r2]
	movs	r1, #83
	.loc	3 52 13                         @ ../Firmware/GD32E23x_standard_peripheral/Source/gd32e23x_rtc.c:52:13
	str	r1, [r2]
	ldr	r1, __arm_cp.0_2
	.loc	3 55 13                         @ ../Firmware/GD32E23x_standard_peripheral/Source/gd32e23x_rtc.c:55:13
	ldr	r2, [r1]
	str	r0, [r1]
	.loc	3 58 20                         @ ../Firmware/GD32E23x_standard_peripheral/Source/gd32e23x_rtc.c:58:20
	bl	rtc_init_mode_enter
	mov	r1, r0
	.loc	3 58 18 is_stmt 0               @ ../Firmware/GD32E23x_standard_peripheral/Source/gd32e23x_rtc.c:58:18
	ldr	r0, [sp]                        @ 4-byte Reload
	strb	r1, [r0]
.Ltmp1:
	.loc	3 60 17 is_stmt 1               @ ../Firmware/GD32E23x_standard_peripheral/Source/gd32e23x_rtc.c:60:17
	ldrb	r0, [r0]
.Ltmp2:
	.loc	3 60 8 is_stmt 0                @ ../Firmware/GD32E23x_standard_peripheral/Source/gd32e23x_rtc.c:60:8
	cbz	r0, .LBB0_2
	b	.LBB0_1
.LBB0_1:
	.loc	3 0 8                           @ ../Firmware/GD32E23x_standard_peripheral/Source/gd32e23x_rtc.c:0:8
	ldr	r1, __arm_cp.0_3
	movs	r0, #0
.Ltmp3:
	.loc	3 63 18 is_stmt 1               @ ../Firmware/GD32E23x_standard_peripheral/Source/gd32e23x_rtc.c:63:18
	str	r0, [r1]
	ldr	r2, __arm_cp.0_4
	ldr	r1, __arm_cp.0_5
	.loc	3 64 18                         @ ../Firmware/GD32E23x_standard_peripheral/Source/gd32e23x_rtc.c:64:18
	str	r1, [r2]
	ldr	r2, __arm_cp.0_6
	ldr	r1, __arm_cp.0_7
	.loc	3 66 17                         @ ../Firmware/GD32E23x_standard_peripheral/Source/gd32e23x_rtc.c:66:17
	str	r1, [r2]
	ldr	r2, __arm_cp.0_8
	movs	r1, #7
	.loc	3 70 18                         @ ../Firmware/GD32E23x_standard_peripheral/Source/gd32e23x_rtc.c:70:18
	str	r1, [r2]
	ldr	r1, __arm_cp.0_9
	.loc	3 73 21                         @ ../Firmware/GD32E23x_standard_peripheral/Source/gd32e23x_rtc.c:73:21
	str	r0, [r1]
	ldr	r1, __arm_cp.0_10
	.loc	3 74 21                         @ ../Firmware/GD32E23x_standard_peripheral/Source/gd32e23x_rtc.c:74:21
	str	r0, [r1]
	ldr	r1, __arm_cp.0_11
	.loc	3 77 22                         @ ../Firmware/GD32E23x_standard_peripheral/Source/gd32e23x_rtc.c:77:22
	str	r0, [r1]
	ldr	r1, __arm_cp.0_12
	.loc	3 78 18                         @ ../Firmware/GD32E23x_standard_peripheral/Source/gd32e23x_rtc.c:78:18
	str	r0, [r1]
	.loc	3 80 24                         @ ../Firmware/GD32E23x_standard_peripheral/Source/gd32e23x_rtc.c:80:24
	bl	rtc_register_sync_wait
	add	r1, sp, #4
	.loc	3 80 22 is_stmt 0               @ ../Firmware/GD32E23x_standard_peripheral/Source/gd32e23x_rtc.c:80:22
	strb	r0, [r1]
	.loc	3 81 5 is_stmt 1                @ ../Firmware/GD32E23x_standard_peripheral/Source/gd32e23x_rtc.c:81:5
	b	.LBB0_2
.Ltmp4:
.LBB0_2:
	.loc	3 0 5 is_stmt 0                 @ ../Firmware/GD32E23x_standard_peripheral/Source/gd32e23x_rtc.c:0:5
	ldr	r1, __arm_cp.0_1
	movs	r0, #255
	.loc	3 84 13 is_stmt 1               @ ../Firmware/GD32E23x_standard_peripheral/Source/gd32e23x_rtc.c:84:13
	str	r0, [r1]
	add	r0, sp, #4
	.loc	3 86 12                         @ ../Firmware/GD32E23x_standard_peripheral/Source/gd32e23x_rtc.c:86:12
	ldrb	r0, [r0]
	.loc	3 86 5 is_stmt 0                @ ../Firmware/GD32E23x_standard_peripheral/Source/gd32e23x_rtc.c:86:5
	add	sp, #8
	pop	{r7, pc}
.Ltmp5:
	.p2align	2
@ %bb.3:
	.loc	3 0 5                           @ ../Firmware/GD32E23x_standard_peripheral/Source/gd32e23x_rtc.c:0:5
__arm_cp.0_0:
	.long	1073752128                      @ 0x40002840
.Lcpi_end0:
	.size	__arm_cp.0_0, .Lcpi_end0-__arm_cp.0_0
__arm_cp.0_1:
	.long	1073752100                      @ 0x40002824
.Lcpi_end1:
	.size	__arm_cp.0_1, .Lcpi_end1-__arm_cp.0_1
__arm_cp.0_2:
	.long	1073752072                      @ 0x40002808
.Lcpi_end2:
	.size	__arm_cp.0_2, .Lcpi_end2-__arm_cp.0_2
__arm_cp.0_3:
	.long	1073752064                      @ 0x40002800
.Lcpi_end3:
	.size	__arm_cp.0_3, .Lcpi_end3-__arm_cp.0_3
__arm_cp.0_4:
	.long	1073752068                      @ 0x40002804
.Lcpi_end4:
	.size	__arm_cp.0_4, .Lcpi_end4-__arm_cp.0_4
__arm_cp.0_5:
	.long	8449                            @ 0x2101
.Lcpi_end5:
	.size	__arm_cp.0_5, .Lcpi_end5-__arm_cp.0_5
__arm_cp.0_6:
	.long	1073752080                      @ 0x40002810
.Lcpi_end6:
	.size	__arm_cp.0_6, .Lcpi_end6-__arm_cp.0_6
__arm_cp.0_7:
	.long	8323327                         @ 0x7f00ff
.Lcpi_end7:
	.size	__arm_cp.0_7, .Lcpi_end7-__arm_cp.0_7
__arm_cp.0_8:
	.long	1073752076                      @ 0x4000280c
.Lcpi_end8:
	.size	__arm_cp.0_8, .Lcpi_end8-__arm_cp.0_8
__arm_cp.0_9:
	.long	1073752092                      @ 0x4000281c
.Lcpi_end9:
	.size	__arm_cp.0_9, .Lcpi_end9-__arm_cp.0_9
__arm_cp.0_10:
	.long	1073752132                      @ 0x40002844
.Lcpi_end10:
	.size	__arm_cp.0_10, .Lcpi_end10-__arm_cp.0_10
__arm_cp.0_11:
	.long	1073752108                      @ 0x4000282c
.Lcpi_end11:
	.size	__arm_cp.0_11, .Lcpi_end11-__arm_cp.0_11
__arm_cp.0_12:
	.long	1073752124                      @ 0x4000283c
.Lcpi_end12:
	.size	__arm_cp.0_12, .Lcpi_end12-__arm_cp.0_12
.Lfunc_end0:
	.size	rtc_deinit, .Lfunc_end0-rtc_deinit
	.cfi_endproc
	.cantunwind
	.fnend
                                        @ -- End function
	.section	.text.rtc_init_mode_enter,"ax",%progbits
	.hidden	rtc_init_mode_enter             @ -- Begin function rtc_init_mode_enter
	.globl	rtc_init_mode_enter
	.p2align	2
	.type	rtc_init_mode_enter,%function
	.code	16                              @ @rtc_init_mode_enter
	.thumb_func
rtc_init_mode_enter:
.Lfunc_begin1:
	.loc	3 162 0 is_stmt 1               @ ../Firmware/GD32E23x_standard_peripheral/Source/gd32e23x_rtc.c:162:0
	.fnstart
	.cfi_startproc
@ %bb.0:
	.pad	#16
	sub	sp, #16
	.cfi_def_cfa_offset 16
	movw	r0, #16384
.Ltmp6:
	.loc	3 163 14 prologue_end           @ ../Firmware/GD32E23x_standard_peripheral/Source/gd32e23x_rtc.c:163:14
	str	r0, [sp, #12]
	movs	r0, #0
	.loc	3 164 14                        @ ../Firmware/GD32E23x_standard_peripheral/Source/gd32e23x_rtc.c:164:14
	str	r0, [sp, #8]
	add	r1, sp, #4
	.loc	3 165 15                        @ ../Firmware/GD32E23x_standard_peripheral/Source/gd32e23x_rtc.c:165:15
	strb	r0, [r1]
	ldr	r0, __arm_cp.1_0
.Ltmp7:
	.loc	3 168 28                        @ ../Firmware/GD32E23x_standard_peripheral/Source/gd32e23x_rtc.c:168:28
	ldr	r0, [r0]
.Ltmp8:
	.loc	3 168 8 is_stmt 0               @ ../Firmware/GD32E23x_standard_peripheral/Source/gd32e23x_rtc.c:168:8
	lsls	r0, r0, #25
	cmp	r0, #0
	bmi	.LBB1_9
	b	.LBB1_1
.LBB1_1:
	.loc	3 0 8                           @ ../Firmware/GD32E23x_standard_peripheral/Source/gd32e23x_rtc.c:0:8
	ldr	r1, __arm_cp.1_0
.Ltmp9:
	.loc	3 169 18 is_stmt 1              @ ../Firmware/GD32E23x_standard_peripheral/Source/gd32e23x_rtc.c:169:18
	ldr	r0, [r1]
	movs	r2, #128
	orrs	r0, r2
	str	r0, [r1]
	.loc	3 172 9                         @ ../Firmware/GD32E23x_standard_peripheral/Source/gd32e23x_rtc.c:172:9
	b	.LBB1_2
.LBB1_2:                                @ =>This Inner Loop Header: Depth=1
	.loc	3 0 9 is_stmt 0                 @ ../Firmware/GD32E23x_standard_peripheral/Source/gd32e23x_rtc.c:0:9
	ldr	r0, __arm_cp.1_0
.Ltmp10:
	.loc	3 173 26 is_stmt 1              @ ../Firmware/GD32E23x_standard_peripheral/Source/gd32e23x_rtc.c:173:26
	ldr	r0, [r0]
	movs	r1, #64
	.loc	3 173 35 is_stmt 0              @ ../Firmware/GD32E23x_standard_peripheral/Source/gd32e23x_rtc.c:173:35
	ands	r0, r1
	.loc	3 173 24                        @ ../Firmware/GD32E23x_standard_peripheral/Source/gd32e23x_rtc.c:173:24
	str	r0, [sp, #8]
	.loc	3 174 9 is_stmt 1               @ ../Firmware/GD32E23x_standard_peripheral/Source/gd32e23x_rtc.c:174:9
	b	.LBB1_3
.Ltmp11:
.LBB1_3:                                @   in Loop: Header=BB1_2 Depth=1
	.loc	3 174 17 is_stmt 0              @ ../Firmware/GD32E23x_standard_peripheral/Source/gd32e23x_rtc.c:174:17
	ldr	r0, [sp, #12]
	subs	r1, r0, #1
	str	r1, [sp, #12]
	movs	r0, #0
	.loc	3 174 39                        @ ../Firmware/GD32E23x_standard_peripheral/Source/gd32e23x_rtc.c:174:39
	str	r0, [sp]                        @ 4-byte Spill
	cbz	r1, .LBB1_5
	b	.LBB1_4
.LBB1_4:                                @   in Loop: Header=BB1_2 Depth=1
	.loc	3 174 62                        @ ../Firmware/GD32E23x_standard_peripheral/Source/gd32e23x_rtc.c:174:62
	ldr	r0, [sp, #8]
	.loc	3 174 59                        @ ../Firmware/GD32E23x_standard_peripheral/Source/gd32e23x_rtc.c:174:59
	rsbs	r1, r0, #0
	adcs	r0, r1
	str	r0, [sp]                        @ 4-byte Spill
	b	.LBB1_5
.LBB1_5:                                @   in Loop: Header=BB1_2 Depth=1
	.loc	3 0 0                           @ ../Firmware/GD32E23x_standard_peripheral/Source/gd32e23x_rtc.c:0:0
	ldr	r0, [sp]                        @ 4-byte Reload
.Ltmp12:
	.loc	3 174 9                         @ ../Firmware/GD32E23x_standard_peripheral/Source/gd32e23x_rtc.c:174:9
	lsls	r0, r0, #31
	cmp	r0, #0
	bne	.LBB1_2
	b	.LBB1_6
.Ltmp13:
.LBB1_6:
	.loc	3 176 31 is_stmt 1              @ ../Firmware/GD32E23x_standard_peripheral/Source/gd32e23x_rtc.c:176:31
	ldr	r0, [sp, #8]
.Ltmp14:
	.loc	3 176 12 is_stmt 0              @ ../Firmware/GD32E23x_standard_peripheral/Source/gd32e23x_rtc.c:176:12
	cbz	r0, .LBB1_8
	b	.LBB1_7
.LBB1_7:
	.loc	3 0 12                          @ ../Firmware/GD32E23x_standard_peripheral/Source/gd32e23x_rtc.c:0:12
	add	r1, sp, #4
	movs	r0, #1
.Ltmp15:
	.loc	3 177 26 is_stmt 1              @ ../Firmware/GD32E23x_standard_peripheral/Source/gd32e23x_rtc.c:177:26
	strb	r0, [r1]
	.loc	3 178 9                         @ ../Firmware/GD32E23x_standard_peripheral/Source/gd32e23x_rtc.c:178:9
	b	.LBB1_8
.Ltmp16:
.LBB1_8:
	.loc	3 179 5                         @ ../Firmware/GD32E23x_standard_peripheral/Source/gd32e23x_rtc.c:179:5
	b	.LBB1_10
.Ltmp17:
.LBB1_9:
	.loc	3 0 5 is_stmt 0                 @ ../Firmware/GD32E23x_standard_peripheral/Source/gd32e23x_rtc.c:0:5
	add	r1, sp, #4
	movs	r0, #1
.Ltmp18:
	.loc	3 180 22 is_stmt 1              @ ../Firmware/GD32E23x_standard_peripheral/Source/gd32e23x_rtc.c:180:22
	strb	r0, [r1]
	b	.LBB1_10
.Ltmp19:
.LBB1_10:
	.loc	3 0 22 is_stmt 0                @ ../Firmware/GD32E23x_standard_peripheral/Source/gd32e23x_rtc.c:0:22
	add	r0, sp, #4
	.loc	3 182 12 is_stmt 1              @ ../Firmware/GD32E23x_standard_peripheral/Source/gd32e23x_rtc.c:182:12
	ldrb	r0, [r0]
	.loc	3 182 5 is_stmt 0               @ ../Firmware/GD32E23x_standard_peripheral/Source/gd32e23x_rtc.c:182:5
	add	sp, #16
	bx	lr
.Ltmp20:
	.p2align	2
@ %bb.11:
	.loc	3 0 5                           @ ../Firmware/GD32E23x_standard_peripheral/Source/gd32e23x_rtc.c:0:5
__arm_cp.1_0:
	.long	1073752076                      @ 0x4000280c
.Lcpi_end13:
	.size	__arm_cp.1_0, .Lcpi_end13-__arm_cp.1_0
.Lfunc_end1:
	.size	rtc_init_mode_enter, .Lfunc_end1-rtc_init_mode_enter
	.cfi_endproc
	.cantunwind
	.fnend
                                        @ -- End function
	.section	.text.rtc_register_sync_wait,"ax",%progbits
	.hidden	rtc_register_sync_wait          @ -- Begin function rtc_register_sync_wait
	.globl	rtc_register_sync_wait
	.p2align	2
	.type	rtc_register_sync_wait,%function
	.code	16                              @ @rtc_register_sync_wait
	.thumb_func
rtc_register_sync_wait:
.Lfunc_begin2:
	.loc	3 204 0 is_stmt 1               @ ../Firmware/GD32E23x_standard_peripheral/Source/gd32e23x_rtc.c:204:0
	.fnstart
	.cfi_startproc
@ %bb.0:
	.pad	#16
	sub	sp, #16
	.cfi_def_cfa_offset 16
	movw	r0, #32768
.Ltmp21:
	.loc	3 205 23 prologue_end           @ ../Firmware/GD32E23x_standard_peripheral/Source/gd32e23x_rtc.c:205:23
	str	r0, [sp, #12]
	movs	r0, #0
	.loc	3 206 14                        @ ../Firmware/GD32E23x_standard_peripheral/Source/gd32e23x_rtc.c:206:14
	str	r0, [sp, #8]
	add	r1, sp, #4
	.loc	3 207 15                        @ ../Firmware/GD32E23x_standard_peripheral/Source/gd32e23x_rtc.c:207:15
	strb	r0, [r1]
	ldr	r0, __arm_cp.2_0
.Ltmp22:
	.loc	3 209 28                        @ ../Firmware/GD32E23x_standard_peripheral/Source/gd32e23x_rtc.c:209:28
	ldr	r0, [r0]
.Ltmp23:
	.loc	3 209 8 is_stmt 0               @ ../Firmware/GD32E23x_standard_peripheral/Source/gd32e23x_rtc.c:209:8
	lsls	r0, r0, #26
	cmp	r0, #0
	bmi	.LBB2_9
	b	.LBB2_1
.LBB2_1:
	.loc	3 0 8                           @ ../Firmware/GD32E23x_standard_peripheral/Source/gd32e23x_rtc.c:0:8
	ldr	r1, __arm_cp.2_1
	movs	r0, #202
.Ltmp24:
	.loc	3 211 17 is_stmt 1              @ ../Firmware/GD32E23x_standard_peripheral/Source/gd32e23x_rtc.c:211:17
	str	r0, [r1]
	movs	r0, #83
	.loc	3 212 17                        @ ../Firmware/GD32E23x_standard_peripheral/Source/gd32e23x_rtc.c:212:17
	str	r0, [r1]
	ldr	r1, __arm_cp.2_2
	.loc	3 215 18                        @ ../Firmware/GD32E23x_standard_peripheral/Source/gd32e23x_rtc.c:215:18
	ldr	r0, [r1]
	movs	r2, #32
	bics	r0, r2
	str	r0, [r1]
	.loc	3 218 9                         @ ../Firmware/GD32E23x_standard_peripheral/Source/gd32e23x_rtc.c:218:9
	b	.LBB2_2
.LBB2_2:                                @ =>This Inner Loop Header: Depth=1
	.loc	3 0 9 is_stmt 0                 @ ../Firmware/GD32E23x_standard_peripheral/Source/gd32e23x_rtc.c:0:9
	ldr	r0, __arm_cp.2_2
.Ltmp25:
	.loc	3 219 27 is_stmt 1              @ ../Firmware/GD32E23x_standard_peripheral/Source/gd32e23x_rtc.c:219:27
	ldr	r0, [r0]
	movs	r1, #32
	.loc	3 219 36 is_stmt 0              @ ../Firmware/GD32E23x_standard_peripheral/Source/gd32e23x_rtc.c:219:36
	ands	r0, r1
	.loc	3 219 25                        @ ../Firmware/GD32E23x_standard_peripheral/Source/gd32e23x_rtc.c:219:25
	str	r0, [sp, #8]
	.loc	3 220 9 is_stmt 1               @ ../Firmware/GD32E23x_standard_peripheral/Source/gd32e23x_rtc.c:220:9
	b	.LBB2_3
.Ltmp26:
.LBB2_3:                                @   in Loop: Header=BB2_2 Depth=1
	.loc	3 220 17 is_stmt 0              @ ../Firmware/GD32E23x_standard_peripheral/Source/gd32e23x_rtc.c:220:17
	ldr	r0, [sp, #12]
	subs	r1, r0, #1
	str	r1, [sp, #12]
	movs	r0, #0
	.loc	3 220 39                        @ ../Firmware/GD32E23x_standard_peripheral/Source/gd32e23x_rtc.c:220:39
	str	r0, [sp]                        @ 4-byte Spill
	cbz	r1, .LBB2_5
	b	.LBB2_4
.LBB2_4:                                @   in Loop: Header=BB2_2 Depth=1
	.loc	3 220 62                        @ ../Firmware/GD32E23x_standard_peripheral/Source/gd32e23x_rtc.c:220:62
	ldr	r0, [sp, #8]
	.loc	3 220 59                        @ ../Firmware/GD32E23x_standard_peripheral/Source/gd32e23x_rtc.c:220:59
	rsbs	r1, r0, #0
	adcs	r0, r1
	str	r0, [sp]                        @ 4-byte Spill
	b	.LBB2_5
.LBB2_5:                                @   in Loop: Header=BB2_2 Depth=1
	.loc	3 0 0                           @ ../Firmware/GD32E23x_standard_peripheral/Source/gd32e23x_rtc.c:0:0
	ldr	r0, [sp]                        @ 4-byte Reload
.Ltmp27:
	.loc	3 220 9                         @ ../Firmware/GD32E23x_standard_peripheral/Source/gd32e23x_rtc.c:220:9
	lsls	r0, r0, #31
	cmp	r0, #0
	bne	.LBB2_2
	b	.LBB2_6
.Ltmp28:
.LBB2_6:
	.loc	3 222 31 is_stmt 1              @ ../Firmware/GD32E23x_standard_peripheral/Source/gd32e23x_rtc.c:222:31
	ldr	r0, [sp, #8]
.Ltmp29:
	.loc	3 222 12 is_stmt 0              @ ../Firmware/GD32E23x_standard_peripheral/Source/gd32e23x_rtc.c:222:12
	cbz	r0, .LBB2_8
	b	.LBB2_7
.LBB2_7:
	.loc	3 0 12                          @ ../Firmware/GD32E23x_standard_peripheral/Source/gd32e23x_rtc.c:0:12
	add	r1, sp, #4
	movs	r0, #1
.Ltmp30:
	.loc	3 223 26 is_stmt 1              @ ../Firmware/GD32E23x_standard_peripheral/Source/gd32e23x_rtc.c:223:26
	strb	r0, [r1]
	.loc	3 224 9                         @ ../Firmware/GD32E23x_standard_peripheral/Source/gd32e23x_rtc.c:224:9
	b	.LBB2_8
.Ltmp31:
.LBB2_8:
	.loc	3 0 9 is_stmt 0                 @ ../Firmware/GD32E23x_standard_peripheral/Source/gd32e23x_rtc.c:0:9
	ldr	r1, __arm_cp.2_1
	movs	r0, #255
	.loc	3 227 17 is_stmt 1              @ ../Firmware/GD32E23x_standard_peripheral/Source/gd32e23x_rtc.c:227:17
	str	r0, [r1]
	.loc	3 228 5                         @ ../Firmware/GD32E23x_standard_peripheral/Source/gd32e23x_rtc.c:228:5
	b	.LBB2_10
.Ltmp32:
.LBB2_9:
	.loc	3 0 5 is_stmt 0                 @ ../Firmware/GD32E23x_standard_peripheral/Source/gd32e23x_rtc.c:0:5
	add	r1, sp, #4
	movs	r0, #1
.Ltmp33:
	.loc	3 229 22 is_stmt 1              @ ../Firmware/GD32E23x_standard_peripheral/Source/gd32e23x_rtc.c:229:22
	strb	r0, [r1]
	b	.LBB2_10
.Ltmp34:
.LBB2_10:
	.loc	3 0 22 is_stmt 0                @ ../Firmware/GD32E23x_standard_peripheral/Source/gd32e23x_rtc.c:0:22
	add	r0, sp, #4
	.loc	3 232 12 is_stmt 1              @ ../Firmware/GD32E23x_standard_peripheral/Source/gd32e23x_rtc.c:232:12
	ldrb	r0, [r0]
	.loc	3 232 5 is_stmt 0               @ ../Firmware/GD32E23x_standard_peripheral/Source/gd32e23x_rtc.c:232:5
	add	sp, #16
	bx	lr
.Ltmp35:
	.p2align	2
@ %bb.11:
	.loc	3 0 5                           @ ../Firmware/GD32E23x_standard_peripheral/Source/gd32e23x_rtc.c:0:5
__arm_cp.2_0:
	.long	1073752072                      @ 0x40002808
.Lcpi_end14:
	.size	__arm_cp.2_0, .Lcpi_end14-__arm_cp.2_0
__arm_cp.2_1:
	.long	1073752100                      @ 0x40002824
.Lcpi_end15:
	.size	__arm_cp.2_1, .Lcpi_end15-__arm_cp.2_1
__arm_cp.2_2:
	.long	1073752076                      @ 0x4000280c
.Lcpi_end16:
	.size	__arm_cp.2_2, .Lcpi_end16-__arm_cp.2_2
.Lfunc_end2:
	.size	rtc_register_sync_wait, .Lfunc_end2-rtc_register_sync_wait
	.cfi_endproc
	.cantunwind
	.fnend
                                        @ -- End function
	.section	.text.rtc_init,"ax",%progbits
	.hidden	rtc_init                        @ -- Begin function rtc_init
	.globl	rtc_init
	.p2align	2
	.type	rtc_init,%function
	.code	16                              @ @rtc_init
	.thumb_func
rtc_init:
.Lfunc_begin3:
	.loc	3 111 0 is_stmt 1               @ ../Firmware/GD32E23x_standard_peripheral/Source/gd32e23x_rtc.c:111:0
	.fnstart
	.cfi_startproc
@ %bb.0:
	.save	{r7, lr}
	push	{r7, lr}
	.cfi_def_cfa_offset 8
	.cfi_offset lr, -4
	.cfi_offset r7, -8
	.pad	#24
	sub	sp, #24
	.cfi_def_cfa_offset 32
	str	r0, [sp, #20]
	add	r1, sp, #16
	str	r1, [sp, #4]                    @ 4-byte Spill
	movs	r0, #0
.Ltmp36:
	.loc	3 112 15 prologue_end           @ ../Firmware/GD32E23x_standard_peripheral/Source/gd32e23x_rtc.c:112:15
	strb	r0, [r1]
	.loc	3 113 14                        @ ../Firmware/GD32E23x_standard_peripheral/Source/gd32e23x_rtc.c:113:14
	str	r0, [sp, #12]
	.loc	3 113 32 is_stmt 0              @ ../Firmware/GD32E23x_standard_peripheral/Source/gd32e23x_rtc.c:113:32
	str	r0, [sp, #8]
	.loc	3 115 17 is_stmt 1              @ ../Firmware/GD32E23x_standard_peripheral/Source/gd32e23x_rtc.c:115:17
	ldr	r1, [sp, #20]
	ldrb	r0, [r1]
	lsls	r0, r0, #16
	.loc	3 116 17                        @ ../Firmware/GD32E23x_standard_peripheral/Source/gd32e23x_rtc.c:116:17
	ldrb	r2, [r1, #3]
	lsls	r2, r2, #29
	lsrs	r2, r2, #16
	.loc	3 115 56                        @ ../Firmware/GD32E23x_standard_peripheral/Source/gd32e23x_rtc.c:115:56
	adds	r0, r0, r2
	.loc	3 117 17                        @ ../Firmware/GD32E23x_standard_peripheral/Source/gd32e23x_rtc.c:117:17
	ldrb	r2, [r1, #1]
	lsls	r2, r2, #27
	lsrs	r2, r2, #19
	.loc	3 116 64                        @ ../Firmware/GD32E23x_standard_peripheral/Source/gd32e23x_rtc.c:116:64
	adds	r0, r0, r2
	.loc	3 118 17                        @ ../Firmware/GD32E23x_standard_peripheral/Source/gd32e23x_rtc.c:118:17
	ldrb	r1, [r1, #2]
	movs	r2, #63
	ands	r1, r2
	.loc	3 117 58                        @ ../Firmware/GD32E23x_standard_peripheral/Source/gd32e23x_rtc.c:117:58
	adds	r0, r0, r1
	.loc	3 115 14                        @ ../Firmware/GD32E23x_standard_peripheral/Source/gd32e23x_rtc.c:115:14
	str	r0, [sp, #8]
	.loc	3 120 17                        @ ../Firmware/GD32E23x_standard_peripheral/Source/gd32e23x_rtc.c:120:17
	ldr	r1, [sp, #20]
	.loc	3 120 38 is_stmt 0              @ ../Firmware/GD32E23x_standard_peripheral/Source/gd32e23x_rtc.c:120:38
	ldr	r0, [r1, #12]
	.loc	3 121 17 is_stmt 1              @ ../Firmware/GD32E23x_standard_peripheral/Source/gd32e23x_rtc.c:121:17
	ldrb	r2, [r1, #4]
	lsls	r2, r2, #26
	lsrs	r2, r2, #10
	.loc	3 120 47                        @ ../Firmware/GD32E23x_standard_peripheral/Source/gd32e23x_rtc.c:120:47
	orrs	r0, r2
	.loc	3 122 17                        @ ../Firmware/GD32E23x_standard_peripheral/Source/gd32e23x_rtc.c:122:17
	ldrb	r2, [r1, #5]
	lsls	r2, r2, #25
	lsrs	r2, r2, #17
	.loc	3 121 56                        @ ../Firmware/GD32E23x_standard_peripheral/Source/gd32e23x_rtc.c:121:56
	orrs	r0, r2
	.loc	3 123 17                        @ ../Firmware/GD32E23x_standard_peripheral/Source/gd32e23x_rtc.c:123:17
	ldrb	r1, [r1, #6]
	movs	r2, #127
	ands	r1, r2
	.loc	3 122 58                        @ ../Firmware/GD32E23x_standard_peripheral/Source/gd32e23x_rtc.c:122:58
	orrs	r0, r1
	.loc	3 120 14                        @ ../Firmware/GD32E23x_standard_peripheral/Source/gd32e23x_rtc.c:120:14
	str	r0, [sp, #12]
	ldr	r1, __arm_cp.3_0
	movs	r0, #202
	.loc	3 126 13                        @ ../Firmware/GD32E23x_standard_peripheral/Source/gd32e23x_rtc.c:126:13
	str	r0, [r1]
	movs	r0, #83
	.loc	3 127 13                        @ ../Firmware/GD32E23x_standard_peripheral/Source/gd32e23x_rtc.c:127:13
	str	r0, [r1]
	.loc	3 130 20                        @ ../Firmware/GD32E23x_standard_peripheral/Source/gd32e23x_rtc.c:130:20
	bl	rtc_init_mode_enter
	mov	r1, r0
	.loc	3 130 18 is_stmt 0              @ ../Firmware/GD32E23x_standard_peripheral/Source/gd32e23x_rtc.c:130:18
	ldr	r0, [sp, #4]                    @ 4-byte Reload
	strb	r1, [r0]
.Ltmp37:
	.loc	3 132 17 is_stmt 1              @ ../Firmware/GD32E23x_standard_peripheral/Source/gd32e23x_rtc.c:132:17
	ldrb	r0, [r0]
.Ltmp38:
	.loc	3 132 8 is_stmt 0               @ ../Firmware/GD32E23x_standard_peripheral/Source/gd32e23x_rtc.c:132:8
	cbz	r0, .LBB3_2
	b	.LBB3_1
.LBB3_1:
.Ltmp39:
	.loc	3 133 30 is_stmt 1              @ ../Firmware/GD32E23x_standard_peripheral/Source/gd32e23x_rtc.c:133:30
	ldr	r1, [sp, #20]
	ldrh	r0, [r1, #8]
	lsls	r0, r0, #16
	.loc	3 134 35                        @ ../Firmware/GD32E23x_standard_peripheral/Source/gd32e23x_rtc.c:134:35
	ldrh	r1, [r1, #10]
	.loc	3 133 30                        @ ../Firmware/GD32E23x_standard_peripheral/Source/gd32e23x_rtc.c:133:30
	adds	r0, r0, r1
	ldr	r1, __arm_cp.3_1
	.loc	3 133 80 is_stmt 0              @ ../Firmware/GD32E23x_standard_peripheral/Source/gd32e23x_rtc.c:133:80
	ands	r0, r1
	ldr	r1, __arm_cp.3_2
	.loc	3 133 17                        @ ../Firmware/GD32E23x_standard_peripheral/Source/gd32e23x_rtc.c:133:17
	str	r0, [r1]
	.loc	3 136 30 is_stmt 1              @ ../Firmware/GD32E23x_standard_peripheral/Source/gd32e23x_rtc.c:136:30
	ldr	r0, [sp, #12]
	ldr	r1, __arm_cp.3_3
	.loc	3 136 18 is_stmt 0              @ ../Firmware/GD32E23x_standard_peripheral/Source/gd32e23x_rtc.c:136:18
	str	r0, [r1]
	.loc	3 137 30 is_stmt 1              @ ../Firmware/GD32E23x_standard_peripheral/Source/gd32e23x_rtc.c:137:30
	ldr	r0, [sp, #8]
	ldr	r1, __arm_cp.3_4
	.loc	3 137 18 is_stmt 0              @ ../Firmware/GD32E23x_standard_peripheral/Source/gd32e23x_rtc.c:137:18
	str	r0, [r1]
	ldr	r1, __arm_cp.3_5
	.loc	3 139 17 is_stmt 1              @ ../Firmware/GD32E23x_standard_peripheral/Source/gd32e23x_rtc.c:139:17
	ldr	r0, [r1]
	movs	r2, #64
	bics	r0, r2
	str	r0, [r1]
	.loc	3 140 21                        @ ../Firmware/GD32E23x_standard_peripheral/Source/gd32e23x_rtc.c:140:21
	ldr	r0, [sp, #20]
	.loc	3 140 42 is_stmt 0              @ ../Firmware/GD32E23x_standard_peripheral/Source/gd32e23x_rtc.c:140:42
	ldr	r2, [r0, #16]
	.loc	3 140 17                        @ ../Firmware/GD32E23x_standard_peripheral/Source/gd32e23x_rtc.c:140:17
	ldr	r0, [r1]
	orrs	r0, r2
	str	r0, [r1]
	.loc	3 143 9 is_stmt 1               @ ../Firmware/GD32E23x_standard_peripheral/Source/gd32e23x_rtc.c:143:9
	bl	rtc_init_mode_exit
	.loc	3 146 24                        @ ../Firmware/GD32E23x_standard_peripheral/Source/gd32e23x_rtc.c:146:24
	bl	rtc_register_sync_wait
	add	r1, sp, #16
	.loc	3 146 22 is_stmt 0              @ ../Firmware/GD32E23x_standard_peripheral/Source/gd32e23x_rtc.c:146:22
	strb	r0, [r1]
	.loc	3 147 5 is_stmt 1               @ ../Firmware/GD32E23x_standard_peripheral/Source/gd32e23x_rtc.c:147:5
	b	.LBB3_2
.Ltmp40:
.LBB3_2:
	.loc	3 0 5 is_stmt 0                 @ ../Firmware/GD32E23x_standard_peripheral/Source/gd32e23x_rtc.c:0:5
	ldr	r1, __arm_cp.3_0
	movs	r0, #255
	.loc	3 150 13 is_stmt 1              @ ../Firmware/GD32E23x_standard_peripheral/Source/gd32e23x_rtc.c:150:13
	str	r0, [r1]
	add	r0, sp, #16
	.loc	3 152 12                        @ ../Firmware/GD32E23x_standard_peripheral/Source/gd32e23x_rtc.c:152:12
	ldrb	r0, [r0]
	.loc	3 152 5 is_stmt 0               @ ../Firmware/GD32E23x_standard_peripheral/Source/gd32e23x_rtc.c:152:5
	add	sp, #24
	pop	{r7, pc}
.Ltmp41:
	.p2align	2
@ %bb.3:
	.loc	3 0 5                           @ ../Firmware/GD32E23x_standard_peripheral/Source/gd32e23x_rtc.c:0:5
__arm_cp.3_0:
	.long	1073752100                      @ 0x40002824
.Lcpi_end17:
	.size	__arm_cp.3_0, .Lcpi_end17-__arm_cp.3_0
__arm_cp.3_1:
	.long	8355839                         @ 0x7f7fff
.Lcpi_end18:
	.size	__arm_cp.3_1, .Lcpi_end18-__arm_cp.3_1
__arm_cp.3_2:
	.long	1073752080                      @ 0x40002810
.Lcpi_end19:
	.size	__arm_cp.3_2, .Lcpi_end19-__arm_cp.3_2
__arm_cp.3_3:
	.long	1073752064                      @ 0x40002800
.Lcpi_end20:
	.size	__arm_cp.3_3, .Lcpi_end20-__arm_cp.3_3
__arm_cp.3_4:
	.long	1073752068                      @ 0x40002804
.Lcpi_end21:
	.size	__arm_cp.3_4, .Lcpi_end21-__arm_cp.3_4
__arm_cp.3_5:
	.long	1073752072                      @ 0x40002808
.Lcpi_end22:
	.size	__arm_cp.3_5, .Lcpi_end22-__arm_cp.3_5
.Lfunc_end3:
	.size	rtc_init, .Lfunc_end3-rtc_init
	.cfi_endproc
	.cantunwind
	.fnend
                                        @ -- End function
	.section	.text.rtc_init_mode_exit,"ax",%progbits
	.hidden	rtc_init_mode_exit              @ -- Begin function rtc_init_mode_exit
	.globl	rtc_init_mode_exit
	.p2align	2
	.type	rtc_init_mode_exit,%function
	.code	16                              @ @rtc_init_mode_exit
	.thumb_func
rtc_init_mode_exit:
.Lfunc_begin4:
	.loc	3 192 0 is_stmt 1               @ ../Firmware/GD32E23x_standard_peripheral/Source/gd32e23x_rtc.c:192:0
	.fnstart
	.cfi_startproc
@ %bb.0:
	ldr	r1, __arm_cp.4_0
.Ltmp42:
	.loc	3 193 14 prologue_end           @ ../Firmware/GD32E23x_standard_peripheral/Source/gd32e23x_rtc.c:193:14
	ldr	r0, [r1]
	movs	r2, #128
	bics	r0, r2
	str	r0, [r1]
	.loc	3 194 1                         @ ../Firmware/GD32E23x_standard_peripheral/Source/gd32e23x_rtc.c:194:1
	bx	lr
.Ltmp43:
	.p2align	2
@ %bb.1:
	.loc	3 0 1 is_stmt 0                 @ ../Firmware/GD32E23x_standard_peripheral/Source/gd32e23x_rtc.c:0:1
__arm_cp.4_0:
	.long	1073752076                      @ 0x4000280c
.Lcpi_end23:
	.size	__arm_cp.4_0, .Lcpi_end23-__arm_cp.4_0
.Lfunc_end4:
	.size	rtc_init_mode_exit, .Lfunc_end4-rtc_init_mode_exit
	.cfi_endproc
	.cantunwind
	.fnend
                                        @ -- End function
	.section	.text.rtc_current_time_get,"ax",%progbits
	.hidden	rtc_current_time_get            @ -- Begin function rtc_current_time_get
	.globl	rtc_current_time_get
	.p2align	2
	.type	rtc_current_time_get,%function
	.code	16                              @ @rtc_current_time_get
	.thumb_func
rtc_current_time_get:
.Lfunc_begin5:
	.loc	3 257 0 is_stmt 1               @ ../Firmware/GD32E23x_standard_peripheral/Source/gd32e23x_rtc.c:257:0
	.fnstart
	.cfi_startproc
@ %bb.0:
	.pad	#20
	sub	sp, #20
	.cfi_def_cfa_offset 20
	str	r0, [sp, #16]
	movs	r0, #0
.Ltmp44:
	.loc	3 258 14 prologue_end           @ ../Firmware/GD32E23x_standard_peripheral/Source/gd32e23x_rtc.c:258:14
	str	r0, [sp, #12]
	.loc	3 258 31 is_stmt 0              @ ../Firmware/GD32E23x_standard_peripheral/Source/gd32e23x_rtc.c:258:31
	str	r0, [sp, #8]
	.loc	3 258 48                        @ ../Firmware/GD32E23x_standard_peripheral/Source/gd32e23x_rtc.c:258:48
	str	r0, [sp, #4]
	.loc	3 258 67                        @ ../Firmware/GD32E23x_standard_peripheral/Source/gd32e23x_rtc.c:258:67
	str	r0, [sp]
	ldr	r0, __arm_cp.5_0
	.loc	3 260 25 is_stmt 1              @ ../Firmware/GD32E23x_standard_peripheral/Source/gd32e23x_rtc.c:260:25
	ldr	r0, [r0]
	.loc	3 260 13 is_stmt 0              @ ../Firmware/GD32E23x_standard_peripheral/Source/gd32e23x_rtc.c:260:13
	str	r0, [sp, #12]
	ldr	r0, __arm_cp.5_1
	.loc	3 261 25 is_stmt 1              @ ../Firmware/GD32E23x_standard_peripheral/Source/gd32e23x_rtc.c:261:25
	ldr	r0, [r0]
	.loc	3 261 13 is_stmt 0              @ ../Firmware/GD32E23x_standard_peripheral/Source/gd32e23x_rtc.c:261:13
	str	r0, [sp, #8]
	ldr	r0, __arm_cp.5_2
	.loc	3 262 27 is_stmt 1              @ ../Firmware/GD32E23x_standard_peripheral/Source/gd32e23x_rtc.c:262:27
	ldr	r0, [r0]
	.loc	3 262 15 is_stmt 0              @ ../Firmware/GD32E23x_standard_peripheral/Source/gd32e23x_rtc.c:262:15
	str	r0, [sp, #4]
	ldr	r0, __arm_cp.5_3
	.loc	3 263 27 is_stmt 1              @ ../Firmware/GD32E23x_standard_peripheral/Source/gd32e23x_rtc.c:263:27
	ldr	r0, [r0]
	.loc	3 263 15 is_stmt 0              @ ../Firmware/GD32E23x_standard_peripheral/Source/gd32e23x_rtc.c:263:15
	str	r0, [sp]
	add	r0, sp, #8
	.loc	3 266 46 is_stmt 1              @ ../Firmware/GD32E23x_standard_peripheral/Source/gd32e23x_rtc.c:266:46
	ldrh	r1, [r0, #2]
	.loc	3 266 5 is_stmt 0               @ ../Firmware/GD32E23x_standard_peripheral/Source/gd32e23x_rtc.c:266:5
	ldr	r2, [sp, #16]
	.loc	3 266 35                        @ ../Firmware/GD32E23x_standard_peripheral/Source/gd32e23x_rtc.c:266:35
	strb	r1, [r2]
	.loc	3 267 47 is_stmt 1              @ ../Firmware/GD32E23x_standard_peripheral/Source/gd32e23x_rtc.c:267:47
	ldr	r1, [sp, #8]
	movw	r2, #7936
	ands	r1, r2
	lsrs	r1, r1, #8
	.loc	3 267 5 is_stmt 0               @ ../Firmware/GD32E23x_standard_peripheral/Source/gd32e23x_rtc.c:267:5
	ldr	r2, [sp, #16]
	.loc	3 267 36                        @ ../Firmware/GD32E23x_standard_peripheral/Source/gd32e23x_rtc.c:267:36
	strb	r1, [r2, #1]
	.loc	3 268 46 is_stmt 1              @ ../Firmware/GD32E23x_standard_peripheral/Source/gd32e23x_rtc.c:268:46
	ldr	r2, [sp, #8]
	movs	r1, #63
	ands	r2, r1
	.loc	3 268 5 is_stmt 0               @ ../Firmware/GD32E23x_standard_peripheral/Source/gd32e23x_rtc.c:268:5
	ldr	r3, [sp, #16]
	.loc	3 268 35                        @ ../Firmware/GD32E23x_standard_peripheral/Source/gd32e23x_rtc.c:268:35
	strb	r2, [r3, #2]
	.loc	3 269 53 is_stmt 1              @ ../Firmware/GD32E23x_standard_peripheral/Source/gd32e23x_rtc.c:269:53
	ldrh	r0, [r0]
	lsrs	r0, r0, #13
	.loc	3 269 5 is_stmt 0               @ ../Firmware/GD32E23x_standard_peripheral/Source/gd32e23x_rtc.c:269:5
	ldr	r2, [sp, #16]
	.loc	3 269 42                        @ ../Firmware/GD32E23x_standard_peripheral/Source/gd32e23x_rtc.c:269:42
	strb	r0, [r2, #3]
	.loc	3 270 46 is_stmt 1              @ ../Firmware/GD32E23x_standard_peripheral/Source/gd32e23x_rtc.c:270:46
	ldr	r0, [sp, #12]
	lsls	r1, r1, #16
	ands	r0, r1
	lsrs	r0, r0, #16
	.loc	3 270 5 is_stmt 0               @ ../Firmware/GD32E23x_standard_peripheral/Source/gd32e23x_rtc.c:270:5
	ldr	r1, [sp, #16]
	.loc	3 270 35                        @ ../Firmware/GD32E23x_standard_peripheral/Source/gd32e23x_rtc.c:270:35
	strb	r0, [r1, #4]
	.loc	3 271 48 is_stmt 1              @ ../Firmware/GD32E23x_standard_peripheral/Source/gd32e23x_rtc.c:271:48
	ldr	r0, [sp, #12]
	movw	r1, #32512
	ands	r0, r1
	lsrs	r0, r0, #8
	.loc	3 271 5 is_stmt 0               @ ../Firmware/GD32E23x_standard_peripheral/Source/gd32e23x_rtc.c:271:5
	ldr	r1, [sp, #16]
	.loc	3 271 37                        @ ../Firmware/GD32E23x_standard_peripheral/Source/gd32e23x_rtc.c:271:37
	strb	r0, [r1, #5]
	.loc	3 272 48 is_stmt 1              @ ../Firmware/GD32E23x_standard_peripheral/Source/gd32e23x_rtc.c:272:48
	ldr	r0, [sp, #12]
	movs	r1, #127
	ands	r0, r1
	.loc	3 272 5 is_stmt 0               @ ../Firmware/GD32E23x_standard_peripheral/Source/gd32e23x_rtc.c:272:5
	ldr	r2, [sp, #16]
	.loc	3 272 37                        @ ../Firmware/GD32E23x_standard_peripheral/Source/gd32e23x_rtc.c:272:37
	strb	r0, [r2, #6]
	.loc	3 273 54 is_stmt 1              @ ../Firmware/GD32E23x_standard_peripheral/Source/gd32e23x_rtc.c:273:54
	ldr	r0, [sp, #4]
	lsls	r1, r1, #16
	ands	r0, r1
	lsrs	r0, r0, #16
	.loc	3 273 5 is_stmt 0               @ ../Firmware/GD32E23x_standard_peripheral/Source/gd32e23x_rtc.c:273:5
	ldr	r1, [sp, #16]
	.loc	3 273 42                        @ ../Firmware/GD32E23x_standard_peripheral/Source/gd32e23x_rtc.c:273:42
	strh	r0, [r1, #8]
	.loc	3 274 53 is_stmt 1              @ ../Firmware/GD32E23x_standard_peripheral/Source/gd32e23x_rtc.c:274:53
	ldr	r0, [sp, #4]
	ldr	r1, __arm_cp.5_4
	ands	r0, r1
	.loc	3 274 5 is_stmt 0               @ ../Firmware/GD32E23x_standard_peripheral/Source/gd32e23x_rtc.c:274:5
	ldr	r1, [sp, #16]
	.loc	3 274 41                        @ ../Firmware/GD32E23x_standard_peripheral/Source/gd32e23x_rtc.c:274:41
	strh	r0, [r1, #10]
	.loc	3 275 49 is_stmt 1              @ ../Firmware/GD32E23x_standard_peripheral/Source/gd32e23x_rtc.c:275:49
	ldr	r0, [sp, #12]
	movs	r1, #1
	lsls	r1, r1, #22
	.loc	3 275 57 is_stmt 0              @ ../Firmware/GD32E23x_standard_peripheral/Source/gd32e23x_rtc.c:275:57
	ands	r0, r1
	.loc	3 275 5                         @ ../Firmware/GD32E23x_standard_peripheral/Source/gd32e23x_rtc.c:275:5
	ldr	r1, [sp, #16]
	.loc	3 275 36                        @ ../Firmware/GD32E23x_standard_peripheral/Source/gd32e23x_rtc.c:275:36
	str	r0, [r1, #12]
	.loc	3 276 58 is_stmt 1              @ ../Firmware/GD32E23x_standard_peripheral/Source/gd32e23x_rtc.c:276:58
	ldr	r0, [sp]
	movs	r1, #64
	.loc	3 276 68 is_stmt 0              @ ../Firmware/GD32E23x_standard_peripheral/Source/gd32e23x_rtc.c:276:68
	ands	r0, r1
	.loc	3 276 5                         @ ../Firmware/GD32E23x_standard_peripheral/Source/gd32e23x_rtc.c:276:5
	ldr	r1, [sp, #16]
	.loc	3 276 45                        @ ../Firmware/GD32E23x_standard_peripheral/Source/gd32e23x_rtc.c:276:45
	str	r0, [r1, #16]
	.loc	3 277 1 is_stmt 1               @ ../Firmware/GD32E23x_standard_peripheral/Source/gd32e23x_rtc.c:277:1
	add	sp, #20
	bx	lr
.Ltmp45:
	.p2align	2
@ %bb.1:
	.loc	3 0 1 is_stmt 0                 @ ../Firmware/GD32E23x_standard_peripheral/Source/gd32e23x_rtc.c:0:1
__arm_cp.5_0:
	.long	1073752064                      @ 0x40002800
.Lcpi_end24:
	.size	__arm_cp.5_0, .Lcpi_end24-__arm_cp.5_0
__arm_cp.5_1:
	.long	1073752068                      @ 0x40002804
.Lcpi_end25:
	.size	__arm_cp.5_1, .Lcpi_end25-__arm_cp.5_1
__arm_cp.5_2:
	.long	1073752080                      @ 0x40002810
.Lcpi_end26:
	.size	__arm_cp.5_2, .Lcpi_end26-__arm_cp.5_2
__arm_cp.5_3:
	.long	1073752072                      @ 0x40002808
.Lcpi_end27:
	.size	__arm_cp.5_3, .Lcpi_end27-__arm_cp.5_3
__arm_cp.5_4:
	.long	32767                           @ 0x7fff
.Lcpi_end28:
	.size	__arm_cp.5_4, .Lcpi_end28-__arm_cp.5_4
.Lfunc_end5:
	.size	rtc_current_time_get, .Lfunc_end5-rtc_current_time_get
	.cfi_endproc
	.cantunwind
	.fnend
                                        @ -- End function
	.section	.text.rtc_subsecond_get,"ax",%progbits
	.hidden	rtc_subsecond_get               @ -- Begin function rtc_subsecond_get
	.globl	rtc_subsecond_get
	.p2align	2
	.type	rtc_subsecond_get,%function
	.code	16                              @ @rtc_subsecond_get
	.thumb_func
rtc_subsecond_get:
.Lfunc_begin6:
	.loc	3 286 0 is_stmt 1               @ ../Firmware/GD32E23x_standard_peripheral/Source/gd32e23x_rtc.c:286:0
	.fnstart
	.cfi_startproc
@ %bb.0:
	.pad	#4
	sub	sp, #4
	.cfi_def_cfa_offset 4
	movs	r0, #0
.Ltmp46:
	.loc	3 287 14 prologue_end           @ ../Firmware/GD32E23x_standard_peripheral/Source/gd32e23x_rtc.c:287:14
	str	r0, [sp]
	ldr	r0, __arm_cp.6_0
	.loc	3 289 21                        @ ../Firmware/GD32E23x_standard_peripheral/Source/gd32e23x_rtc.c:289:21
	ldr	r0, [r0]
	.loc	3 289 9 is_stmt 0               @ ../Firmware/GD32E23x_standard_peripheral/Source/gd32e23x_rtc.c:289:9
	str	r0, [sp]
	ldr	r0, __arm_cp.6_1
	.loc	3 291 13 is_stmt 1              @ ../Firmware/GD32E23x_standard_peripheral/Source/gd32e23x_rtc.c:291:13
	ldr	r0, [r0]
	.loc	3 293 12                        @ ../Firmware/GD32E23x_standard_peripheral/Source/gd32e23x_rtc.c:293:12
	ldr	r0, [sp]
	.loc	3 293 5 is_stmt 0               @ ../Firmware/GD32E23x_standard_peripheral/Source/gd32e23x_rtc.c:293:5
	add	sp, #4
	bx	lr
.Ltmp47:
	.p2align	2
@ %bb.1:
	.loc	3 0 5                           @ ../Firmware/GD32E23x_standard_peripheral/Source/gd32e23x_rtc.c:0:5
__arm_cp.6_0:
	.long	1073752104                      @ 0x40002828
.Lcpi_end29:
	.size	__arm_cp.6_0, .Lcpi_end29-__arm_cp.6_0
__arm_cp.6_1:
	.long	1073752068                      @ 0x40002804
.Lcpi_end30:
	.size	__arm_cp.6_1, .Lcpi_end30-__arm_cp.6_1
.Lfunc_end6:
	.size	rtc_subsecond_get, .Lfunc_end6-rtc_subsecond_get
	.cfi_endproc
	.cantunwind
	.fnend
                                        @ -- End function
	.section	.text.rtc_alarm_config,"ax",%progbits
	.hidden	rtc_alarm_config                @ -- Begin function rtc_alarm_config
	.globl	rtc_alarm_config
	.p2align	2
	.type	rtc_alarm_config,%function
	.code	16                              @ @rtc_alarm_config
	.thumb_func
rtc_alarm_config:
.Lfunc_begin7:
	.loc	3 315 0 is_stmt 1               @ ../Firmware/GD32E23x_standard_peripheral/Source/gd32e23x_rtc.c:315:0
	.fnstart
	.cfi_startproc
@ %bb.0:
	.pad	#8
	sub	sp, #8
	.cfi_def_cfa_offset 8
	str	r0, [sp, #4]
	movs	r0, #0
.Ltmp48:
	.loc	3 316 14 prologue_end           @ ../Firmware/GD32E23x_standard_peripheral/Source/gd32e23x_rtc.c:316:14
	str	r0, [sp]
	.loc	3 318 20                        @ ../Firmware/GD32E23x_standard_peripheral/Source/gd32e23x_rtc.c:318:20
	ldr	r1, [sp, #4]
	.loc	3 318 36 is_stmt 0              @ ../Firmware/GD32E23x_standard_peripheral/Source/gd32e23x_rtc.c:318:36
	ldr	r0, [r1]
	.loc	3 319 34 is_stmt 1              @ ../Firmware/GD32E23x_standard_peripheral/Source/gd32e23x_rtc.c:319:34
	ldr	r2, [r1, #4]
	.loc	3 318 51                        @ ../Firmware/GD32E23x_standard_peripheral/Source/gd32e23x_rtc.c:318:51
	orrs	r0, r2
	.loc	3 320 34                        @ ../Firmware/GD32E23x_standard_peripheral/Source/gd32e23x_rtc.c:320:34
	ldr	r2, [r1, #12]
	.loc	3 319 54                        @ ../Firmware/GD32E23x_standard_peripheral/Source/gd32e23x_rtc.c:319:54
	orrs	r0, r2
	.loc	3 321 18                        @ ../Firmware/GD32E23x_standard_peripheral/Source/gd32e23x_rtc.c:321:18
	ldrb	r2, [r1, #8]
	lsls	r2, r2, #26
	lsrs	r2, r2, #2
	.loc	3 320 44                        @ ../Firmware/GD32E23x_standard_peripheral/Source/gd32e23x_rtc.c:320:44
	orrs	r0, r2
	.loc	3 322 18                        @ ../Firmware/GD32E23x_standard_peripheral/Source/gd32e23x_rtc.c:322:18
	ldrb	r2, [r1, #9]
	lsls	r2, r2, #26
	lsrs	r2, r2, #10
	.loc	3 321 61                        @ ../Firmware/GD32E23x_standard_peripheral/Source/gd32e23x_rtc.c:321:61
	orrs	r0, r2
	.loc	3 323 18                        @ ../Firmware/GD32E23x_standard_peripheral/Source/gd32e23x_rtc.c:323:18
	ldrb	r2, [r1, #10]
	lsls	r2, r2, #25
	lsrs	r2, r2, #17
	.loc	3 322 61                        @ ../Firmware/GD32E23x_standard_peripheral/Source/gd32e23x_rtc.c:322:61
	orrs	r0, r2
	.loc	3 324 18                        @ ../Firmware/GD32E23x_standard_peripheral/Source/gd32e23x_rtc.c:324:18
	ldrb	r1, [r1, #11]
	movs	r2, #127
	ands	r1, r2
	.loc	3 323 63                        @ ../Firmware/GD32E23x_standard_peripheral/Source/gd32e23x_rtc.c:323:63
	orrs	r0, r1
	.loc	3 318 17                        @ ../Firmware/GD32E23x_standard_peripheral/Source/gd32e23x_rtc.c:318:17
	str	r0, [sp]
	ldr	r1, __arm_cp.7_0
	movs	r0, #202
	.loc	3 327 13                        @ ../Firmware/GD32E23x_standard_peripheral/Source/gd32e23x_rtc.c:327:13
	str	r0, [r1]
	movs	r0, #83
	.loc	3 328 13                        @ ../Firmware/GD32E23x_standard_peripheral/Source/gd32e23x_rtc.c:328:13
	str	r0, [r1]
	.loc	3 330 29                        @ ../Firmware/GD32E23x_standard_peripheral/Source/gd32e23x_rtc.c:330:29
	ldr	r0, [sp]
	ldr	r2, __arm_cp.7_1
	.loc	3 330 17 is_stmt 0              @ ../Firmware/GD32E23x_standard_peripheral/Source/gd32e23x_rtc.c:330:17
	str	r0, [r2]
	movs	r0, #255
	.loc	3 333 13 is_stmt 1              @ ../Firmware/GD32E23x_standard_peripheral/Source/gd32e23x_rtc.c:333:13
	str	r0, [r1]
	.loc	3 334 1                         @ ../Firmware/GD32E23x_standard_peripheral/Source/gd32e23x_rtc.c:334:1
	add	sp, #8
	bx	lr
.Ltmp49:
	.p2align	2
@ %bb.1:
	.loc	3 0 1 is_stmt 0                 @ ../Firmware/GD32E23x_standard_peripheral/Source/gd32e23x_rtc.c:0:1
__arm_cp.7_0:
	.long	1073752100                      @ 0x40002824
.Lcpi_end31:
	.size	__arm_cp.7_0, .Lcpi_end31-__arm_cp.7_0
__arm_cp.7_1:
	.long	1073752092                      @ 0x4000281c
.Lcpi_end32:
	.size	__arm_cp.7_1, .Lcpi_end32-__arm_cp.7_1
.Lfunc_end7:
	.size	rtc_alarm_config, .Lfunc_end7-rtc_alarm_config
	.cfi_endproc
	.cantunwind
	.fnend
                                        @ -- End function
	.section	.text.rtc_alarm_subsecond_config,"ax",%progbits
	.hidden	rtc_alarm_subsecond_config      @ -- Begin function rtc_alarm_subsecond_config
	.globl	rtc_alarm_subsecond_config
	.p2align	2
	.type	rtc_alarm_subsecond_config,%function
	.code	16                              @ @rtc_alarm_subsecond_config
	.thumb_func
rtc_alarm_subsecond_config:
.Lfunc_begin8:
	.loc	3 361 0 is_stmt 1               @ ../Firmware/GD32E23x_standard_peripheral/Source/gd32e23x_rtc.c:361:0
	.fnstart
	.cfi_startproc
@ %bb.0:
	.pad	#8
	sub	sp, #8
	.cfi_def_cfa_offset 8
	str	r0, [sp, #4]
	str	r1, [sp]
	ldr	r1, __arm_cp.8_0
	movs	r0, #202
.Ltmp50:
	.loc	3 363 13 prologue_end           @ ../Firmware/GD32E23x_standard_peripheral/Source/gd32e23x_rtc.c:363:13
	str	r0, [r1]
	movs	r0, #83
	.loc	3 364 13                        @ ../Firmware/GD32E23x_standard_peripheral/Source/gd32e23x_rtc.c:364:13
	str	r0, [r1]
	.loc	3 366 19                        @ ../Firmware/GD32E23x_standard_peripheral/Source/gd32e23x_rtc.c:366:19
	ldr	r0, [sp, #4]
	.loc	3 366 36 is_stmt 0              @ ../Firmware/GD32E23x_standard_peripheral/Source/gd32e23x_rtc.c:366:36
	ldr	r2, [sp]
	.loc	3 366 34                        @ ../Firmware/GD32E23x_standard_peripheral/Source/gd32e23x_rtc.c:366:34
	orrs	r0, r2
	ldr	r2, __arm_cp.8_1
	.loc	3 366 17                        @ ../Firmware/GD32E23x_standard_peripheral/Source/gd32e23x_rtc.c:366:17
	str	r0, [r2]
	movs	r0, #255
	.loc	3 369 13 is_stmt 1              @ ../Firmware/GD32E23x_standard_peripheral/Source/gd32e23x_rtc.c:369:13
	str	r0, [r1]
	.loc	3 370 1                         @ ../Firmware/GD32E23x_standard_peripheral/Source/gd32e23x_rtc.c:370:1
	add	sp, #8
	bx	lr
.Ltmp51:
	.p2align	2
@ %bb.1:
	.loc	3 0 1 is_stmt 0                 @ ../Firmware/GD32E23x_standard_peripheral/Source/gd32e23x_rtc.c:0:1
__arm_cp.8_0:
	.long	1073752100                      @ 0x40002824
.Lcpi_end33:
	.size	__arm_cp.8_0, .Lcpi_end33-__arm_cp.8_0
__arm_cp.8_1:
	.long	1073752132                      @ 0x40002844
.Lcpi_end34:
	.size	__arm_cp.8_1, .Lcpi_end34-__arm_cp.8_1
.Lfunc_end8:
	.size	rtc_alarm_subsecond_config, .Lfunc_end8-rtc_alarm_subsecond_config
	.cfi_endproc
	.cantunwind
	.fnend
                                        @ -- End function
	.section	.text.rtc_alarm_enable,"ax",%progbits
	.hidden	rtc_alarm_enable                @ -- Begin function rtc_alarm_enable
	.globl	rtc_alarm_enable
	.p2align	2
	.type	rtc_alarm_enable,%function
	.code	16                              @ @rtc_alarm_enable
	.thumb_func
rtc_alarm_enable:
.Lfunc_begin9:
	.loc	3 379 0 is_stmt 1               @ ../Firmware/GD32E23x_standard_peripheral/Source/gd32e23x_rtc.c:379:0
	.fnstart
	.cfi_startproc
@ %bb.0:
	ldr	r1, __arm_cp.9_0
	movs	r0, #202
.Ltmp52:
	.loc	3 381 13 prologue_end           @ ../Firmware/GD32E23x_standard_peripheral/Source/gd32e23x_rtc.c:381:13
	str	r0, [r1]
	movs	r0, #83
	.loc	3 382 13                        @ ../Firmware/GD32E23x_standard_peripheral/Source/gd32e23x_rtc.c:382:13
	str	r0, [r1]
	ldr	r2, __arm_cp.9_1
	.loc	3 384 13                        @ ../Firmware/GD32E23x_standard_peripheral/Source/gd32e23x_rtc.c:384:13
	ldr	r0, [r2]
	movw	r3, #256
	orrs	r0, r3
	str	r0, [r2]
	movs	r0, #255
	.loc	3 387 13                        @ ../Firmware/GD32E23x_standard_peripheral/Source/gd32e23x_rtc.c:387:13
	str	r0, [r1]
	.loc	3 388 1                         @ ../Firmware/GD32E23x_standard_peripheral/Source/gd32e23x_rtc.c:388:1
	bx	lr
.Ltmp53:
	.p2align	2
@ %bb.1:
	.loc	3 0 1 is_stmt 0                 @ ../Firmware/GD32E23x_standard_peripheral/Source/gd32e23x_rtc.c:0:1
__arm_cp.9_0:
	.long	1073752100                      @ 0x40002824
.Lcpi_end35:
	.size	__arm_cp.9_0, .Lcpi_end35-__arm_cp.9_0
__arm_cp.9_1:
	.long	1073752072                      @ 0x40002808
.Lcpi_end36:
	.size	__arm_cp.9_1, .Lcpi_end36-__arm_cp.9_1
.Lfunc_end9:
	.size	rtc_alarm_enable, .Lfunc_end9-rtc_alarm_enable
	.cfi_endproc
	.cantunwind
	.fnend
                                        @ -- End function
	.section	.text.rtc_alarm_disable,"ax",%progbits
	.hidden	rtc_alarm_disable               @ -- Begin function rtc_alarm_disable
	.globl	rtc_alarm_disable
	.p2align	2
	.type	rtc_alarm_disable,%function
	.code	16                              @ @rtc_alarm_disable
	.thumb_func
rtc_alarm_disable:
.Lfunc_begin10:
	.loc	3 397 0 is_stmt 1               @ ../Firmware/GD32E23x_standard_peripheral/Source/gd32e23x_rtc.c:397:0
	.fnstart
	.cfi_startproc
@ %bb.0:
	.pad	#16
	sub	sp, #16
	.cfi_def_cfa_offset 16
	movw	r0, #32768
.Ltmp54:
	.loc	3 398 23 prologue_end           @ ../Firmware/GD32E23x_standard_peripheral/Source/gd32e23x_rtc.c:398:23
	str	r0, [sp, #12]
	add	r1, sp, #8
	movs	r0, #0
	.loc	3 399 15                        @ ../Firmware/GD32E23x_standard_peripheral/Source/gd32e23x_rtc.c:399:15
	strb	r0, [r1]
	.loc	3 400 14                        @ ../Firmware/GD32E23x_standard_peripheral/Source/gd32e23x_rtc.c:400:14
	str	r0, [sp, #4]
	ldr	r1, __arm_cp.10_0
	movs	r0, #202
	.loc	3 403 13                        @ ../Firmware/GD32E23x_standard_peripheral/Source/gd32e23x_rtc.c:403:13
	str	r0, [r1]
	movs	r0, #83
	.loc	3 404 13                        @ ../Firmware/GD32E23x_standard_peripheral/Source/gd32e23x_rtc.c:404:13
	str	r0, [r1]
	ldr	r1, __arm_cp.10_1
	.loc	3 407 13                        @ ../Firmware/GD32E23x_standard_peripheral/Source/gd32e23x_rtc.c:407:13
	ldr	r0, [r1]
	movw	r2, #256
	bics	r0, r2
	str	r0, [r1]
	.loc	3 410 5                         @ ../Firmware/GD32E23x_standard_peripheral/Source/gd32e23x_rtc.c:410:5
	b	.LBB10_1
.LBB10_1:                               @ =>This Inner Loop Header: Depth=1
	.loc	3 0 5 is_stmt 0                 @ ../Firmware/GD32E23x_standard_peripheral/Source/gd32e23x_rtc.c:0:5
	ldr	r0, __arm_cp.10_2
.Ltmp55:
	.loc	3 411 23 is_stmt 1              @ ../Firmware/GD32E23x_standard_peripheral/Source/gd32e23x_rtc.c:411:23
	ldr	r0, [r0]
	movs	r1, #1
	.loc	3 411 32 is_stmt 0              @ ../Firmware/GD32E23x_standard_peripheral/Source/gd32e23x_rtc.c:411:32
	ands	r0, r1
	.loc	3 411 21                        @ ../Firmware/GD32E23x_standard_peripheral/Source/gd32e23x_rtc.c:411:21
	str	r0, [sp, #4]
	.loc	3 412 5 is_stmt 1               @ ../Firmware/GD32E23x_standard_peripheral/Source/gd32e23x_rtc.c:412:5
	b	.LBB10_2
.Ltmp56:
.LBB10_2:                               @   in Loop: Header=BB10_1 Depth=1
	.loc	3 412 13 is_stmt 0              @ ../Firmware/GD32E23x_standard_peripheral/Source/gd32e23x_rtc.c:412:13
	ldr	r0, [sp, #12]
	subs	r1, r0, #1
	str	r1, [sp, #12]
	movs	r0, #0
	.loc	3 412 35                        @ ../Firmware/GD32E23x_standard_peripheral/Source/gd32e23x_rtc.c:412:35
	str	r0, [sp]                        @ 4-byte Spill
	cbz	r1, .LBB10_4
	b	.LBB10_3
.LBB10_3:                               @   in Loop: Header=BB10_1 Depth=1
	.loc	3 412 58                        @ ../Firmware/GD32E23x_standard_peripheral/Source/gd32e23x_rtc.c:412:58
	ldr	r0, [sp, #4]
	.loc	3 412 55                        @ ../Firmware/GD32E23x_standard_peripheral/Source/gd32e23x_rtc.c:412:55
	rsbs	r1, r0, #0
	adcs	r0, r1
	str	r0, [sp]                        @ 4-byte Spill
	b	.LBB10_4
.LBB10_4:                               @   in Loop: Header=BB10_1 Depth=1
	.loc	3 0 0                           @ ../Firmware/GD32E23x_standard_peripheral/Source/gd32e23x_rtc.c:0:0
	ldr	r0, [sp]                        @ 4-byte Reload
.Ltmp57:
	.loc	3 412 5                         @ ../Firmware/GD32E23x_standard_peripheral/Source/gd32e23x_rtc.c:412:5
	lsls	r0, r0, #31
	cmp	r0, #0
	bne	.LBB10_1
	b	.LBB10_5
.Ltmp58:
.LBB10_5:
	.loc	3 414 27 is_stmt 1              @ ../Firmware/GD32E23x_standard_peripheral/Source/gd32e23x_rtc.c:414:27
	ldr	r0, [sp, #4]
.Ltmp59:
	.loc	3 414 8 is_stmt 0               @ ../Firmware/GD32E23x_standard_peripheral/Source/gd32e23x_rtc.c:414:8
	cbz	r0, .LBB10_7
	b	.LBB10_6
.LBB10_6:
	.loc	3 0 8                           @ ../Firmware/GD32E23x_standard_peripheral/Source/gd32e23x_rtc.c:0:8
	add	r1, sp, #8
	movs	r0, #1
.Ltmp60:
	.loc	3 415 22 is_stmt 1              @ ../Firmware/GD32E23x_standard_peripheral/Source/gd32e23x_rtc.c:415:22
	strb	r0, [r1]
	.loc	3 416 5                         @ ../Firmware/GD32E23x_standard_peripheral/Source/gd32e23x_rtc.c:416:5
	b	.LBB10_7
.Ltmp61:
.LBB10_7:
	.loc	3 0 5 is_stmt 0                 @ ../Firmware/GD32E23x_standard_peripheral/Source/gd32e23x_rtc.c:0:5
	ldr	r1, __arm_cp.10_0
	movs	r0, #255
	.loc	3 419 13 is_stmt 1              @ ../Firmware/GD32E23x_standard_peripheral/Source/gd32e23x_rtc.c:419:13
	str	r0, [r1]
	add	r0, sp, #8
	.loc	3 421 12                        @ ../Firmware/GD32E23x_standard_peripheral/Source/gd32e23x_rtc.c:421:12
	ldrb	r0, [r0]
	.loc	3 421 5 is_stmt 0               @ ../Firmware/GD32E23x_standard_peripheral/Source/gd32e23x_rtc.c:421:5
	add	sp, #16
	bx	lr
.Ltmp62:
	.p2align	2
@ %bb.8:
	.loc	3 0 5                           @ ../Firmware/GD32E23x_standard_peripheral/Source/gd32e23x_rtc.c:0:5
__arm_cp.10_0:
	.long	1073752100                      @ 0x40002824
.Lcpi_end37:
	.size	__arm_cp.10_0, .Lcpi_end37-__arm_cp.10_0
__arm_cp.10_1:
	.long	1073752072                      @ 0x40002808
.Lcpi_end38:
	.size	__arm_cp.10_1, .Lcpi_end38-__arm_cp.10_1
__arm_cp.10_2:
	.long	1073752076                      @ 0x4000280c
.Lcpi_end39:
	.size	__arm_cp.10_2, .Lcpi_end39-__arm_cp.10_2
.Lfunc_end10:
	.size	rtc_alarm_disable, .Lfunc_end10-rtc_alarm_disable
	.cfi_endproc
	.cantunwind
	.fnend
                                        @ -- End function
	.section	.text.rtc_alarm_get,"ax",%progbits
	.hidden	rtc_alarm_get                   @ -- Begin function rtc_alarm_get
	.globl	rtc_alarm_get
	.p2align	2
	.type	rtc_alarm_get,%function
	.code	16                              @ @rtc_alarm_get
	.thumb_func
rtc_alarm_get:
.Lfunc_begin11:
	.loc	3 443 0 is_stmt 1               @ ../Firmware/GD32E23x_standard_peripheral/Source/gd32e23x_rtc.c:443:0
	.fnstart
	.cfi_startproc
@ %bb.0:
	.pad	#8
	sub	sp, #8
	.cfi_def_cfa_offset 8
	str	r0, [sp, #4]
	movs	r0, #0
.Ltmp63:
	.loc	3 444 14 prologue_end           @ ../Firmware/GD32E23x_standard_peripheral/Source/gd32e23x_rtc.c:444:14
	str	r0, [sp]
	ldr	r0, __arm_cp.11_0
	.loc	3 447 19                        @ ../Firmware/GD32E23x_standard_peripheral/Source/gd32e23x_rtc.c:447:19
	ldr	r0, [r0]
	.loc	3 447 17 is_stmt 0              @ ../Firmware/GD32E23x_standard_peripheral/Source/gd32e23x_rtc.c:447:17
	str	r0, [sp]
	.loc	3 450 38 is_stmt 1              @ ../Firmware/GD32E23x_standard_peripheral/Source/gd32e23x_rtc.c:450:38
	ldr	r0, [sp]
	ldr	r1, __arm_cp.11_1
	.loc	3 450 50 is_stmt 0              @ ../Firmware/GD32E23x_standard_peripheral/Source/gd32e23x_rtc.c:450:50
	ands	r0, r1
	.loc	3 450 5                         @ ../Firmware/GD32E23x_standard_peripheral/Source/gd32e23x_rtc.c:450:5
	ldr	r1, [sp, #4]
	.loc	3 450 36                        @ ../Firmware/GD32E23x_standard_peripheral/Source/gd32e23x_rtc.c:450:36
	str	r0, [r1]
	.loc	3 451 44 is_stmt 1              @ ../Firmware/GD32E23x_standard_peripheral/Source/gd32e23x_rtc.c:451:44
	ldr	r0, [sp]
	movs	r1, #1
	lsls	r2, r1, #22
	.loc	3 451 56 is_stmt 0              @ ../Firmware/GD32E23x_standard_peripheral/Source/gd32e23x_rtc.c:451:56
	ands	r0, r2
	.loc	3 451 5                         @ ../Firmware/GD32E23x_standard_peripheral/Source/gd32e23x_rtc.c:451:5
	ldr	r2, [sp, #4]
	.loc	3 451 31                        @ ../Firmware/GD32E23x_standard_peripheral/Source/gd32e23x_rtc.c:451:31
	str	r0, [r2, #12]
	.loc	3 452 54 is_stmt 1              @ ../Firmware/GD32E23x_standard_peripheral/Source/gd32e23x_rtc.c:452:54
	ldr	r0, [sp]
	lsls	r1, r1, #30
	.loc	3 452 66 is_stmt 0              @ ../Firmware/GD32E23x_standard_peripheral/Source/gd32e23x_rtc.c:452:66
	ands	r0, r1
	.loc	3 452 5                         @ ../Firmware/GD32E23x_standard_peripheral/Source/gd32e23x_rtc.c:452:5
	ldr	r1, [sp, #4]
	.loc	3 452 41                        @ ../Firmware/GD32E23x_standard_peripheral/Source/gd32e23x_rtc.c:452:41
	str	r0, [r1, #4]
	.loc	3 453 46 is_stmt 1              @ ../Firmware/GD32E23x_standard_peripheral/Source/gd32e23x_rtc.c:453:46
	ldr	r0, [sp]
	movs	r1, #63
	lsls	r2, r1, #24
	ands	r0, r2
	lsrs	r0, r0, #24
	.loc	3 453 5 is_stmt 0               @ ../Firmware/GD32E23x_standard_peripheral/Source/gd32e23x_rtc.c:453:5
	ldr	r2, [sp, #4]
	.loc	3 453 35                        @ ../Firmware/GD32E23x_standard_peripheral/Source/gd32e23x_rtc.c:453:35
	strb	r0, [r2, #8]
	.loc	3 454 47 is_stmt 1              @ ../Firmware/GD32E23x_standard_peripheral/Source/gd32e23x_rtc.c:454:47
	ldr	r0, [sp]
	lsls	r1, r1, #16
	ands	r0, r1
	lsrs	r0, r0, #16
	.loc	3 454 5 is_stmt 0               @ ../Firmware/GD32E23x_standard_peripheral/Source/gd32e23x_rtc.c:454:5
	ldr	r1, [sp, #4]
	.loc	3 454 36                        @ ../Firmware/GD32E23x_standard_peripheral/Source/gd32e23x_rtc.c:454:36
	strb	r0, [r1, #9]
	.loc	3 455 49 is_stmt 1              @ ../Firmware/GD32E23x_standard_peripheral/Source/gd32e23x_rtc.c:455:49
	ldr	r0, [sp]
	movw	r1, #32512
	ands	r0, r1
	lsrs	r0, r0, #8
	.loc	3 455 5 is_stmt 0               @ ../Firmware/GD32E23x_standard_peripheral/Source/gd32e23x_rtc.c:455:5
	ldr	r1, [sp, #4]
	.loc	3 455 38                        @ ../Firmware/GD32E23x_standard_peripheral/Source/gd32e23x_rtc.c:455:38
	strb	r0, [r1, #10]
	.loc	3 456 49 is_stmt 1              @ ../Firmware/GD32E23x_standard_peripheral/Source/gd32e23x_rtc.c:456:49
	ldr	r0, [sp]
	movs	r1, #127
	ands	r0, r1
	.loc	3 456 5 is_stmt 0               @ ../Firmware/GD32E23x_standard_peripheral/Source/gd32e23x_rtc.c:456:5
	ldr	r1, [sp, #4]
	.loc	3 456 38                        @ ../Firmware/GD32E23x_standard_peripheral/Source/gd32e23x_rtc.c:456:38
	strb	r0, [r1, #11]
	.loc	3 457 1 is_stmt 1               @ ../Firmware/GD32E23x_standard_peripheral/Source/gd32e23x_rtc.c:457:1
	add	sp, #8
	bx	lr
.Ltmp64:
	.p2align	2
@ %bb.1:
	.loc	3 0 1 is_stmt 0                 @ ../Firmware/GD32E23x_standard_peripheral/Source/gd32e23x_rtc.c:0:1
__arm_cp.11_0:
	.long	1073752092                      @ 0x4000281c
.Lcpi_end40:
	.size	__arm_cp.11_0, .Lcpi_end40-__arm_cp.11_0
__arm_cp.11_1:
	.long	2155905152                      @ 0x80808080
.Lcpi_end41:
	.size	__arm_cp.11_1, .Lcpi_end41-__arm_cp.11_1
.Lfunc_end11:
	.size	rtc_alarm_get, .Lfunc_end11-rtc_alarm_get
	.cfi_endproc
	.cantunwind
	.fnend
                                        @ -- End function
	.section	.text.rtc_alarm_subsecond_get,"ax",%progbits
	.hidden	rtc_alarm_subsecond_get         @ -- Begin function rtc_alarm_subsecond_get
	.globl	rtc_alarm_subsecond_get
	.p2align	2
	.type	rtc_alarm_subsecond_get,%function
	.code	16                              @ @rtc_alarm_subsecond_get
	.thumb_func
rtc_alarm_subsecond_get:
.Lfunc_begin12:
	.loc	3 466 0 is_stmt 1               @ ../Firmware/GD32E23x_standard_peripheral/Source/gd32e23x_rtc.c:466:0
	.fnstart
	.cfi_startproc
@ %bb.0:
	ldr	r0, __arm_cp.12_0
.Ltmp65:
	.loc	3 467 24 prologue_end           @ ../Firmware/GD32E23x_standard_peripheral/Source/gd32e23x_rtc.c:467:24
	ldr	r0, [r0]
	ldr	r1, __arm_cp.12_1
	.loc	3 467 36 is_stmt 0              @ ../Firmware/GD32E23x_standard_peripheral/Source/gd32e23x_rtc.c:467:36
	ands	r0, r1
	.loc	3 467 5                         @ ../Firmware/GD32E23x_standard_peripheral/Source/gd32e23x_rtc.c:467:5
	bx	lr
.Ltmp66:
	.p2align	2
@ %bb.1:
	.loc	3 0 5                           @ ../Firmware/GD32E23x_standard_peripheral/Source/gd32e23x_rtc.c:0:5
__arm_cp.12_0:
	.long	1073752132                      @ 0x40002844
.Lcpi_end42:
	.size	__arm_cp.12_0, .Lcpi_end42-__arm_cp.12_0
__arm_cp.12_1:
	.long	32767                           @ 0x7fff
.Lcpi_end43:
	.size	__arm_cp.12_1, .Lcpi_end43-__arm_cp.12_1
.Lfunc_end12:
	.size	rtc_alarm_subsecond_get, .Lfunc_end12-rtc_alarm_subsecond_get
	.cfi_endproc
	.cantunwind
	.fnend
                                        @ -- End function
	.section	.text.rtc_timestamp_enable,"ax",%progbits
	.hidden	rtc_timestamp_enable            @ -- Begin function rtc_timestamp_enable
	.globl	rtc_timestamp_enable
	.p2align	2
	.type	rtc_timestamp_enable,%function
	.code	16                              @ @rtc_timestamp_enable
	.thumb_func
rtc_timestamp_enable:
.Lfunc_begin13:
	.loc	3 480 0 is_stmt 1               @ ../Firmware/GD32E23x_standard_peripheral/Source/gd32e23x_rtc.c:480:0
	.fnstart
	.cfi_startproc
@ %bb.0:
	.pad	#8
	sub	sp, #8
	.cfi_def_cfa_offset 8
	str	r0, [sp, #4]
	movs	r0, #0
.Ltmp67:
	.loc	3 481 14 prologue_end           @ ../Firmware/GD32E23x_standard_peripheral/Source/gd32e23x_rtc.c:481:14
	str	r0, [sp]
	ldr	r2, __arm_cp.13_0
	.loc	3 484 26                        @ ../Firmware/GD32E23x_standard_peripheral/Source/gd32e23x_rtc.c:484:26
	ldr	r0, [r2]
	ldr	r1, __arm_cp.13_1
	.loc	3 484 34 is_stmt 0              @ ../Firmware/GD32E23x_standard_peripheral/Source/gd32e23x_rtc.c:484:34
	ands	r0, r1
	.loc	3 484 13                        @ ../Firmware/GD32E23x_standard_peripheral/Source/gd32e23x_rtc.c:484:13
	str	r0, [sp]
	.loc	3 487 27 is_stmt 1              @ ../Firmware/GD32E23x_standard_peripheral/Source/gd32e23x_rtc.c:487:27
	ldr	r0, [sp, #4]
	.loc	3 487 13 is_stmt 0              @ ../Firmware/GD32E23x_standard_peripheral/Source/gd32e23x_rtc.c:487:13
	ldr	r1, [sp]
	.loc	3 487 32                        @ ../Firmware/GD32E23x_standard_peripheral/Source/gd32e23x_rtc.c:487:32
	orrs	r0, r1
	movw	r1, #2048
	.loc	3 487 13                        @ ../Firmware/GD32E23x_standard_peripheral/Source/gd32e23x_rtc.c:487:13
	orrs	r0, r1
	str	r0, [sp]
	ldr	r1, __arm_cp.13_2
	movs	r0, #202
	.loc	3 490 13 is_stmt 1              @ ../Firmware/GD32E23x_standard_peripheral/Source/gd32e23x_rtc.c:490:13
	str	r0, [r1]
	movs	r0, #83
	.loc	3 491 13                        @ ../Firmware/GD32E23x_standard_peripheral/Source/gd32e23x_rtc.c:491:13
	str	r0, [r1]
	.loc	3 493 25                        @ ../Firmware/GD32E23x_standard_peripheral/Source/gd32e23x_rtc.c:493:25
	ldr	r0, [sp]
	.loc	3 493 13 is_stmt 0              @ ../Firmware/GD32E23x_standard_peripheral/Source/gd32e23x_rtc.c:493:13
	str	r0, [r2]
	movs	r0, #255
	.loc	3 496 13 is_stmt 1              @ ../Firmware/GD32E23x_standard_peripheral/Source/gd32e23x_rtc.c:496:13
	str	r0, [r1]
	.loc	3 497 1                         @ ../Firmware/GD32E23x_standard_peripheral/Source/gd32e23x_rtc.c:497:1
	add	sp, #8
	bx	lr
.Ltmp68:
	.p2align	2
@ %bb.1:
	.loc	3 0 1 is_stmt 0                 @ ../Firmware/GD32E23x_standard_peripheral/Source/gd32e23x_rtc.c:0:1
__arm_cp.13_0:
	.long	1073752072                      @ 0x40002808
.Lcpi_end44:
	.size	__arm_cp.13_0, .Lcpi_end44-__arm_cp.13_0
__arm_cp.13_1:
	.long	4294965239                      @ 0xfffff7f7
.Lcpi_end45:
	.size	__arm_cp.13_1, .Lcpi_end45-__arm_cp.13_1
__arm_cp.13_2:
	.long	1073752100                      @ 0x40002824
.Lcpi_end46:
	.size	__arm_cp.13_2, .Lcpi_end46-__arm_cp.13_2
.Lfunc_end13:
	.size	rtc_timestamp_enable, .Lfunc_end13-rtc_timestamp_enable
	.cfi_endproc
	.cantunwind
	.fnend
                                        @ -- End function
	.section	.text.rtc_timestamp_disable,"ax",%progbits
	.hidden	rtc_timestamp_disable           @ -- Begin function rtc_timestamp_disable
	.globl	rtc_timestamp_disable
	.p2align	2
	.type	rtc_timestamp_disable,%function
	.code	16                              @ @rtc_timestamp_disable
	.thumb_func
rtc_timestamp_disable:
.Lfunc_begin14:
	.loc	3 506 0 is_stmt 1               @ ../Firmware/GD32E23x_standard_peripheral/Source/gd32e23x_rtc.c:506:0
	.fnstart
	.cfi_startproc
@ %bb.0:
	ldr	r1, __arm_cp.14_0
	movs	r0, #202
.Ltmp69:
	.loc	3 508 13 prologue_end           @ ../Firmware/GD32E23x_standard_peripheral/Source/gd32e23x_rtc.c:508:13
	str	r0, [r1]
	movs	r0, #83
	.loc	3 509 13                        @ ../Firmware/GD32E23x_standard_peripheral/Source/gd32e23x_rtc.c:509:13
	str	r0, [r1]
	ldr	r2, __arm_cp.14_1
	.loc	3 512 13                        @ ../Firmware/GD32E23x_standard_peripheral/Source/gd32e23x_rtc.c:512:13
	ldr	r0, [r2]
	movw	r3, #2048
	bics	r0, r3
	str	r0, [r2]
	movs	r0, #255
	.loc	3 515 13                        @ ../Firmware/GD32E23x_standard_peripheral/Source/gd32e23x_rtc.c:515:13
	str	r0, [r1]
	.loc	3 516 1                         @ ../Firmware/GD32E23x_standard_peripheral/Source/gd32e23x_rtc.c:516:1
	bx	lr
.Ltmp70:
	.p2align	2
@ %bb.1:
	.loc	3 0 1 is_stmt 0                 @ ../Firmware/GD32E23x_standard_peripheral/Source/gd32e23x_rtc.c:0:1
__arm_cp.14_0:
	.long	1073752100                      @ 0x40002824
.Lcpi_end47:
	.size	__arm_cp.14_0, .Lcpi_end47-__arm_cp.14_0
__arm_cp.14_1:
	.long	1073752072                      @ 0x40002808
.Lcpi_end48:
	.size	__arm_cp.14_1, .Lcpi_end48-__arm_cp.14_1
.Lfunc_end14:
	.size	rtc_timestamp_disable, .Lfunc_end14-rtc_timestamp_disable
	.cfi_endproc
	.cantunwind
	.fnend
                                        @ -- End function
	.section	.text.rtc_timestamp_get,"ax",%progbits
	.hidden	rtc_timestamp_get               @ -- Begin function rtc_timestamp_get
	.globl	rtc_timestamp_get
	.p2align	2
	.type	rtc_timestamp_get,%function
	.code	16                              @ @rtc_timestamp_get
	.thumb_func
rtc_timestamp_get:
.Lfunc_begin15:
	.loc	3 536 0 is_stmt 1               @ ../Firmware/GD32E23x_standard_peripheral/Source/gd32e23x_rtc.c:536:0
	.fnstart
	.cfi_startproc
@ %bb.0:
	.pad	#12
	sub	sp, #12
	.cfi_def_cfa_offset 12
	str	r0, [sp, #8]
	movs	r0, #0
.Ltmp71:
	.loc	3 537 14 prologue_end           @ ../Firmware/GD32E23x_standard_peripheral/Source/gd32e23x_rtc.c:537:14
	str	r0, [sp, #4]
	.loc	3 537 32 is_stmt 0              @ ../Firmware/GD32E23x_standard_peripheral/Source/gd32e23x_rtc.c:537:32
	str	r0, [sp]
	ldr	r0, __arm_cp.15_0
	.loc	3 540 26 is_stmt 1              @ ../Firmware/GD32E23x_standard_peripheral/Source/gd32e23x_rtc.c:540:26
	ldr	r0, [r0]
	.loc	3 540 14 is_stmt 0              @ ../Firmware/GD32E23x_standard_peripheral/Source/gd32e23x_rtc.c:540:14
	str	r0, [sp, #4]
	ldr	r0, __arm_cp.15_1
	.loc	3 541 26 is_stmt 1              @ ../Firmware/GD32E23x_standard_peripheral/Source/gd32e23x_rtc.c:541:26
	ldr	r0, [r0]
	.loc	3 541 14 is_stmt 0              @ ../Firmware/GD32E23x_standard_peripheral/Source/gd32e23x_rtc.c:541:14
	str	r0, [sp]
	.loc	3 544 43 is_stmt 1              @ ../Firmware/GD32E23x_standard_peripheral/Source/gd32e23x_rtc.c:544:43
	ldr	r0, [sp, #4]
	movs	r1, #1
	lsls	r1, r1, #22
	.loc	3 544 52 is_stmt 0              @ ../Firmware/GD32E23x_standard_peripheral/Source/gd32e23x_rtc.c:544:52
	ands	r0, r1
	.loc	3 544 5                         @ ../Firmware/GD32E23x_standard_peripheral/Source/gd32e23x_rtc.c:544:5
	ldr	r1, [sp, #8]
	.loc	3 544 30                        @ ../Firmware/GD32E23x_standard_peripheral/Source/gd32e23x_rtc.c:544:30
	str	r0, [r1, #8]
	.loc	3 545 51 is_stmt 1              @ ../Firmware/GD32E23x_standard_peripheral/Source/gd32e23x_rtc.c:545:51
	ldr	r0, [sp]
	movw	r1, #7936
	ands	r0, r1
	lsrs	r0, r0, #8
	.loc	3 545 5 is_stmt 0               @ ../Firmware/GD32E23x_standard_peripheral/Source/gd32e23x_rtc.c:545:5
	ldr	r1, [sp, #8]
	.loc	3 545 40                        @ ../Firmware/GD32E23x_standard_peripheral/Source/gd32e23x_rtc.c:545:40
	strb	r0, [r1]
	.loc	3 546 50 is_stmt 1              @ ../Firmware/GD32E23x_standard_peripheral/Source/gd32e23x_rtc.c:546:50
	ldr	r0, [sp]
	movs	r1, #63
	ands	r0, r1
	.loc	3 546 5 is_stmt 0               @ ../Firmware/GD32E23x_standard_peripheral/Source/gd32e23x_rtc.c:546:5
	ldr	r2, [sp, #8]
	.loc	3 546 39                        @ ../Firmware/GD32E23x_standard_peripheral/Source/gd32e23x_rtc.c:546:39
	strb	r0, [r2, #1]
	mov	r0, sp
	.loc	3 547 49 is_stmt 1              @ ../Firmware/GD32E23x_standard_peripheral/Source/gd32e23x_rtc.c:547:49
	ldrh	r0, [r0]
	lsrs	r0, r0, #13
	.loc	3 547 5 is_stmt 0               @ ../Firmware/GD32E23x_standard_peripheral/Source/gd32e23x_rtc.c:547:5
	ldr	r2, [sp, #8]
	.loc	3 547 38                        @ ../Firmware/GD32E23x_standard_peripheral/Source/gd32e23x_rtc.c:547:38
	strb	r0, [r2, #2]
	.loc	3 548 50 is_stmt 1              @ ../Firmware/GD32E23x_standard_peripheral/Source/gd32e23x_rtc.c:548:50
	ldr	r0, [sp, #4]
	lsls	r1, r1, #16
	ands	r0, r1
	lsrs	r0, r0, #16
	.loc	3 548 5 is_stmt 0               @ ../Firmware/GD32E23x_standard_peripheral/Source/gd32e23x_rtc.c:548:5
	ldr	r1, [sp, #8]
	.loc	3 548 39                        @ ../Firmware/GD32E23x_standard_peripheral/Source/gd32e23x_rtc.c:548:39
	strb	r0, [r1, #3]
	.loc	3 549 52 is_stmt 1              @ ../Firmware/GD32E23x_standard_peripheral/Source/gd32e23x_rtc.c:549:52
	ldr	r0, [sp, #4]
	movw	r1, #32512
	ands	r0, r1
	lsrs	r0, r0, #8
	.loc	3 549 5 is_stmt 0               @ ../Firmware/GD32E23x_standard_peripheral/Source/gd32e23x_rtc.c:549:5
	ldr	r1, [sp, #8]
	.loc	3 549 41                        @ ../Firmware/GD32E23x_standard_peripheral/Source/gd32e23x_rtc.c:549:41
	strb	r0, [r1, #4]
	.loc	3 550 52 is_stmt 1              @ ../Firmware/GD32E23x_standard_peripheral/Source/gd32e23x_rtc.c:550:52
	ldr	r0, [sp, #4]
	movs	r1, #127
	ands	r0, r1
	.loc	3 550 5 is_stmt 0               @ ../Firmware/GD32E23x_standard_peripheral/Source/gd32e23x_rtc.c:550:5
	ldr	r1, [sp, #8]
	.loc	3 550 41                        @ ../Firmware/GD32E23x_standard_peripheral/Source/gd32e23x_rtc.c:550:41
	strb	r0, [r1, #5]
	.loc	3 551 1 is_stmt 1               @ ../Firmware/GD32E23x_standard_peripheral/Source/gd32e23x_rtc.c:551:1
	add	sp, #12
	bx	lr
.Ltmp72:
	.p2align	2
@ %bb.1:
	.loc	3 0 1 is_stmt 0                 @ ../Firmware/GD32E23x_standard_peripheral/Source/gd32e23x_rtc.c:0:1
__arm_cp.15_0:
	.long	1073752112                      @ 0x40002830
.Lcpi_end49:
	.size	__arm_cp.15_0, .Lcpi_end49-__arm_cp.15_0
__arm_cp.15_1:
	.long	1073752116                      @ 0x40002834
.Lcpi_end50:
	.size	__arm_cp.15_1, .Lcpi_end50-__arm_cp.15_1
.Lfunc_end15:
	.size	rtc_timestamp_get, .Lfunc_end15-rtc_timestamp_get
	.cfi_endproc
	.cantunwind
	.fnend
                                        @ -- End function
	.section	.text.rtc_timestamp_subsecond_get,"ax",%progbits
	.hidden	rtc_timestamp_subsecond_get     @ -- Begin function rtc_timestamp_subsecond_get
	.globl	rtc_timestamp_subsecond_get
	.p2align	2
	.type	rtc_timestamp_subsecond_get,%function
	.code	16                              @ @rtc_timestamp_subsecond_get
	.thumb_func
rtc_timestamp_subsecond_get:
.Lfunc_begin16:
	.loc	3 560 0 is_stmt 1               @ ../Firmware/GD32E23x_standard_peripheral/Source/gd32e23x_rtc.c:560:0
	.fnstart
	.cfi_startproc
@ %bb.0:
	ldr	r0, __arm_cp.16_0
.Ltmp73:
	.loc	3 561 23 prologue_end           @ ../Firmware/GD32E23x_standard_peripheral/Source/gd32e23x_rtc.c:561:23
	ldr	r0, [r0]
	.loc	3 561 5 is_stmt 0               @ ../Firmware/GD32E23x_standard_peripheral/Source/gd32e23x_rtc.c:561:5
	bx	lr
.Ltmp74:
	.p2align	2
@ %bb.1:
	.loc	3 0 5                           @ ../Firmware/GD32E23x_standard_peripheral/Source/gd32e23x_rtc.c:0:5
__arm_cp.16_0:
	.long	1073752120                      @ 0x40002838
.Lcpi_end51:
	.size	__arm_cp.16_0, .Lcpi_end51-__arm_cp.16_0
.Lfunc_end16:
	.size	rtc_timestamp_subsecond_get, .Lfunc_end16-rtc_timestamp_subsecond_get
	.cfi_endproc
	.cantunwind
	.fnend
                                        @ -- End function
	.section	.text.rtc_tamper_enable,"ax",%progbits
	.hidden	rtc_tamper_enable               @ -- Begin function rtc_tamper_enable
	.globl	rtc_tamper_enable
	.p2align	2
	.type	rtc_tamper_enable,%function
	.code	16                              @ @rtc_tamper_enable
	.thumb_func
rtc_tamper_enable:
.Lfunc_begin17:
	.loc	3 584 0 is_stmt 1               @ ../Firmware/GD32E23x_standard_peripheral/Source/gd32e23x_rtc.c:584:0
	.fnstart
	.cfi_startproc
@ %bb.0:
	.pad	#4
	sub	sp, #4
	.cfi_def_cfa_offset 4
	str	r0, [sp]
.Ltmp75:
	.loc	3 586 29 prologue_end           @ ../Firmware/GD32E23x_standard_peripheral/Source/gd32e23x_rtc.c:586:29
	ldr	r0, [sp]
	.loc	3 586 41 is_stmt 0              @ ../Firmware/GD32E23x_standard_peripheral/Source/gd32e23x_rtc.c:586:41
	ldr	r2, [r0]
	ldr	r1, __arm_cp.17_0
	.loc	3 586 14                        @ ../Firmware/GD32E23x_standard_peripheral/Source/gd32e23x_rtc.c:586:14
	ldr	r0, [r1]
	bics	r0, r2
	str	r0, [r1]
	.loc	3 589 14 is_stmt 1              @ ../Firmware/GD32E23x_standard_peripheral/Source/gd32e23x_rtc.c:589:14
	ldr	r0, [r1]
	movw	r2, #6144
	bics	r0, r2
	str	r0, [r1]
.Ltmp76:
	.loc	3 592 8                         @ ../Firmware/GD32E23x_standard_peripheral/Source/gd32e23x_rtc.c:592:8
	ldr	r0, [sp]
	.loc	3 592 20 is_stmt 0              @ ../Firmware/GD32E23x_standard_peripheral/Source/gd32e23x_rtc.c:592:20
	ldr	r0, [r0, #8]
.Ltmp77:
	.loc	3 592 8                         @ ../Firmware/GD32E23x_standard_peripheral/Source/gd32e23x_rtc.c:592:8
	cbz	r0, .LBB17_5
	b	.LBB17_1
.LBB17_1:
	.loc	3 0 8                           @ ../Firmware/GD32E23x_standard_peripheral/Source/gd32e23x_rtc.c:0:8
	ldr	r1, __arm_cp.17_0
.Ltmp78:
	.loc	3 593 18 is_stmt 1              @ ../Firmware/GD32E23x_standard_peripheral/Source/gd32e23x_rtc.c:593:18
	ldr	r0, [r1]
	movw	r2, #65280
	bics	r0, r2
	str	r0, [r1]
.Ltmp79:
	.loc	3 596 23                        @ ../Firmware/GD32E23x_standard_peripheral/Source/gd32e23x_rtc.c:596:23
	ldr	r0, [sp]
	.loc	3 596 35 is_stmt 0              @ ../Firmware/GD32E23x_standard_peripheral/Source/gd32e23x_rtc.c:596:35
	ldrb	r0, [r0, #16]
.Ltmp80:
	.loc	3 596 12                        @ ../Firmware/GD32E23x_standard_peripheral/Source/gd32e23x_rtc.c:596:12
	cbnz	r0, .LBB17_3
	b	.LBB17_2
.LBB17_2:
	.loc	3 0 12                          @ ../Firmware/GD32E23x_standard_peripheral/Source/gd32e23x_rtc.c:0:12
	ldr	r1, __arm_cp.17_0
.Ltmp81:
	.loc	3 597 22 is_stmt 1              @ ../Firmware/GD32E23x_standard_peripheral/Source/gd32e23x_rtc.c:597:22
	ldr	r0, [r1]
	movw	r2, #32768
	orrs	r0, r2
	str	r0, [r1]
	.loc	3 598 9                         @ ../Firmware/GD32E23x_standard_peripheral/Source/gd32e23x_rtc.c:598:9
	b	.LBB17_4
.Ltmp82:
.LBB17_3:
	.loc	3 599 36                        @ ../Firmware/GD32E23x_standard_peripheral/Source/gd32e23x_rtc.c:599:36
	ldr	r0, [sp]
	.loc	3 599 48 is_stmt 0              @ ../Firmware/GD32E23x_standard_peripheral/Source/gd32e23x_rtc.c:599:48
	ldr	r2, [r0, #20]
	ldr	r1, __arm_cp.17_0
	.loc	3 599 22                        @ ../Firmware/GD32E23x_standard_peripheral/Source/gd32e23x_rtc.c:599:22
	ldr	r0, [r1]
	orrs	r0, r2
	str	r0, [r1]
	b	.LBB17_4
.Ltmp83:
.LBB17_4:
	.loc	3 602 32 is_stmt 1              @ ../Firmware/GD32E23x_standard_peripheral/Source/gd32e23x_rtc.c:602:32
	ldr	r0, [sp]
	.loc	3 602 44 is_stmt 0              @ ../Firmware/GD32E23x_standard_peripheral/Source/gd32e23x_rtc.c:602:44
	ldr	r2, [r0, #12]
	ldr	r1, __arm_cp.17_0
	.loc	3 602 18                        @ ../Firmware/GD32E23x_standard_peripheral/Source/gd32e23x_rtc.c:602:18
	ldr	r0, [r1]
	orrs	r0, r2
	str	r0, [r1]
	.loc	3 603 32 is_stmt 1              @ ../Firmware/GD32E23x_standard_peripheral/Source/gd32e23x_rtc.c:603:32
	ldr	r0, [sp]
	.loc	3 603 44 is_stmt 0              @ ../Firmware/GD32E23x_standard_peripheral/Source/gd32e23x_rtc.c:603:44
	ldr	r2, [r0, #8]
	.loc	3 603 18                        @ ../Firmware/GD32E23x_standard_peripheral/Source/gd32e23x_rtc.c:603:18
	ldr	r0, [r1]
	orrs	r0, r2
	str	r0, [r1]
	.loc	3 604 5 is_stmt 1               @ ../Firmware/GD32E23x_standard_peripheral/Source/gd32e23x_rtc.c:604:5
	b	.LBB17_5
.Ltmp84:
.LBB17_5:
	.loc	3 0 5 is_stmt 0                 @ ../Firmware/GD32E23x_standard_peripheral/Source/gd32e23x_rtc.c:0:5
	ldr	r1, __arm_cp.17_0
	.loc	3 605 14 is_stmt 1              @ ../Firmware/GD32E23x_standard_peripheral/Source/gd32e23x_rtc.c:605:14
	ldr	r0, [r1]
	movs	r2, #128
	bics	r0, r2
	str	r0, [r1]
.Ltmp85:
	.loc	3 607 19                        @ ../Firmware/GD32E23x_standard_peripheral/Source/gd32e23x_rtc.c:607:19
	ldr	r0, [sp]
	.loc	3 607 31 is_stmt 0              @ ../Firmware/GD32E23x_standard_peripheral/Source/gd32e23x_rtc.c:607:31
	ldrb	r0, [r0, #24]
.Ltmp86:
	.loc	3 607 8                         @ ../Firmware/GD32E23x_standard_peripheral/Source/gd32e23x_rtc.c:607:8
	cbz	r0, .LBB17_7
	b	.LBB17_6
.LBB17_6:
	.loc	3 0 8                           @ ../Firmware/GD32E23x_standard_peripheral/Source/gd32e23x_rtc.c:0:8
	ldr	r1, __arm_cp.17_0
.Ltmp87:
	.loc	3 609 18 is_stmt 1              @ ../Firmware/GD32E23x_standard_peripheral/Source/gd32e23x_rtc.c:609:18
	ldr	r0, [r1]
	movs	r2, #128
	orrs	r0, r2
	str	r0, [r1]
	.loc	3 610 5                         @ ../Firmware/GD32E23x_standard_peripheral/Source/gd32e23x_rtc.c:610:5
	b	.LBB17_7
.Ltmp88:
.LBB17_7:
	.loc	3 612 31                        @ ../Firmware/GD32E23x_standard_peripheral/Source/gd32e23x_rtc.c:612:31
	ldr	r0, [sp]
	.loc	3 612 43 is_stmt 0              @ ../Firmware/GD32E23x_standard_peripheral/Source/gd32e23x_rtc.c:612:43
	ldr	r0, [r0]
	.loc	3 612 62                        @ ../Firmware/GD32E23x_standard_peripheral/Source/gd32e23x_rtc.c:612:62
	lsls	r2, r0, #1
	ldr	r1, __arm_cp.17_0
	.loc	3 612 14                        @ ../Firmware/GD32E23x_standard_peripheral/Source/gd32e23x_rtc.c:612:14
	ldr	r0, [r1]
	bics	r0, r2
	str	r0, [r1]
.Ltmp89:
	.loc	3 613 42 is_stmt 1              @ ../Firmware/GD32E23x_standard_peripheral/Source/gd32e23x_rtc.c:613:42
	ldr	r0, [sp]
	.loc	3 613 54 is_stmt 0              @ ../Firmware/GD32E23x_standard_peripheral/Source/gd32e23x_rtc.c:613:54
	ldr	r0, [r0, #4]
.Ltmp90:
	.loc	3 613 8                         @ ../Firmware/GD32E23x_standard_peripheral/Source/gd32e23x_rtc.c:613:8
	cbz	r0, .LBB17_9
	b	.LBB17_8
.LBB17_8:
.Ltmp91:
	.loc	3 614 33 is_stmt 1              @ ../Firmware/GD32E23x_standard_peripheral/Source/gd32e23x_rtc.c:614:33
	ldr	r0, [sp]
	.loc	3 614 45 is_stmt 0              @ ../Firmware/GD32E23x_standard_peripheral/Source/gd32e23x_rtc.c:614:45
	ldr	r0, [r0]
	.loc	3 614 63                        @ ../Firmware/GD32E23x_standard_peripheral/Source/gd32e23x_rtc.c:614:63
	lsls	r2, r0, #1
	ldr	r1, __arm_cp.17_0
	.loc	3 614 18                        @ ../Firmware/GD32E23x_standard_peripheral/Source/gd32e23x_rtc.c:614:18
	ldr	r0, [r1]
	orrs	r0, r2
	str	r0, [r1]
	.loc	3 615 5 is_stmt 1               @ ../Firmware/GD32E23x_standard_peripheral/Source/gd32e23x_rtc.c:615:5
	b	.LBB17_9
.Ltmp92:
.LBB17_9:
	.loc	3 617 29                        @ ../Firmware/GD32E23x_standard_peripheral/Source/gd32e23x_rtc.c:617:29
	ldr	r0, [sp]
	.loc	3 617 41 is_stmt 0              @ ../Firmware/GD32E23x_standard_peripheral/Source/gd32e23x_rtc.c:617:41
	ldr	r2, [r0]
	ldr	r1, __arm_cp.17_0
	.loc	3 617 14                        @ ../Firmware/GD32E23x_standard_peripheral/Source/gd32e23x_rtc.c:617:14
	ldr	r0, [r1]
	orrs	r0, r2
	str	r0, [r1]
	.loc	3 618 1 is_stmt 1               @ ../Firmware/GD32E23x_standard_peripheral/Source/gd32e23x_rtc.c:618:1
	add	sp, #4
	bx	lr
.Ltmp93:
	.p2align	2
@ %bb.10:
	.loc	3 0 1 is_stmt 0                 @ ../Firmware/GD32E23x_standard_peripheral/Source/gd32e23x_rtc.c:0:1
__arm_cp.17_0:
	.long	1073752128                      @ 0x40002840
.Lcpi_end52:
	.size	__arm_cp.17_0, .Lcpi_end52-__arm_cp.17_0
.Lfunc_end17:
	.size	rtc_tamper_enable, .Lfunc_end17-rtc_tamper_enable
	.cfi_endproc
	.cantunwind
	.fnend
                                        @ -- End function
	.section	.text.rtc_tamper_disable,"ax",%progbits
	.hidden	rtc_tamper_disable              @ -- Begin function rtc_tamper_disable
	.globl	rtc_tamper_disable
	.p2align	2
	.type	rtc_tamper_disable,%function
	.code	16                              @ @rtc_tamper_disable
	.thumb_func
rtc_tamper_disable:
.Lfunc_begin18:
	.loc	3 630 0 is_stmt 1               @ ../Firmware/GD32E23x_standard_peripheral/Source/gd32e23x_rtc.c:630:0
	.fnstart
	.cfi_startproc
@ %bb.0:
	.pad	#4
	sub	sp, #4
	.cfi_def_cfa_offset 4
	str	r0, [sp]
.Ltmp94:
	.loc	3 632 28 prologue_end           @ ../Firmware/GD32E23x_standard_peripheral/Source/gd32e23x_rtc.c:632:28
	ldr	r2, [sp]
	ldr	r1, __arm_cp.18_0
	.loc	3 632 14 is_stmt 0              @ ../Firmware/GD32E23x_standard_peripheral/Source/gd32e23x_rtc.c:632:14
	ldr	r0, [r1]
	bics	r0, r2
	str	r0, [r1]
	.loc	3 634 1 is_stmt 1               @ ../Firmware/GD32E23x_standard_peripheral/Source/gd32e23x_rtc.c:634:1
	add	sp, #4
	bx	lr
.Ltmp95:
	.p2align	2
@ %bb.1:
	.loc	3 0 1 is_stmt 0                 @ ../Firmware/GD32E23x_standard_peripheral/Source/gd32e23x_rtc.c:0:1
__arm_cp.18_0:
	.long	1073752128                      @ 0x40002840
.Lcpi_end53:
	.size	__arm_cp.18_0, .Lcpi_end53-__arm_cp.18_0
.Lfunc_end18:
	.size	rtc_tamper_disable, .Lfunc_end18-rtc_tamper_disable
	.cfi_endproc
	.cantunwind
	.fnend
                                        @ -- End function
	.section	.text.rtc_interrupt_enable,"ax",%progbits
	.hidden	rtc_interrupt_enable            @ -- Begin function rtc_interrupt_enable
	.globl	rtc_interrupt_enable
	.p2align	2
	.type	rtc_interrupt_enable,%function
	.code	16                              @ @rtc_interrupt_enable
	.thumb_func
rtc_interrupt_enable:
.Lfunc_begin19:
	.loc	3 647 0 is_stmt 1               @ ../Firmware/GD32E23x_standard_peripheral/Source/gd32e23x_rtc.c:647:0
	.fnstart
	.cfi_startproc
@ %bb.0:
	.save	{r4, lr}
	push	{r4, lr}
	.cfi_def_cfa_offset 8
	.cfi_offset lr, -4
	.cfi_offset r4, -8
	.pad	#4
	sub	sp, #4
	.cfi_def_cfa_offset 12
	str	r0, [sp]
	ldr	r1, __arm_cp.19_0
	movs	r0, #202
.Ltmp96:
	.loc	3 649 13 prologue_end           @ ../Firmware/GD32E23x_standard_peripheral/Source/gd32e23x_rtc.c:649:13
	str	r0, [r1]
	movs	r0, #83
	.loc	3 650 13                        @ ../Firmware/GD32E23x_standard_peripheral/Source/gd32e23x_rtc.c:650:13
	str	r0, [r1]
	.loc	3 653 27                        @ ../Firmware/GD32E23x_standard_peripheral/Source/gd32e23x_rtc.c:653:27
	ldr	r4, [sp]
	movs	r0, #4
	.loc	3 653 37 is_stmt 0              @ ../Firmware/GD32E23x_standard_peripheral/Source/gd32e23x_rtc.c:653:37
	bics	r4, r0
	ldr	r3, __arm_cp.19_1
	.loc	3 653 13                        @ ../Firmware/GD32E23x_standard_peripheral/Source/gd32e23x_rtc.c:653:13
	ldr	r2, [r3]
	orrs	r2, r4
	str	r2, [r3]
	.loc	3 655 28 is_stmt 1              @ ../Firmware/GD32E23x_standard_peripheral/Source/gd32e23x_rtc.c:655:28
	ldr	r3, [sp]
	.loc	3 655 38 is_stmt 0              @ ../Firmware/GD32E23x_standard_peripheral/Source/gd32e23x_rtc.c:655:38
	ands	r3, r0
	ldr	r2, __arm_cp.19_2
	.loc	3 655 14                        @ ../Firmware/GD32E23x_standard_peripheral/Source/gd32e23x_rtc.c:655:14
	ldr	r0, [r2]
	orrs	r0, r3
	str	r0, [r2]
	movs	r0, #255
	.loc	3 658 13 is_stmt 1              @ ../Firmware/GD32E23x_standard_peripheral/Source/gd32e23x_rtc.c:658:13
	str	r0, [r1]
	.loc	3 659 1                         @ ../Firmware/GD32E23x_standard_peripheral/Source/gd32e23x_rtc.c:659:1
	add	sp, #4
	pop	{r4, pc}
.Ltmp97:
	.p2align	2
@ %bb.1:
	.loc	3 0 1 is_stmt 0                 @ ../Firmware/GD32E23x_standard_peripheral/Source/gd32e23x_rtc.c:0:1
__arm_cp.19_0:
	.long	1073752100                      @ 0x40002824
.Lcpi_end54:
	.size	__arm_cp.19_0, .Lcpi_end54-__arm_cp.19_0
__arm_cp.19_1:
	.long	1073752072                      @ 0x40002808
.Lcpi_end55:
	.size	__arm_cp.19_1, .Lcpi_end55-__arm_cp.19_1
__arm_cp.19_2:
	.long	1073752128                      @ 0x40002840
.Lcpi_end56:
	.size	__arm_cp.19_2, .Lcpi_end56-__arm_cp.19_2
.Lfunc_end19:
	.size	rtc_interrupt_enable, .Lfunc_end19-rtc_interrupt_enable
	.cfi_endproc
	.cantunwind
	.fnend
                                        @ -- End function
	.section	.text.rtc_interrupt_disable,"ax",%progbits
	.hidden	rtc_interrupt_disable           @ -- Begin function rtc_interrupt_disable
	.globl	rtc_interrupt_disable
	.p2align	2
	.type	rtc_interrupt_disable,%function
	.code	16                              @ @rtc_interrupt_disable
	.thumb_func
rtc_interrupt_disable:
.Lfunc_begin20:
	.loc	3 672 0 is_stmt 1               @ ../Firmware/GD32E23x_standard_peripheral/Source/gd32e23x_rtc.c:672:0
	.fnstart
	.cfi_startproc
@ %bb.0:
	.save	{r4, lr}
	push	{r4, lr}
	.cfi_def_cfa_offset 8
	.cfi_offset lr, -4
	.cfi_offset r4, -8
	.pad	#4
	sub	sp, #4
	.cfi_def_cfa_offset 12
	str	r0, [sp]
	ldr	r1, __arm_cp.20_0
	movs	r0, #202
.Ltmp98:
	.loc	3 674 13 prologue_end           @ ../Firmware/GD32E23x_standard_peripheral/Source/gd32e23x_rtc.c:674:13
	str	r0, [r1]
	movs	r0, #83
	.loc	3 675 13                        @ ../Firmware/GD32E23x_standard_peripheral/Source/gd32e23x_rtc.c:675:13
	str	r0, [r1]
	.loc	3 678 28                        @ ../Firmware/GD32E23x_standard_peripheral/Source/gd32e23x_rtc.c:678:28
	ldr	r0, [sp]
	mvns	r4, r0
	movs	r0, #4
	.loc	3 678 26 is_stmt 0              @ ../Firmware/GD32E23x_standard_peripheral/Source/gd32e23x_rtc.c:678:26
	orrs	r4, r0
	ldr	r3, __arm_cp.20_1
	.loc	3 678 13                        @ ../Firmware/GD32E23x_standard_peripheral/Source/gd32e23x_rtc.c:678:13
	ldr	r2, [r3]
	ands	r2, r4
	str	r2, [r3]
	.loc	3 680 29 is_stmt 1              @ ../Firmware/GD32E23x_standard_peripheral/Source/gd32e23x_rtc.c:680:29
	ldr	r2, [sp]
	mvns	r3, r2
	mvns	r0, r0
	.loc	3 680 27 is_stmt 0              @ ../Firmware/GD32E23x_standard_peripheral/Source/gd32e23x_rtc.c:680:27
	orrs	r3, r0
	ldr	r2, __arm_cp.20_2
	.loc	3 680 14                        @ ../Firmware/GD32E23x_standard_peripheral/Source/gd32e23x_rtc.c:680:14
	ldr	r0, [r2]
	ands	r0, r3
	str	r0, [r2]
	movs	r0, #255
	.loc	3 683 13 is_stmt 1              @ ../Firmware/GD32E23x_standard_peripheral/Source/gd32e23x_rtc.c:683:13
	str	r0, [r1]
	.loc	3 684 1                         @ ../Firmware/GD32E23x_standard_peripheral/Source/gd32e23x_rtc.c:684:1
	add	sp, #4
	pop	{r4, pc}
.Ltmp99:
	.p2align	2
@ %bb.1:
	.loc	3 0 1 is_stmt 0                 @ ../Firmware/GD32E23x_standard_peripheral/Source/gd32e23x_rtc.c:0:1
__arm_cp.20_0:
	.long	1073752100                      @ 0x40002824
.Lcpi_end57:
	.size	__arm_cp.20_0, .Lcpi_end57-__arm_cp.20_0
__arm_cp.20_1:
	.long	1073752072                      @ 0x40002808
.Lcpi_end58:
	.size	__arm_cp.20_1, .Lcpi_end58-__arm_cp.20_1
__arm_cp.20_2:
	.long	1073752128                      @ 0x40002840
.Lcpi_end59:
	.size	__arm_cp.20_2, .Lcpi_end59-__arm_cp.20_2
.Lfunc_end20:
	.size	rtc_interrupt_disable, .Lfunc_end20-rtc_interrupt_disable
	.cfi_endproc
	.cantunwind
	.fnend
                                        @ -- End function
	.section	.text.rtc_flag_get,"ax",%progbits
	.hidden	rtc_flag_get                    @ -- Begin function rtc_flag_get
	.globl	rtc_flag_get
	.p2align	2
	.type	rtc_flag_get,%function
	.code	16                              @ @rtc_flag_get
	.thumb_func
rtc_flag_get:
.Lfunc_begin21:
	.loc	3 705 0 is_stmt 1               @ ../Firmware/GD32E23x_standard_peripheral/Source/gd32e23x_rtc.c:705:0
	.fnstart
	.cfi_startproc
@ %bb.0:
	.pad	#8
	sub	sp, #8
	.cfi_def_cfa_offset 8
	str	r0, [sp, #4]
	mov	r1, sp
	movs	r0, #0
.Ltmp100:
	.loc	3 706 16 prologue_end           @ ../Firmware/GD32E23x_standard_peripheral/Source/gd32e23x_rtc.c:706:16
	strb	r0, [r1]
	ldr	r0, __arm_cp.21_0
.Ltmp101:
	.loc	3 708 28                        @ ../Firmware/GD32E23x_standard_peripheral/Source/gd32e23x_rtc.c:708:28
	ldr	r0, [r0]
	.loc	3 708 39 is_stmt 0              @ ../Firmware/GD32E23x_standard_peripheral/Source/gd32e23x_rtc.c:708:39
	ldr	r1, [sp, #4]
.Ltmp102:
	.loc	3 708 8                         @ ../Firmware/GD32E23x_standard_peripheral/Source/gd32e23x_rtc.c:708:8
	tst	r0, r1
	beq	.LBB21_2
	b	.LBB21_1
.LBB21_1:
	.loc	3 0 8                           @ ../Firmware/GD32E23x_standard_peripheral/Source/gd32e23x_rtc.c:0:8
	mov	r1, sp
	movs	r0, #1
.Ltmp103:
	.loc	3 709 20 is_stmt 1              @ ../Firmware/GD32E23x_standard_peripheral/Source/gd32e23x_rtc.c:709:20
	strb	r0, [r1]
	.loc	3 710 5                         @ ../Firmware/GD32E23x_standard_peripheral/Source/gd32e23x_rtc.c:710:5
	b	.LBB21_2
.Ltmp104:
.LBB21_2:
	.loc	3 0 5 is_stmt 0                 @ ../Firmware/GD32E23x_standard_peripheral/Source/gd32e23x_rtc.c:0:5
	mov	r0, sp
	.loc	3 711 12 is_stmt 1              @ ../Firmware/GD32E23x_standard_peripheral/Source/gd32e23x_rtc.c:711:12
	ldrb	r0, [r0]
	.loc	3 711 5 is_stmt 0               @ ../Firmware/GD32E23x_standard_peripheral/Source/gd32e23x_rtc.c:711:5
	add	sp, #8
	bx	lr
.Ltmp105:
	.p2align	2
@ %bb.3:
	.loc	3 0 5                           @ ../Firmware/GD32E23x_standard_peripheral/Source/gd32e23x_rtc.c:0:5
__arm_cp.21_0:
	.long	1073752076                      @ 0x4000280c
.Lcpi_end60:
	.size	__arm_cp.21_0, .Lcpi_end60-__arm_cp.21_0
.Lfunc_end21:
	.size	rtc_flag_get, .Lfunc_end21-rtc_flag_get
	.cfi_endproc
	.cantunwind
	.fnend
                                        @ -- End function
	.section	.text.rtc_flag_clear,"ax",%progbits
	.hidden	rtc_flag_clear                  @ -- Begin function rtc_flag_clear
	.globl	rtc_flag_clear
	.p2align	2
	.type	rtc_flag_clear,%function
	.code	16                              @ @rtc_flag_clear
	.thumb_func
rtc_flag_clear:
.Lfunc_begin22:
	.loc	3 728 0 is_stmt 1               @ ../Firmware/GD32E23x_standard_peripheral/Source/gd32e23x_rtc.c:728:0
	.fnstart
	.cfi_startproc
@ %bb.0:
	.pad	#4
	sub	sp, #4
	.cfi_def_cfa_offset 4
	str	r0, [sp]
.Ltmp106:
	.loc	3 729 29 prologue_end           @ ../Firmware/GD32E23x_standard_peripheral/Source/gd32e23x_rtc.c:729:29
	ldr	r2, [sp]
	ldr	r1, __arm_cp.22_0
	.loc	3 729 14 is_stmt 0              @ ../Firmware/GD32E23x_standard_peripheral/Source/gd32e23x_rtc.c:729:14
	ldr	r0, [r1]
	bics	r0, r2
	str	r0, [r1]
	.loc	3 730 1 is_stmt 1               @ ../Firmware/GD32E23x_standard_peripheral/Source/gd32e23x_rtc.c:730:1
	add	sp, #4
	bx	lr
.Ltmp107:
	.p2align	2
@ %bb.1:
	.loc	3 0 1 is_stmt 0                 @ ../Firmware/GD32E23x_standard_peripheral/Source/gd32e23x_rtc.c:0:1
__arm_cp.22_0:
	.long	1073752076                      @ 0x4000280c
.Lcpi_end61:
	.size	__arm_cp.22_0, .Lcpi_end61-__arm_cp.22_0
.Lfunc_end22:
	.size	rtc_flag_clear, .Lfunc_end22-rtc_flag_clear
	.cfi_endproc
	.cantunwind
	.fnend
                                        @ -- End function
	.section	.text.rtc_alter_output_config,"ax",%progbits
	.hidden	rtc_alter_output_config         @ -- Begin function rtc_alter_output_config
	.globl	rtc_alter_output_config
	.p2align	2
	.type	rtc_alter_output_config,%function
	.code	16                              @ @rtc_alter_output_config
	.thumb_func
rtc_alter_output_config:
.Lfunc_begin23:
	.loc	3 750 0 is_stmt 1               @ ../Firmware/GD32E23x_standard_peripheral/Source/gd32e23x_rtc.c:750:0
	.fnstart
	.cfi_startproc
@ %bb.0:
	.pad	#8
	sub	sp, #8
	.cfi_def_cfa_offset 8
	str	r0, [sp, #4]
	str	r1, [sp]
	ldr	r1, __arm_cp.23_0
	movs	r0, #202
.Ltmp108:
	.loc	3 752 13 prologue_end           @ ../Firmware/GD32E23x_standard_peripheral/Source/gd32e23x_rtc.c:752:13
	str	r0, [r1]
	movs	r0, #83
	.loc	3 753 13                        @ ../Firmware/GD32E23x_standard_peripheral/Source/gd32e23x_rtc.c:753:13
	str	r0, [r1]
	ldr	r1, __arm_cp.23_1
	.loc	3 755 13                        @ ../Firmware/GD32E23x_standard_peripheral/Source/gd32e23x_rtc.c:755:13
	ldr	r0, [r1]
	movs	r2, #31
	lsls	r2, r2, #19
	bics	r0, r2
	str	r0, [r1]
	.loc	3 757 27                        @ ../Firmware/GD32E23x_standard_peripheral/Source/gd32e23x_rtc.c:757:27
	ldr	r2, [sp, #4]
	.loc	3 757 13 is_stmt 0              @ ../Firmware/GD32E23x_standard_peripheral/Source/gd32e23x_rtc.c:757:13
	ldr	r0, [r1]
	orrs	r0, r2
	str	r0, [r1]
	add	r0, sp, #4
	.loc	3 760 8 is_stmt 1               @ ../Firmware/GD32E23x_standard_peripheral/Source/gd32e23x_rtc.c:760:8
	ldrb	r0, [r0, #2]
	lsls	r0, r0, #26
	cmp	r0, #0
	bpl	.LBB23_2
	b	.LBB23_1
.LBB23_1:
	.loc	3 0 8 is_stmt 0                 @ ../Firmware/GD32E23x_standard_peripheral/Source/gd32e23x_rtc.c:0:8
	ldr	r1, __arm_cp.23_2
.Ltmp109:
	.loc	3 761 18 is_stmt 1              @ ../Firmware/GD32E23x_standard_peripheral/Source/gd32e23x_rtc.c:761:18
	ldr	r0, [r1]
	movs	r2, #1
	lsls	r2, r2, #18
	bics	r0, r2
	str	r0, [r1]
	.loc	3 762 32                        @ ../Firmware/GD32E23x_standard_peripheral/Source/gd32e23x_rtc.c:762:32
	ldr	r2, [sp]
	.loc	3 762 18 is_stmt 0              @ ../Firmware/GD32E23x_standard_peripheral/Source/gd32e23x_rtc.c:762:18
	ldr	r0, [r1]
	orrs	r0, r2
	str	r0, [r1]
	.loc	3 763 5 is_stmt 1               @ ../Firmware/GD32E23x_standard_peripheral/Source/gd32e23x_rtc.c:763:5
	b	.LBB23_2
.Ltmp110:
.LBB23_2:
	.loc	3 0 5 is_stmt 0                 @ ../Firmware/GD32E23x_standard_peripheral/Source/gd32e23x_rtc.c:0:5
	ldr	r1, __arm_cp.23_0
	movs	r0, #255
	.loc	3 766 13 is_stmt 1              @ ../Firmware/GD32E23x_standard_peripheral/Source/gd32e23x_rtc.c:766:13
	str	r0, [r1]
	.loc	3 767 1                         @ ../Firmware/GD32E23x_standard_peripheral/Source/gd32e23x_rtc.c:767:1
	add	sp, #8
	bx	lr
.Ltmp111:
	.p2align	2
@ %bb.3:
	.loc	3 0 1 is_stmt 0                 @ ../Firmware/GD32E23x_standard_peripheral/Source/gd32e23x_rtc.c:0:1
__arm_cp.23_0:
	.long	1073752100                      @ 0x40002824
.Lcpi_end62:
	.size	__arm_cp.23_0, .Lcpi_end62-__arm_cp.23_0
__arm_cp.23_1:
	.long	1073752072                      @ 0x40002808
.Lcpi_end63:
	.size	__arm_cp.23_1, .Lcpi_end63-__arm_cp.23_1
__arm_cp.23_2:
	.long	1073752128                      @ 0x40002840
.Lcpi_end64:
	.size	__arm_cp.23_2, .Lcpi_end64-__arm_cp.23_2
.Lfunc_end23:
	.size	rtc_alter_output_config, .Lfunc_end23-rtc_alter_output_config
	.cfi_endproc
	.cantunwind
	.fnend
                                        @ -- End function
	.section	.text.rtc_calibration_config,"ax",%progbits
	.hidden	rtc_calibration_config          @ -- Begin function rtc_calibration_config
	.globl	rtc_calibration_config
	.p2align	2
	.type	rtc_calibration_config,%function
	.code	16                              @ @rtc_calibration_config
	.thumb_func
rtc_calibration_config:
.Lfunc_begin24:
	.loc	3 785 0 is_stmt 1               @ ../Firmware/GD32E23x_standard_peripheral/Source/gd32e23x_rtc.c:785:0
	.fnstart
	.cfi_startproc
@ %bb.0:
	.pad	#28
	sub	sp, #28
	.cfi_def_cfa_offset 28
	str	r0, [sp, #24]
	str	r1, [sp, #20]
	str	r2, [sp, #16]
	movw	r0, #4096
.Ltmp112:
	.loc	3 786 14 prologue_end           @ ../Firmware/GD32E23x_standard_peripheral/Source/gd32e23x_rtc.c:786:14
	str	r0, [sp, #12]
	add	r1, sp, #8
	movs	r0, #0
	.loc	3 787 15                        @ ../Firmware/GD32E23x_standard_peripheral/Source/gd32e23x_rtc.c:787:15
	strb	r0, [r1]
	.loc	3 788 14                        @ ../Firmware/GD32E23x_standard_peripheral/Source/gd32e23x_rtc.c:788:14
	str	r0, [sp, #4]
	ldr	r1, __arm_cp.24_0
	movs	r0, #202
	.loc	3 791 13                        @ ../Firmware/GD32E23x_standard_peripheral/Source/gd32e23x_rtc.c:791:13
	str	r0, [r1]
	movs	r0, #83
	.loc	3 792 13                        @ ../Firmware/GD32E23x_standard_peripheral/Source/gd32e23x_rtc.c:792:13
	str	r0, [r1]
	.loc	3 795 5                         @ ../Firmware/GD32E23x_standard_peripheral/Source/gd32e23x_rtc.c:795:5
	b	.LBB24_1
.LBB24_1:                               @ =>This Inner Loop Header: Depth=1
	.loc	3 0 5 is_stmt 0                 @ ../Firmware/GD32E23x_standard_peripheral/Source/gd32e23x_rtc.c:0:5
	ldr	r0, __arm_cp.24_1
.Ltmp113:
	.loc	3 796 23 is_stmt 1              @ ../Firmware/GD32E23x_standard_peripheral/Source/gd32e23x_rtc.c:796:23
	ldr	r0, [r0]
	movs	r1, #1
	lsls	r1, r1, #16
	.loc	3 796 32 is_stmt 0              @ ../Firmware/GD32E23x_standard_peripheral/Source/gd32e23x_rtc.c:796:32
	ands	r0, r1
	.loc	3 796 21                        @ ../Firmware/GD32E23x_standard_peripheral/Source/gd32e23x_rtc.c:796:21
	str	r0, [sp, #4]
	.loc	3 797 5 is_stmt 1               @ ../Firmware/GD32E23x_standard_peripheral/Source/gd32e23x_rtc.c:797:5
	b	.LBB24_2
.Ltmp114:
.LBB24_2:                               @   in Loop: Header=BB24_1 Depth=1
	.loc	3 797 13 is_stmt 0              @ ../Firmware/GD32E23x_standard_peripheral/Source/gd32e23x_rtc.c:797:13
	ldr	r0, [sp, #12]
	subs	r1, r0, #1
	str	r1, [sp, #12]
	movs	r0, #0
	.loc	3 797 35                        @ ../Firmware/GD32E23x_standard_peripheral/Source/gd32e23x_rtc.c:797:35
	str	r0, [sp]                        @ 4-byte Spill
	cbz	r1, .LBB24_4
	b	.LBB24_3
.LBB24_3:                               @   in Loop: Header=BB24_1 Depth=1
	.loc	3 797 58                        @ ../Firmware/GD32E23x_standard_peripheral/Source/gd32e23x_rtc.c:797:58
	ldr	r0, [sp, #4]
	.loc	3 797 55                        @ ../Firmware/GD32E23x_standard_peripheral/Source/gd32e23x_rtc.c:797:55
	subs	r1, r0, #1
	sbcs	r0, r1
	str	r0, [sp]                        @ 4-byte Spill
	b	.LBB24_4
.LBB24_4:                               @   in Loop: Header=BB24_1 Depth=1
	.loc	3 0 0                           @ ../Firmware/GD32E23x_standard_peripheral/Source/gd32e23x_rtc.c:0:0
	ldr	r0, [sp]                        @ 4-byte Reload
.Ltmp115:
	.loc	3 797 5                         @ ../Firmware/GD32E23x_standard_peripheral/Source/gd32e23x_rtc.c:797:5
	lsls	r0, r0, #31
	cmp	r0, #0
	bne	.LBB24_1
	b	.LBB24_5
.Ltmp116:
.LBB24_5:
	.loc	3 799 27 is_stmt 1              @ ../Firmware/GD32E23x_standard_peripheral/Source/gd32e23x_rtc.c:799:27
	ldr	r0, [sp, #4]
.Ltmp117:
	.loc	3 799 8 is_stmt 0               @ ../Firmware/GD32E23x_standard_peripheral/Source/gd32e23x_rtc.c:799:8
	cbnz	r0, .LBB24_7
	b	.LBB24_6
.LBB24_6:
.Ltmp118:
	.loc	3 800 31 is_stmt 1              @ ../Firmware/GD32E23x_standard_peripheral/Source/gd32e23x_rtc.c:800:31
	ldr	r0, [sp, #24]
	.loc	3 800 40 is_stmt 0              @ ../Firmware/GD32E23x_standard_peripheral/Source/gd32e23x_rtc.c:800:40
	ldr	r1, [sp, #20]
	.loc	3 800 38                        @ ../Firmware/GD32E23x_standard_peripheral/Source/gd32e23x_rtc.c:800:38
	orrs	r0, r1
	.loc	3 800 47                        @ ../Firmware/GD32E23x_standard_peripheral/Source/gd32e23x_rtc.c:800:47
	ldr	r1, [sp, #16]
	ldr	r2, __arm_cp.24_2
	ands	r1, r2
	.loc	3 800 45                        @ ../Firmware/GD32E23x_standard_peripheral/Source/gd32e23x_rtc.c:800:45
	orrs	r0, r1
	ldr	r1, __arm_cp.24_3
	.loc	3 800 18                        @ ../Firmware/GD32E23x_standard_peripheral/Source/gd32e23x_rtc.c:800:18
	str	r0, [r1]
	add	r1, sp, #8
	movs	r0, #1
	.loc	3 801 22 is_stmt 1              @ ../Firmware/GD32E23x_standard_peripheral/Source/gd32e23x_rtc.c:801:22
	strb	r0, [r1]
	.loc	3 802 5                         @ ../Firmware/GD32E23x_standard_peripheral/Source/gd32e23x_rtc.c:802:5
	b	.LBB24_7
.Ltmp119:
.LBB24_7:
	.loc	3 0 5 is_stmt 0                 @ ../Firmware/GD32E23x_standard_peripheral/Source/gd32e23x_rtc.c:0:5
	ldr	r1, __arm_cp.24_0
	movs	r0, #255
	.loc	3 805 13 is_stmt 1              @ ../Firmware/GD32E23x_standard_peripheral/Source/gd32e23x_rtc.c:805:13
	str	r0, [r1]
	add	r0, sp, #8
	.loc	3 807 12                        @ ../Firmware/GD32E23x_standard_peripheral/Source/gd32e23x_rtc.c:807:12
	ldrb	r0, [r0]
	.loc	3 807 5 is_stmt 0               @ ../Firmware/GD32E23x_standard_peripheral/Source/gd32e23x_rtc.c:807:5
	add	sp, #28
	bx	lr
.Ltmp120:
	.p2align	2
@ %bb.8:
	.loc	3 0 5                           @ ../Firmware/GD32E23x_standard_peripheral/Source/gd32e23x_rtc.c:0:5
__arm_cp.24_0:
	.long	1073752100                      @ 0x40002824
.Lcpi_end65:
	.size	__arm_cp.24_0, .Lcpi_end65-__arm_cp.24_0
__arm_cp.24_1:
	.long	1073752076                      @ 0x4000280c
.Lcpi_end66:
	.size	__arm_cp.24_1, .Lcpi_end66-__arm_cp.24_1
__arm_cp.24_2:
	.long	511                             @ 0x1ff
.Lcpi_end67:
	.size	__arm_cp.24_2, .Lcpi_end67-__arm_cp.24_2
__arm_cp.24_3:
	.long	1073752124                      @ 0x4000283c
.Lcpi_end68:
	.size	__arm_cp.24_3, .Lcpi_end68-__arm_cp.24_3
.Lfunc_end24:
	.size	rtc_calibration_config, .Lfunc_end24-rtc_calibration_config
	.cfi_endproc
	.cantunwind
	.fnend
                                        @ -- End function
	.section	.text.rtc_hour_adjust,"ax",%progbits
	.hidden	rtc_hour_adjust                 @ -- Begin function rtc_hour_adjust
	.globl	rtc_hour_adjust
	.p2align	2
	.type	rtc_hour_adjust,%function
	.code	16                              @ @rtc_hour_adjust
	.thumb_func
rtc_hour_adjust:
.Lfunc_begin25:
	.loc	3 820 0 is_stmt 1               @ ../Firmware/GD32E23x_standard_peripheral/Source/gd32e23x_rtc.c:820:0
	.fnstart
	.cfi_startproc
@ %bb.0:
	.pad	#4
	sub	sp, #4
	.cfi_def_cfa_offset 4
	str	r0, [sp]
	ldr	r1, __arm_cp.25_0
	movs	r0, #202
.Ltmp121:
	.loc	3 822 13 prologue_end           @ ../Firmware/GD32E23x_standard_peripheral/Source/gd32e23x_rtc.c:822:13
	str	r0, [r1]
	movs	r0, #83
	.loc	3 823 13                        @ ../Firmware/GD32E23x_standard_peripheral/Source/gd32e23x_rtc.c:823:13
	str	r0, [r1]
	.loc	3 825 27                        @ ../Firmware/GD32E23x_standard_peripheral/Source/gd32e23x_rtc.c:825:27
	ldr	r3, [sp]
	ldr	r2, __arm_cp.25_1
	.loc	3 825 13 is_stmt 0              @ ../Firmware/GD32E23x_standard_peripheral/Source/gd32e23x_rtc.c:825:13
	ldr	r0, [r2]
	orrs	r0, r3
	str	r0, [r2]
	movs	r0, #255
	.loc	3 828 13 is_stmt 1              @ ../Firmware/GD32E23x_standard_peripheral/Source/gd32e23x_rtc.c:828:13
	str	r0, [r1]
	.loc	3 829 1                         @ ../Firmware/GD32E23x_standard_peripheral/Source/gd32e23x_rtc.c:829:1
	add	sp, #4
	bx	lr
.Ltmp122:
	.p2align	2
@ %bb.1:
	.loc	3 0 1 is_stmt 0                 @ ../Firmware/GD32E23x_standard_peripheral/Source/gd32e23x_rtc.c:0:1
__arm_cp.25_0:
	.long	1073752100                      @ 0x40002824
.Lcpi_end69:
	.size	__arm_cp.25_0, .Lcpi_end69-__arm_cp.25_0
__arm_cp.25_1:
	.long	1073752072                      @ 0x40002808
.Lcpi_end70:
	.size	__arm_cp.25_1, .Lcpi_end70-__arm_cp.25_1
.Lfunc_end25:
	.size	rtc_hour_adjust, .Lfunc_end25-rtc_hour_adjust
	.cfi_endproc
	.cantunwind
	.fnend
                                        @ -- End function
	.section	.text.rtc_second_adjust,"ax",%progbits
	.hidden	rtc_second_adjust               @ -- Begin function rtc_second_adjust
	.globl	rtc_second_adjust
	.p2align	2
	.type	rtc_second_adjust,%function
	.code	16                              @ @rtc_second_adjust
	.thumb_func
rtc_second_adjust:
.Lfunc_begin26:
	.loc	3 842 0 is_stmt 1               @ ../Firmware/GD32E23x_standard_peripheral/Source/gd32e23x_rtc.c:842:0
	.fnstart
	.cfi_startproc
@ %bb.0:
	.save	{r7, lr}
	push	{r7, lr}
	.cfi_def_cfa_offset 8
	.cfi_offset lr, -4
	.cfi_offset r7, -8
	.pad	#32
	sub	sp, #32
	.cfi_def_cfa_offset 40
	str	r0, [sp, #28]
	str	r1, [sp, #24]
	movw	r0, #4096
.Ltmp123:
	.loc	3 843 14 prologue_end           @ ../Firmware/GD32E23x_standard_peripheral/Source/gd32e23x_rtc.c:843:14
	str	r0, [sp, #20]
	add	r1, sp, #16
	movs	r0, #0
	.loc	3 844 15                        @ ../Firmware/GD32E23x_standard_peripheral/Source/gd32e23x_rtc.c:844:15
	strb	r0, [r1]
	.loc	3 845 14                        @ ../Firmware/GD32E23x_standard_peripheral/Source/gd32e23x_rtc.c:845:14
	str	r0, [sp, #12]
	.loc	3 846 14                        @ ../Firmware/GD32E23x_standard_peripheral/Source/gd32e23x_rtc.c:846:14
	str	r0, [sp, #8]
	ldr	r1, __arm_cp.26_0
	movs	r0, #202
	.loc	3 849 13                        @ ../Firmware/GD32E23x_standard_peripheral/Source/gd32e23x_rtc.c:849:13
	str	r0, [r1]
	movs	r0, #83
	.loc	3 850 13                        @ ../Firmware/GD32E23x_standard_peripheral/Source/gd32e23x_rtc.c:850:13
	str	r0, [r1]
	.loc	3 853 5                         @ ../Firmware/GD32E23x_standard_peripheral/Source/gd32e23x_rtc.c:853:5
	b	.LBB26_1
.LBB26_1:                               @ =>This Inner Loop Header: Depth=1
	.loc	3 0 5 is_stmt 0                 @ ../Firmware/GD32E23x_standard_peripheral/Source/gd32e23x_rtc.c:0:5
	ldr	r0, __arm_cp.26_1
.Ltmp124:
	.loc	3 854 23 is_stmt 1              @ ../Firmware/GD32E23x_standard_peripheral/Source/gd32e23x_rtc.c:854:23
	ldr	r0, [r0]
	movs	r1, #8
	.loc	3 854 32 is_stmt 0              @ ../Firmware/GD32E23x_standard_peripheral/Source/gd32e23x_rtc.c:854:32
	ands	r0, r1
	.loc	3 854 21                        @ ../Firmware/GD32E23x_standard_peripheral/Source/gd32e23x_rtc.c:854:21
	str	r0, [sp, #12]
	.loc	3 855 5 is_stmt 1               @ ../Firmware/GD32E23x_standard_peripheral/Source/gd32e23x_rtc.c:855:5
	b	.LBB26_2
.Ltmp125:
.LBB26_2:                               @   in Loop: Header=BB26_1 Depth=1
	.loc	3 855 13 is_stmt 0              @ ../Firmware/GD32E23x_standard_peripheral/Source/gd32e23x_rtc.c:855:13
	ldr	r0, [sp, #20]
	subs	r1, r0, #1
	str	r1, [sp, #20]
	movs	r0, #0
	.loc	3 855 35                        @ ../Firmware/GD32E23x_standard_peripheral/Source/gd32e23x_rtc.c:855:35
	str	r0, [sp, #4]                    @ 4-byte Spill
	cbz	r1, .LBB26_4
	b	.LBB26_3
.LBB26_3:                               @   in Loop: Header=BB26_1 Depth=1
	.loc	3 855 58                        @ ../Firmware/GD32E23x_standard_peripheral/Source/gd32e23x_rtc.c:855:58
	ldr	r0, [sp, #12]
	.loc	3 855 55                        @ ../Firmware/GD32E23x_standard_peripheral/Source/gd32e23x_rtc.c:855:55
	subs	r1, r0, #1
	sbcs	r0, r1
	str	r0, [sp, #4]                    @ 4-byte Spill
	b	.LBB26_4
.LBB26_4:                               @   in Loop: Header=BB26_1 Depth=1
	.loc	3 0 0                           @ ../Firmware/GD32E23x_standard_peripheral/Source/gd32e23x_rtc.c:0:0
	ldr	r0, [sp, #4]                    @ 4-byte Reload
.Ltmp126:
	.loc	3 855 5                         @ ../Firmware/GD32E23x_standard_peripheral/Source/gd32e23x_rtc.c:855:5
	lsls	r0, r0, #31
	cmp	r0, #0
	bne	.LBB26_1
	b	.LBB26_5
.Ltmp127:
.LBB26_5:
	.loc	3 0 5                           @ ../Firmware/GD32E23x_standard_peripheral/Source/gd32e23x_rtc.c:0:5
	ldr	r0, __arm_cp.26_2
	.loc	3 857 12 is_stmt 1              @ ../Firmware/GD32E23x_standard_peripheral/Source/gd32e23x_rtc.c:857:12
	ldr	r0, [r0]
	movs	r1, #16
	.loc	3 857 20 is_stmt 0              @ ../Firmware/GD32E23x_standard_peripheral/Source/gd32e23x_rtc.c:857:20
	ands	r0, r1
	.loc	3 857 10                        @ ../Firmware/GD32E23x_standard_peripheral/Source/gd32e23x_rtc.c:857:10
	str	r0, [sp, #8]
.Ltmp128:
	.loc	3 859 28 is_stmt 1              @ ../Firmware/GD32E23x_standard_peripheral/Source/gd32e23x_rtc.c:859:28
	ldr	r0, [sp, #12]
	.loc	3 859 41 is_stmt 0              @ ../Firmware/GD32E23x_standard_peripheral/Source/gd32e23x_rtc.c:859:41
	cbnz	r0, .LBB26_8
	b	.LBB26_6
.LBB26_6:
	.loc	3 859 54                        @ ../Firmware/GD32E23x_standard_peripheral/Source/gd32e23x_rtc.c:859:54
	ldr	r0, [sp, #8]
.Ltmp129:
	.loc	3 859 8                         @ ../Firmware/GD32E23x_standard_peripheral/Source/gd32e23x_rtc.c:859:8
	cbnz	r0, .LBB26_8
	b	.LBB26_7
.LBB26_7:
.Ltmp130:
	.loc	3 860 35 is_stmt 1              @ ../Firmware/GD32E23x_standard_peripheral/Source/gd32e23x_rtc.c:860:35
	ldr	r0, [sp, #28]
	.loc	3 860 41 is_stmt 0              @ ../Firmware/GD32E23x_standard_peripheral/Source/gd32e23x_rtc.c:860:41
	ldr	r1, [sp, #24]
	ldr	r2, __arm_cp.26_3
	ands	r1, r2
	.loc	3 860 39                        @ ../Firmware/GD32E23x_standard_peripheral/Source/gd32e23x_rtc.c:860:39
	orrs	r0, r1
	ldr	r1, __arm_cp.26_4
	.loc	3 860 22                        @ ../Firmware/GD32E23x_standard_peripheral/Source/gd32e23x_rtc.c:860:22
	str	r0, [r1]
	.loc	3 861 24 is_stmt 1              @ ../Firmware/GD32E23x_standard_peripheral/Source/gd32e23x_rtc.c:861:24
	bl	rtc_register_sync_wait
	add	r1, sp, #16
	.loc	3 861 22 is_stmt 0              @ ../Firmware/GD32E23x_standard_peripheral/Source/gd32e23x_rtc.c:861:22
	strb	r0, [r1]
	.loc	3 862 5 is_stmt 1               @ ../Firmware/GD32E23x_standard_peripheral/Source/gd32e23x_rtc.c:862:5
	b	.LBB26_8
.Ltmp131:
.LBB26_8:
	.loc	3 0 5 is_stmt 0                 @ ../Firmware/GD32E23x_standard_peripheral/Source/gd32e23x_rtc.c:0:5
	ldr	r1, __arm_cp.26_0
	movs	r0, #255
	.loc	3 865 13 is_stmt 1              @ ../Firmware/GD32E23x_standard_peripheral/Source/gd32e23x_rtc.c:865:13
	str	r0, [r1]
	add	r0, sp, #16
	.loc	3 867 12                        @ ../Firmware/GD32E23x_standard_peripheral/Source/gd32e23x_rtc.c:867:12
	ldrb	r0, [r0]
	.loc	3 867 5 is_stmt 0               @ ../Firmware/GD32E23x_standard_peripheral/Source/gd32e23x_rtc.c:867:5
	add	sp, #32
	pop	{r7, pc}
.Ltmp132:
	.p2align	2
@ %bb.9:
	.loc	3 0 5                           @ ../Firmware/GD32E23x_standard_peripheral/Source/gd32e23x_rtc.c:0:5
__arm_cp.26_0:
	.long	1073752100                      @ 0x40002824
.Lcpi_end71:
	.size	__arm_cp.26_0, .Lcpi_end71-__arm_cp.26_0
__arm_cp.26_1:
	.long	1073752076                      @ 0x4000280c
.Lcpi_end72:
	.size	__arm_cp.26_1, .Lcpi_end72-__arm_cp.26_1
__arm_cp.26_2:
	.long	1073752072                      @ 0x40002808
.Lcpi_end73:
	.size	__arm_cp.26_2, .Lcpi_end73-__arm_cp.26_2
__arm_cp.26_3:
	.long	32767                           @ 0x7fff
.Lcpi_end74:
	.size	__arm_cp.26_3, .Lcpi_end74-__arm_cp.26_3
__arm_cp.26_4:
	.long	1073752108                      @ 0x4000282c
.Lcpi_end75:
	.size	__arm_cp.26_4, .Lcpi_end75-__arm_cp.26_4
.Lfunc_end26:
	.size	rtc_second_adjust, .Lfunc_end26-rtc_second_adjust
	.cfi_endproc
	.cantunwind
	.fnend
                                        @ -- End function
	.section	.text.rtc_bypass_shadow_enable,"ax",%progbits
	.hidden	rtc_bypass_shadow_enable        @ -- Begin function rtc_bypass_shadow_enable
	.globl	rtc_bypass_shadow_enable
	.p2align	2
	.type	rtc_bypass_shadow_enable,%function
	.code	16                              @ @rtc_bypass_shadow_enable
	.thumb_func
rtc_bypass_shadow_enable:
.Lfunc_begin27:
	.loc	3 877 0 is_stmt 1               @ ../Firmware/GD32E23x_standard_peripheral/Source/gd32e23x_rtc.c:877:0
	.fnstart
	.cfi_startproc
@ %bb.0:
	ldr	r1, __arm_cp.27_0
	movs	r0, #202
.Ltmp133:
	.loc	3 879 13 prologue_end           @ ../Firmware/GD32E23x_standard_peripheral/Source/gd32e23x_rtc.c:879:13
	str	r0, [r1]
	movs	r0, #83
	.loc	3 880 13                        @ ../Firmware/GD32E23x_standard_peripheral/Source/gd32e23x_rtc.c:880:13
	str	r0, [r1]
	ldr	r2, __arm_cp.27_1
	.loc	3 882 13                        @ ../Firmware/GD32E23x_standard_peripheral/Source/gd32e23x_rtc.c:882:13
	ldr	r0, [r2]
	movs	r3, #32
	orrs	r0, r3
	str	r0, [r2]
	movs	r0, #255
	.loc	3 885 13                        @ ../Firmware/GD32E23x_standard_peripheral/Source/gd32e23x_rtc.c:885:13
	str	r0, [r1]
	.loc	3 886 1                         @ ../Firmware/GD32E23x_standard_peripheral/Source/gd32e23x_rtc.c:886:1
	bx	lr
.Ltmp134:
	.p2align	2
@ %bb.1:
	.loc	3 0 1 is_stmt 0                 @ ../Firmware/GD32E23x_standard_peripheral/Source/gd32e23x_rtc.c:0:1
__arm_cp.27_0:
	.long	1073752100                      @ 0x40002824
.Lcpi_end76:
	.size	__arm_cp.27_0, .Lcpi_end76-__arm_cp.27_0
__arm_cp.27_1:
	.long	1073752072                      @ 0x40002808
.Lcpi_end77:
	.size	__arm_cp.27_1, .Lcpi_end77-__arm_cp.27_1
.Lfunc_end27:
	.size	rtc_bypass_shadow_enable, .Lfunc_end27-rtc_bypass_shadow_enable
	.cfi_endproc
	.cantunwind
	.fnend
                                        @ -- End function
	.section	.text.rtc_bypass_shadow_disable,"ax",%progbits
	.hidden	rtc_bypass_shadow_disable       @ -- Begin function rtc_bypass_shadow_disable
	.globl	rtc_bypass_shadow_disable
	.p2align	2
	.type	rtc_bypass_shadow_disable,%function
	.code	16                              @ @rtc_bypass_shadow_disable
	.thumb_func
rtc_bypass_shadow_disable:
.Lfunc_begin28:
	.loc	3 895 0 is_stmt 1               @ ../Firmware/GD32E23x_standard_peripheral/Source/gd32e23x_rtc.c:895:0
	.fnstart
	.cfi_startproc
@ %bb.0:
	ldr	r1, __arm_cp.28_0
	movs	r0, #202
.Ltmp135:
	.loc	3 897 13 prologue_end           @ ../Firmware/GD32E23x_standard_peripheral/Source/gd32e23x_rtc.c:897:13
	str	r0, [r1]
	movs	r0, #83
	.loc	3 898 13                        @ ../Firmware/GD32E23x_standard_peripheral/Source/gd32e23x_rtc.c:898:13
	str	r0, [r1]
	ldr	r2, __arm_cp.28_1
	.loc	3 900 13                        @ ../Firmware/GD32E23x_standard_peripheral/Source/gd32e23x_rtc.c:900:13
	ldr	r0, [r2]
	movs	r3, #223
	ands	r0, r3
	str	r0, [r2]
	movs	r0, #255
	.loc	3 903 13                        @ ../Firmware/GD32E23x_standard_peripheral/Source/gd32e23x_rtc.c:903:13
	str	r0, [r1]
	.loc	3 904 1                         @ ../Firmware/GD32E23x_standard_peripheral/Source/gd32e23x_rtc.c:904:1
	bx	lr
.Ltmp136:
	.p2align	2
@ %bb.1:
	.loc	3 0 1 is_stmt 0                 @ ../Firmware/GD32E23x_standard_peripheral/Source/gd32e23x_rtc.c:0:1
__arm_cp.28_0:
	.long	1073752100                      @ 0x40002824
.Lcpi_end78:
	.size	__arm_cp.28_0, .Lcpi_end78-__arm_cp.28_0
__arm_cp.28_1:
	.long	1073752072                      @ 0x40002808
.Lcpi_end79:
	.size	__arm_cp.28_1, .Lcpi_end79-__arm_cp.28_1
.Lfunc_end28:
	.size	rtc_bypass_shadow_disable, .Lfunc_end28-rtc_bypass_shadow_disable
	.cfi_endproc
	.cantunwind
	.fnend
                                        @ -- End function
	.section	.text.rtc_refclock_detection_enable,"ax",%progbits
	.hidden	rtc_refclock_detection_enable   @ -- Begin function rtc_refclock_detection_enable
	.globl	rtc_refclock_detection_enable
	.p2align	2
	.type	rtc_refclock_detection_enable,%function
	.code	16                              @ @rtc_refclock_detection_enable
	.thumb_func
rtc_refclock_detection_enable:
.Lfunc_begin29:
	.loc	3 913 0 is_stmt 1               @ ../Firmware/GD32E23x_standard_peripheral/Source/gd32e23x_rtc.c:913:0
	.fnstart
	.cfi_startproc
@ %bb.0:
	.save	{r7, lr}
	push	{r7, lr}
	.cfi_def_cfa_offset 8
	.cfi_offset lr, -4
	.cfi_offset r7, -8
	.pad	#8
	sub	sp, #8
	.cfi_def_cfa_offset 16
	add	r1, sp, #4
	str	r1, [sp]                        @ 4-byte Spill
	movs	r0, #0
.Ltmp137:
	.loc	3 914 15 prologue_end           @ ../Firmware/GD32E23x_standard_peripheral/Source/gd32e23x_rtc.c:914:15
	strb	r0, [r1]
	ldr	r1, __arm_cp.29_0
	movs	r0, #202
	.loc	3 917 13                        @ ../Firmware/GD32E23x_standard_peripheral/Source/gd32e23x_rtc.c:917:13
	str	r0, [r1]
	movs	r0, #83
	.loc	3 918 13                        @ ../Firmware/GD32E23x_standard_peripheral/Source/gd32e23x_rtc.c:918:13
	str	r0, [r1]
	.loc	3 921 20                        @ ../Firmware/GD32E23x_standard_peripheral/Source/gd32e23x_rtc.c:921:20
	bl	rtc_init_mode_enter
	mov	r1, r0
	.loc	3 921 18 is_stmt 0              @ ../Firmware/GD32E23x_standard_peripheral/Source/gd32e23x_rtc.c:921:18
	ldr	r0, [sp]                        @ 4-byte Reload
	strb	r1, [r0]
.Ltmp138:
	.loc	3 923 17 is_stmt 1              @ ../Firmware/GD32E23x_standard_peripheral/Source/gd32e23x_rtc.c:923:17
	ldrb	r0, [r0]
.Ltmp139:
	.loc	3 923 8 is_stmt 0               @ ../Firmware/GD32E23x_standard_peripheral/Source/gd32e23x_rtc.c:923:8
	cbz	r0, .LBB29_2
	b	.LBB29_1
.LBB29_1:
	.loc	3 0 8                           @ ../Firmware/GD32E23x_standard_peripheral/Source/gd32e23x_rtc.c:0:8
	ldr	r1, __arm_cp.29_1
.Ltmp140:
	.loc	3 924 17 is_stmt 1              @ ../Firmware/GD32E23x_standard_peripheral/Source/gd32e23x_rtc.c:924:17
	ldr	r0, [r1]
	movs	r2, #16
	orrs	r0, r2
	str	r0, [r1]
	.loc	3 926 9                         @ ../Firmware/GD32E23x_standard_peripheral/Source/gd32e23x_rtc.c:926:9
	bl	rtc_init_mode_exit
	.loc	3 927 5                         @ ../Firmware/GD32E23x_standard_peripheral/Source/gd32e23x_rtc.c:927:5
	b	.LBB29_2
.Ltmp141:
.LBB29_2:
	.loc	3 0 5 is_stmt 0                 @ ../Firmware/GD32E23x_standard_peripheral/Source/gd32e23x_rtc.c:0:5
	ldr	r1, __arm_cp.29_0
	movs	r0, #255
	.loc	3 930 13 is_stmt 1              @ ../Firmware/GD32E23x_standard_peripheral/Source/gd32e23x_rtc.c:930:13
	str	r0, [r1]
	add	r0, sp, #4
	.loc	3 932 12                        @ ../Firmware/GD32E23x_standard_peripheral/Source/gd32e23x_rtc.c:932:12
	ldrb	r0, [r0]
	.loc	3 932 5 is_stmt 0               @ ../Firmware/GD32E23x_standard_peripheral/Source/gd32e23x_rtc.c:932:5
	add	sp, #8
	pop	{r7, pc}
.Ltmp142:
	.p2align	2
@ %bb.3:
	.loc	3 0 5                           @ ../Firmware/GD32E23x_standard_peripheral/Source/gd32e23x_rtc.c:0:5
__arm_cp.29_0:
	.long	1073752100                      @ 0x40002824
.Lcpi_end80:
	.size	__arm_cp.29_0, .Lcpi_end80-__arm_cp.29_0
__arm_cp.29_1:
	.long	1073752072                      @ 0x40002808
.Lcpi_end81:
	.size	__arm_cp.29_1, .Lcpi_end81-__arm_cp.29_1
.Lfunc_end29:
	.size	rtc_refclock_detection_enable, .Lfunc_end29-rtc_refclock_detection_enable
	.cfi_endproc
	.cantunwind
	.fnend
                                        @ -- End function
	.section	.text.rtc_refclock_detection_disable,"ax",%progbits
	.hidden	rtc_refclock_detection_disable  @ -- Begin function rtc_refclock_detection_disable
	.globl	rtc_refclock_detection_disable
	.p2align	2
	.type	rtc_refclock_detection_disable,%function
	.code	16                              @ @rtc_refclock_detection_disable
	.thumb_func
rtc_refclock_detection_disable:
.Lfunc_begin30:
	.loc	3 942 0 is_stmt 1               @ ../Firmware/GD32E23x_standard_peripheral/Source/gd32e23x_rtc.c:942:0
	.fnstart
	.cfi_startproc
@ %bb.0:
	.save	{r7, lr}
	push	{r7, lr}
	.cfi_def_cfa_offset 8
	.cfi_offset lr, -4
	.cfi_offset r7, -8
	.pad	#8
	sub	sp, #8
	.cfi_def_cfa_offset 16
	add	r1, sp, #4
	str	r1, [sp]                        @ 4-byte Spill
	movs	r0, #0
.Ltmp143:
	.loc	3 943 15 prologue_end           @ ../Firmware/GD32E23x_standard_peripheral/Source/gd32e23x_rtc.c:943:15
	strb	r0, [r1]
	ldr	r1, __arm_cp.30_0
	movs	r0, #202
	.loc	3 946 13                        @ ../Firmware/GD32E23x_standard_peripheral/Source/gd32e23x_rtc.c:946:13
	str	r0, [r1]
	movs	r0, #83
	.loc	3 947 13                        @ ../Firmware/GD32E23x_standard_peripheral/Source/gd32e23x_rtc.c:947:13
	str	r0, [r1]
	.loc	3 950 20                        @ ../Firmware/GD32E23x_standard_peripheral/Source/gd32e23x_rtc.c:950:20
	bl	rtc_init_mode_enter
	mov	r1, r0
	.loc	3 950 18 is_stmt 0              @ ../Firmware/GD32E23x_standard_peripheral/Source/gd32e23x_rtc.c:950:18
	ldr	r0, [sp]                        @ 4-byte Reload
	strb	r1, [r0]
.Ltmp144:
	.loc	3 952 17 is_stmt 1              @ ../Firmware/GD32E23x_standard_peripheral/Source/gd32e23x_rtc.c:952:17
	ldrb	r0, [r0]
.Ltmp145:
	.loc	3 952 8 is_stmt 0               @ ../Firmware/GD32E23x_standard_peripheral/Source/gd32e23x_rtc.c:952:8
	cbz	r0, .LBB30_2
	b	.LBB30_1
.LBB30_1:
	.loc	3 0 8                           @ ../Firmware/GD32E23x_standard_peripheral/Source/gd32e23x_rtc.c:0:8
	ldr	r1, __arm_cp.30_1
.Ltmp146:
	.loc	3 953 17 is_stmt 1              @ ../Firmware/GD32E23x_standard_peripheral/Source/gd32e23x_rtc.c:953:17
	ldr	r0, [r1]
	movs	r2, #16
	bics	r0, r2
	str	r0, [r1]
	.loc	3 955 9                         @ ../Firmware/GD32E23x_standard_peripheral/Source/gd32e23x_rtc.c:955:9
	bl	rtc_init_mode_exit
	.loc	3 956 5                         @ ../Firmware/GD32E23x_standard_peripheral/Source/gd32e23x_rtc.c:956:5
	b	.LBB30_2
.Ltmp147:
.LBB30_2:
	.loc	3 0 5 is_stmt 0                 @ ../Firmware/GD32E23x_standard_peripheral/Source/gd32e23x_rtc.c:0:5
	ldr	r1, __arm_cp.30_0
	movs	r0, #255
	.loc	3 959 13 is_stmt 1              @ ../Firmware/GD32E23x_standard_peripheral/Source/gd32e23x_rtc.c:959:13
	str	r0, [r1]
	add	r0, sp, #4
	.loc	3 961 12                        @ ../Firmware/GD32E23x_standard_peripheral/Source/gd32e23x_rtc.c:961:12
	ldrb	r0, [r0]
	.loc	3 961 5 is_stmt 0               @ ../Firmware/GD32E23x_standard_peripheral/Source/gd32e23x_rtc.c:961:5
	add	sp, #8
	pop	{r7, pc}
.Ltmp148:
	.p2align	2
@ %bb.3:
	.loc	3 0 5                           @ ../Firmware/GD32E23x_standard_peripheral/Source/gd32e23x_rtc.c:0:5
__arm_cp.30_0:
	.long	1073752100                      @ 0x40002824
.Lcpi_end82:
	.size	__arm_cp.30_0, .Lcpi_end82-__arm_cp.30_0
__arm_cp.30_1:
	.long	1073752072                      @ 0x40002808
.Lcpi_end83:
	.size	__arm_cp.30_1, .Lcpi_end83-__arm_cp.30_1
.Lfunc_end30:
	.size	rtc_refclock_detection_disable, .Lfunc_end30-rtc_refclock_detection_disable
	.cfi_endproc
	.cantunwind
	.fnend
                                        @ -- End function
	.file	4 "D:\\GD32\\GD32E230\\Oscilloscope\\Project" "../Firmware/GD32E23x_standard_peripheral/Include\\gd32e23x_rtc.h"
	.section	".note.GNU-stack","",%progbits
	.eabi_attribute	30, 6	@ Tag_ABI_optimization_goals
	.ARM_attribute	16, 1	@ Tag_AV_eba