	.text
	.syntax unified
	.eabi_attribute	67, "2.09"	@ Tag_conformance
	.cpu	cortex-m23
	.eabi_attribute	6, 16	@ Tag_CPU_arch
	.eabi_attribute	7, 77	@ Tag_CPU_arch_profile
	.eabi_attribute	8, 0	@ Tag_ARM_ISA_use
	.eabi_attribute	9, 3	@ Tag_THUMB_ISA_use
	.eabi_attribute	34, 0	@ Tag_CPU_unaligned_access
	.eabi_attribute	17, 1	@ Tag_ABI_PCS_GOT_use
	.eabi_attribute	20, 2	@ Tag_ABI_FP_denormal
	.eabi_attribute	21, 0	@ Tag_ABI_FP_exceptions
	.eabi_attribute	23, 1	@ Tag_ABI_FP_number_model
	.eabi_attribute	24, 1	@ Tag_ABI_align_needed
	.eabi_attribute	25, 1	@ Tag_ABI_align_preserved
	.eabi_attribute	38, 1	@ Tag_ABI_FP_16bit_format
	.eabi_attribute	18, 2	@ Tag_ABI_PCS_wchar_t
	.eabi_attribute	26, 1	@ Tag_ABI_enum_size
	.eabi_attribute	14, 0	@ Tag_ABI_PCS_R9_use
	.file	"gd32e23x_wwdgt.c"
	.file	1 "D:\\GD32\\GD32E230\\Oscilloscope\\Project" "../Firmware/GD32E23x_standard_peripheral/Include\\gd32e23x_rcu.h"
	.file	2 "D:\\GD32\\GD32E230\\Oscilloscope\\Project" "../Firmware/CMSIS/GD/GD32E23x/Include\\gd32e23x.h"
	.file	3 "D:\\Keil_arm\\ARM\\ARMCLANG\\Bin\\..\\include" "stdint.h"
	.section	.text.wwdgt_deinit,"ax",%progbits
	.hidden	wwdgt_deinit                    @ -- Begin function wwdgt_deinit
	.globl	wwdgt_deinit
	.p2align	2
	.type	wwdgt_deinit,%function
	.code	16                              @ @wwdgt_deinit
	.thumb_func
wwdgt_deinit:
.Lfunc_begin0:
	.file	4 "D:\\GD32\\GD32E230\\Oscilloscope\\Project" "../Firmware/GD32E23x_standard_peripheral/Source/gd32e23x_wwdgt.c"
	.loc	4 46 0                          @ ../Firmware/GD32E23x_standard_peripheral/Source/gd32e23x_wwdgt.c:46:0
	.fnstart
	.cfi_sections .debug_frame
	.cfi_startproc
@ %bb.0:
	.save	{r7, lr}
	push	{r7, lr}
	.cfi_def_cfa_offset 8
	.cfi_offset lr, -4
	.cfi_offset r7, -8
	.pad	#8
	sub	sp, #8
	.cfi_def_cfa_offset 16
	ldr	r0, __arm_cp.0_0
.Ltmp0:
	.loc	4 47 5 prologue_end             @ ../Firmware/GD32E23x_standard_peripheral/Source/gd32e23x_wwdgt.c:47:5
	str	r0, [sp, #4]                    @ 4-byte Spill
	bl	rcu_periph_reset_enable
	ldr	r0, [sp, #4]                    @ 4-byte Reload
	.loc	4 48 5                          @ ../Firmware/GD32E23x_standard_peripheral/Source/gd32e23x_wwdgt.c:48:5
	bl	rcu_periph_reset_disable
	.loc	4 49 1                          @ ../Firmware/GD32E23x_standard_peripheral/Source/gd32e23x_wwdgt.c:49:1
	add	sp, #8
	pop	{r7, pc}
.Ltmp1:
	.p2align	2
@ %bb.1:
	.loc	4 0 1 is_stmt 0                 @ ../Firmware/GD32E23x_standard_peripheral/Source/gd32e23x_wwdgt.c:0:1
__arm_cp.0_0:
	.long	1035                            @ 0x40b
.Lcpi_end0:
	.size	__arm_cp.0_0, .Lcpi_end0-__arm_cp.0_0
.Lfunc_end0:
	.size	wwdgt_deinit, .Lfunc_end0-wwdgt_deinit
	.cfi_endproc
	.cantunwind
	.fnend
                                        @ -- End function
	.section	.text.wwdgt_enable,"ax",%progbits
	.hidden	wwdgt_enable                    @ -- Begin function wwdgt_enable
	.globl	wwdgt_enable
	.p2align	2
	.type	wwdgt_enable,%function
	.code	16                              @ @wwdgt_enable
	.thumb_func
wwdgt_enable:
.Lfunc_begin1:
	.loc	4 58 0 is_stmt 1                @ ../Firmware/GD32E23x_standard_peripheral/Source/gd32e23x_wwdgt.c:58:0
	.fnstart
	.cfi_startproc
@ %bb.0:
	ldr	r1, __arm_cp.1_0
.Ltmp2:
	.loc	4 59 15 prologue_end            @ ../Firmware/GD32E23x_standard_peripheral/Source/gd32e23x_wwdgt.c:59:15
	ldr	r0, [r1]
	movs	r2, #128
	orrs	r0, r2
	str	r0, [r1]
	.loc	4 60 1                          @ ../Firmware/GD32E23x_standard_peripheral/Source/gd32e23x_wwdgt.c:60:1
	bx	lr
.Ltmp3:
	.p2align	2
@ %bb.1:
	.loc	4 0 1 is_stmt 0                 @ ../Firmware/GD32E23x_standard_peripheral/Source/gd32e23x_wwdgt.c:0:1
__arm_cp.1_0:
	.long	1073753088                      @ 0x40002c00
.Lcpi_end1:
	.size	__arm_cp.1_0, .Lcpi_end1-__arm_cp.1_0
.Lfunc_end1:
	.size	wwdgt_enable, .Lfunc_end1-wwdgt_enable
	.cfi_endproc
	.cantunwind
	.fnend
                                        @ -- End function
	.section	.text.wwdgt_counter_update,"ax",%progbits
	.hidden	wwdgt_counter_update            @ -- Begin function wwdgt_counter_update
	.globl	wwdgt_counter_update
	.p2align	2
	.type	wwdgt_counter_update,%function
	.code	16                              @ @wwdgt_counter_update
	.thumb_func
wwdgt_counter_update:
.Lfunc_begin2:
	.loc	4 69 0 is_stmt 1                @ ../Firmware/GD32E23x_standard_peripheral/Source/gd32e23x_wwdgt.c:69:0
	.fnstart
	.cfi_startproc
@ %bb.0:
	.pad	#4
	sub	sp, #4
	.cfi_def_cfa_offset 4
	mov	r1, r0
                                        @ kill: def $r0 killed $r1
	mov	r0, sp
	strh	r1, [r0]
.Ltmp4:
	.loc	4 70 28 prologue_end            @ ../Firmware/GD32E23x_standard_peripheral/Source/gd32e23x_wwdgt.c:70:28
	ldrh	r0, [r0]
	movs	r1, #127
	ands	r0, r1
	ldr	r1, __arm_cp.2_0
	.loc	4 70 15 is_stmt 0               @ ../Firmware/GD32E23x_standard_peripheral/Source/gd32e23x_wwdgt.c:70:15
	str	r0, [r1]
	.loc	4 71 1 is_stmt 1                @ ../Firmware/GD32E23x_standard_peripheral/Source/gd32e23x_wwdgt.c:71:1
	add	sp, #4
	bx	lr
.Ltmp5:
	.p2align	2
@ %bb.1:
	.loc	4 0 1 is_stmt 0                 @ ../Firmware/GD32E23x_standard_peripheral/Source/gd32e23x_wwdgt.c:0:1
__arm_cp.2_0:
	.long	1073753088                      @ 0x40002c00
.Lcpi_end2:
	.size	__arm_cp.2_0, .Lcpi_end2-__arm_cp.2_0
.Lfunc_end2:
	.size	wwdgt_counter_update, .Lfunc_end2-wwdgt_counter_update
	.cfi_endproc
	.cantunwind
	.fnend
                                        @ -- End function
	.section	.text.wwdgt_config,"ax",%progbits
	.hidden	wwdgt_config                    @ -- Begin function wwdgt_config
	.globl	wwdgt_config
	.p2align	2
	.type	wwdgt_config,%function
	.code	16                              @ @wwdgt_config
	.thumb_func
wwdgt_config:
.Lfunc_begin3:
	.loc	4 87 0 is_stmt 1                @ ../Firmware/GD32E23x_standard_peripheral/Source/gd32e23x_wwdgt.c:87:0
	.fnstart
	.cfi_startproc
@ %bb.0:
	.pad	#12
	sub	sp, #12
	.cfi_def_cfa_offset 12
	mov	r3, r1
	mov	r1, r0
                                        @ kill: def $r0 killed $r3
                                        @ kill: def $r0 killed $r1
	add	r0, sp, #8
	strh	r1, [r0]
	add	r1, sp, #4
	strh	r3, [r1]
	str	r2, [sp]
.Ltmp6:
	.loc	4 88 28 prologue_end            @ ../Firmware/GD32E23x_standard_peripheral/Source/gd32e23x_wwdgt.c:88:28
	ldrh	r2, [r1]
	movs	r1, #127
	ands	r2, r1
	.loc	4 88 46 is_stmt 0               @ ../Firmware/GD32E23x_standard_peripheral/Source/gd32e23x_wwdgt.c:88:46
	ldr	r3, [sp]
	.loc	4 88 44                         @ ../Firmware/GD32E23x_standard_peripheral/Source/gd32e23x_wwdgt.c:88:44
	orrs	r2, r3
	ldr	r3, __arm_cp.3_0
	.loc	4 88 15                         @ ../Firmware/GD32E23x_standard_peripheral/Source/gd32e23x_wwdgt.c:88:15
	str	r2, [r3]
	.loc	4 89 28 is_stmt 1               @ ../Firmware/GD32E23x_standard_peripheral/Source/gd32e23x_wwdgt.c:89:28
	ldrh	r0, [r0]
	ands	r0, r1
	ldr	r1, __arm_cp.3_1
	.loc	4 89 15 is_stmt 0               @ ../Firmware/GD32E23x_standard_peripheral/Source/gd32e23x_wwdgt.c:89:15
	str	r0, [r1]
	.loc	4 90 1 is_stmt 1                @ ../Firmware/GD32E23x_standard_peripheral/Source/gd32e23x_wwdgt.c:90:1
	add	sp, #12
	bx	lr
.Ltmp7:
	.p2align	2
@ %bb.1:
	.loc	4 0 1 is_stmt 0                 @ ../Firmware/GD32E23x_standard_peripheral/Source/gd32e23x_wwdgt.c:0:1
__arm_cp.3_0:
	.long	1073753092                      @ 0x40002c04
.Lcpi_end3:
	.size	__arm_cp.3_0, .Lcpi_end3-__arm_cp.3_0
__arm_cp.3_1:
	.long	1073753088                      @ 0x40002c00
.Lcpi_end4:
	.size	__arm_cp.3_1, .Lcpi_end4-__arm_cp.3_1
.Lfunc_end3:
	.size	wwdgt_config, .Lfunc_end3-wwdgt_config
	.cfi_endproc
	.cantunwind
	.fnend
                                        @ -- End function
	.section	.text.wwdgt_flag_get,"ax",%progbits
	.hidden	wwdgt_flag_get                  @ -- Begin function wwdgt_flag_get
	.globl	wwdgt_flag_get
	.p2align	2
	.type	wwdgt_flag_get,%function
	.code	16                              @ @wwdgt_flag_get
	.thumb_func
wwdgt_flag_get:
.Lfunc_begin4:
	.loc	4 99 0 is_stmt 1                @ ../Firmware/GD32E23x_standard_peripheral/Source/gd32e23x_wwdgt.c:99:0
	.fnstart
	.cfi_startproc
@ %bb.0:
	.pad	#4
	sub	sp, #4
	.cfi_def_cfa_offset 4
	ldr	r0, __arm_cp.4_0
.Ltmp8:
	.loc	4 100 16 prologue_end           @ ../Firmware/GD32E23x_standard_peripheral/Source/gd32e23x_wwdgt.c:100:16
	ldr	r0, [r0]
.Ltmp9:
	.loc	4 100 6 is_stmt 0               @ ../Firmware/GD32E23x_standard_peripheral/Source/gd32e23x_wwdgt.c:100:6
	lsls	r0, r0, #31
	cbz	r0, .LBB4_2
	b	.LBB4_1
.LBB4_1:
	.loc	4 0 6                           @ ../Firmware/GD32E23x_standard_peripheral/Source/gd32e23x_wwdgt.c:0:6
	mov	r1, sp
	movs	r0, #1
.Ltmp10:
	.loc	4 101 9 is_stmt 1               @ ../Firmware/GD32E23x_standard_peripheral/Source/gd32e23x_wwdgt.c:101:9
	strb	r0, [r1]
	b	.LBB4_3
.Ltmp11:
.LBB4_2:
	.loc	4 0 9 is_stmt 0                 @ ../Firmware/GD32E23x_standard_peripheral/Source/gd32e23x_wwdgt.c:0:9
	mov	r1, sp
	movs	r0, #0
	.loc	4 103 5 is_stmt 1               @ ../Firmware/GD32E23x_standard_peripheral/Source/gd32e23x_wwdgt.c:103:5
	strb	r0, [r1]
	b	.LBB4_3
.LBB4_3:
	.loc	4 0 5 is_stmt 0                 @ ../Firmware/GD32E23x_standard_peripheral/Source/gd32e23x_wwdgt.c:0:5
	mov	r0, sp
	.loc	4 104 1 is_stmt 1               @ ../Firmware/GD32E23x_standard_peripheral/Source/gd32e23x_wwdgt.c:104:1
	ldrb	r0, [r0]
	add	sp, #4
	bx	lr
.Ltmp12:
	.p2align	2
@ %bb.4:
	.loc	4 0 1 is_stmt 0                 @ ../Firmware/GD32E23x_standard_peripheral/Source/gd32e23x_wwdgt.c:0:1
__arm_cp.4_0:
	.long	1073753096                      @ 0x40002c08
.Lcpi_end5:
	.size	__arm_cp.4_0, .Lcpi_end5-__arm_cp.4_0
.Lfunc_end4:
	.size	wwdgt_flag_get, .Lfunc_end4-wwdgt_flag_get
	.cfi_endproc
	.cantunwind
	.fnend
                                        @ -- End function
	.section	.text.wwdgt_flag_clear,"ax",%progbits
	.hidden	wwdgt_flag_clear                @ -- Begin function wwdgt_flag_clear
	.globl	wwdgt_flag_clear
	.p2align	2
	.type	wwdgt_flag_clear,%function
	.code	16                              @ @wwdgt_flag_clear
	.thumb_func
wwdgt_flag_clear:
.Lfunc_begin5:
	.loc	4 113 0 is_stmt 1               @ ../Firmware/GD32E23x_standard_peripheral/Source/gd32e23x_wwdgt.c:113:0
	.fnstart
	.cfi_startproc
@ %bb.0:
	ldr	r1, __arm_cp.5_0
.Ltmp13:
	.loc	4 114 16 prologue_end           @ ../Firmware/GD32E23x_standard_peripheral/Source/gd32e23x_wwdgt.c:114:16
	ldr	r0, [r1]
	movs	r2, #1
	bics	r0, r2
	str	r0, [r1]
	.loc	4 115 1                         @ ../Firmware/GD32E23x_standard_peripheral/Source/gd32e23x_wwdgt.c:115:1
	bx	lr
.Ltmp14:
	.p2align	2
@ %bb.1:
	.loc	4 0 1 is_stmt 0                 @ ../Firmware/GD32E23x_standard_peripheral/Source/gd32e23x_wwdgt.c:0:1
__arm_cp.5_0:
	.long	1073753096                      @ 0x40002c08
.Lcpi_end6:
	.size	__arm_cp.5_0, .Lcpi_end6-__arm_cp.5_0
.Lfunc_end5:
	.size	wwdgt_flag_clear, .Lfunc_end5-wwdgt_flag_clear
	.cfi_endproc
	.cantunwind
	.fnend
                                        @ -- End function
	.section	.text.wwdgt_interrupt_enable,"ax",%progbits
	.hidden	wwdgt_interrupt_enable          @ -- Begin function wwdgt_interrupt_enable
	.globl	wwdgt_interrupt_enable
	.p2align	2
	.type	wwdgt_interrupt_enable,%function
	.code	16                              @ @wwdgt_interrupt_enable
	.thumb_func
wwdgt_interrupt_enable:
.Lfunc_begin6:
	.loc	4 124 0 is_stmt 1               @ ../Firmware/GD32E23x_standard_peripheral/Source/gd32e23x_wwdgt.c:124:0
	.fnstart
	.cfi_startproc
@ %bb.0:
	ldr	r1, __arm_cp.6_0
.Ltmp15:
	.loc	4 125 15 prologue_end           @ ../Firmware/GD32E23x_standard_peripheral/Source/gd32e23x_wwdgt.c:125:15
	ldr	r0, [r1]
	movw	r2, #512
	orrs	r0, r2
	str	r0, [r1]
	.loc	4 126 1                         @ ../Firmware/GD32E23x_standard_peripheral/Source/gd32e23x_wwdgt.c:126:1
	bx	lr
.Ltmp16:
	.p2align	2
@ %bb.1:
	.loc	4 0 1 is_stmt 0                 @ ../Firmware/GD32E23x_standard_peripheral/Source/gd32e23x_wwdgt.c:0:1
__arm_cp.6_0:
	.long	1073753092                      @ 0x40002c04
.Lcpi_end7:
	.size	__arm_cp.6_0, .Lcpi_end7-__arm_cp.6_0
.Lfunc_end6:
	.size	wwdgt_interrupt_enable, .Lfunc_end6-wwdgt_interrupt_enable
	.cfi_endproc
	.cantunwind
	.fnend
                                        @ -- End function
	.section	".note.GNU-stack","",%progbits
	.eabi_attribute	30, 6	@ Tag_ABI_optimization_goals
	.ARM_attribute	16, 1	@ Tag_AV_eba