	.text
	.syntax unified
	.eabi_attribute	67, "2.09"	@ Tag_conformance
	.cpu	cortex-m23
	.eabi_attribute	6, 16	@ Tag_CPU_arch
	.eabi_attribute	7, 77	@ Tag_CPU_arch_profile
	.eabi_attribute	8, 0	@ Tag_ARM_ISA_use
	.eabi_attribute	9, 3	@ Tag_THUMB_ISA_use
	.eabi_attribute	34, 0	@ Tag_CPU_unaligned_access
	.eabi_attribute	17, 1	@ Tag_ABI_PCS_GOT_use
	.eabi_attribute	20, 2	@ Tag_ABI_FP_denormal
	.eabi_attribute	21, 0	@ Tag_ABI_FP_exceptions
	.eabi_attribute	23, 1	@ Tag_ABI_FP_number_model
	.eabi_attribute	24, 1	@ Tag_ABI_align_needed
	.eabi_attribute	25, 1	@ Tag_ABI_align_preserved
	.eabi_attribute	38, 1	@ Tag_ABI_FP_16bit_format
	.eabi_attribute	18, 2	@ Tag_ABI_PCS_wchar_t
	.eabi_attribute	26, 1	@ Tag_ABI_enum_size
	.eabi_attribute	14, 0	@ Tag_ABI_PCS_R9_use
	.file	"gd32e23x_usart.c"
	.file	1 "D:\\GD32\\GD32E230\\Oscilloscope\\Project" "../Firmware/GD32E23x_standard_peripheral/Include\\gd32e23x_rcu.h"
	.file	2 "D:\\GD32\\GD32E230\\Oscilloscope\\Project" "../Firmware/GD32E23x_standard_peripheral/Include\\gd32e23x_usart.h"
	.file	3 "D:\\GD32\\GD32E230\\Oscilloscope\\Project" "../Firmware/CMSIS/GD/GD32E23x/Include\\gd32e23x.h"
	.file	4 "D:\\Keil_arm\\ARM\\ARMCLANG\\Bin\\..\\include" "stdint.h"
	.section	.text.usart_deinit,"ax",%progbits
	.hidden	usart_deinit                    @ -- Begin function usart_deinit
	.globl	usart_deinit
	.p2align	2
	.type	usart_deinit,%function
	.code	16                              @ @usart_deinit
	.thumb_func
usart_deinit:
.Lfunc_begin0:
	.file	5 "D:\\GD32\\GD32E230\\Oscilloscope\\Project" "../Firmware/GD32E23x_standard_peripheral/Source/gd32e23x_usart.c"
	.loc	5 44 0                          @ ../Firmware/GD32E23x_standard_peripheral/Source/gd32e23x_usart.c:44:0
	.fnstart
	.cfi_sections .debug_frame
	.cfi_startproc
@ %bb.0:
	.save	{r7, lr}
	push	{r7, lr}
	.cfi_def_cfa_offset 8
	.cfi_offset lr, -4
	.cfi_offset r7, -8
	.pad	#16
	sub	sp, #16
	.cfi_def_cfa_offset 24
	str	r0, [sp, #12]
.Ltmp0:
	.loc	5 45 12 prologue_end            @ ../Firmware/GD32E23x_standard_peripheral/Source/gd32e23x_usart.c:45:12
	ldr	r0, [sp, #12]
	str	r0, [sp, #8]                    @ 4-byte Spill
	ldr	r1, __arm_cp.0_0
	.loc	5 45 5 is_stmt 0                @ ../Firmware/GD32E23x_standard_peripheral/Source/gd32e23x_usart.c:45:5
	cmp	r0, r1
	beq	.LBB0_3
	b	.LBB0_1
.LBB0_1:
	.loc	5 0 5                           @ ../Firmware/GD32E23x_standard_peripheral/Source/gd32e23x_usart.c:0:5
	ldr	r0, [sp, #8]                    @ 4-byte Reload
	ldr	r1, __arm_cp.0_1
	.loc	5 45 5                          @ ../Firmware/GD32E23x_standard_peripheral/Source/gd32e23x_usart.c:45:5
	cmp	r0, r1
	bne	.LBB0_4
	b	.LBB0_2
.LBB0_2:
	.loc	5 0 5                           @ ../Firmware/GD32E23x_standard_peripheral/Source/gd32e23x_usart.c:0:5
	ldr	r0, __arm_cp.0_3
.Ltmp1:
	.loc	5 48 9 is_stmt 1                @ ../Firmware/GD32E23x_standard_peripheral/Source/gd32e23x_usart.c:48:9
	str	r0, [sp, #4]                    @ 4-byte Spill
	bl	rcu_periph_reset_enable
	ldr	r0, [sp, #4]                    @ 4-byte Reload
	.loc	5 49 9                          @ ../Firmware/GD32E23x_standard_peripheral/Source/gd32e23x_usart.c:49:9
	bl	rcu_periph_reset_disable
	.loc	5 50 9                          @ ../Firmware/GD32E23x_standard_peripheral/Source/gd32e23x_usart.c:50:9
	b	.LBB0_5
.LBB0_3:
	.loc	5 0 9 is_stmt 0                 @ ../Firmware/GD32E23x_standard_peripheral/Source/gd32e23x_usart.c:0:9
	ldr	r0, __arm_cp.0_2
	.loc	5 53 9 is_stmt 1                @ ../Firmware/GD32E23x_standard_peripheral/Source/gd32e23x_usart.c:53:9
	str	r0, [sp]                        @ 4-byte Spill
	bl	rcu_periph_reset_enable
	ldr	r0, [sp]                        @ 4-byte Reload
	.loc	5 54 9                          @ ../Firmware/GD32E23x_standard_peripheral/Source/gd32e23x_usart.c:54:9
	bl	rcu_periph_reset_disable
	.loc	5 55 9                          @ ../Firmware/GD32E23x_standard_peripheral/Source/gd32e23x_usart.c:55:9
	b	.LBB0_5
.LBB0_4:
	.loc	5 57 9                          @ ../Firmware/GD32E23x_standard_peripheral/Source/gd32e23x_usart.c:57:9
	b	.LBB0_5
.Ltmp2:
.LBB0_5:
	.loc	5 59 1                          @ ../Firmware/GD32E23x_standard_peripheral/Source/gd32e23x_usart.c:59:1
	add	sp, #16
	pop	{r7, pc}
.Ltmp3:
	.p2align	2
@ %bb.6:
	.loc	5 0 1 is_stmt 0                 @ ../Firmware/GD32E23x_standard_peripheral/Source/gd32e23x_usart.c:0:1
__arm_cp.0_0:
	.long	1073759232                      @ 0x40004400
.Lcpi_end0:
	.size	__arm_cp.0_0, .Lcpi_end0-__arm_cp.0_0
__arm_cp.0_1:
	.long	1073821696                      @ 0x40013800
.Lcpi_end1:
	.size	__arm_cp.0_1, .Lcpi_end1-__arm_cp.0_1
__arm_cp.0_2:
	.long	1041                            @ 0x411
.Lcpi_end2:
	.size	__arm_cp.0_2, .Lcpi_end2-__arm_cp.0_2
__arm_cp.0_3:
	.long	782                             @ 0x30e
.Lcpi_end3:
	.size	__arm_cp.0_3, .Lcpi_end3-__arm_cp.0_3
.Lfunc_end0:
	.size	usart_deinit, .Lfunc_end0-usart_deinit
	.cfi_endproc
	.cantunwind
	.fnend
                                        @ -- End function
	.section	.text.usart_baudrate_set,"ax",%progbits
	.hidden	usart_baudrate_set              @ -- Begin function usart_baudrate_set
	.globl	usart_baudrate_set
	.p2align	2
	.type	usart_baudrate_set,%function
	.code	16                              @ @usart_baudrate_set
	.thumb_func
usart_baudrate_set:
.Lfunc_begin1:
	.loc	5 69 0 is_stmt 1                @ ../Firmware/GD32E23x_standard_peripheral/Source/gd32e23x_usart.c:69:0
	.fnstart
	.cfi_startproc
@ %bb.0:
	.save	{r7, lr}
	push	{r7, lr}
	.cfi_def_cfa_offset 8
	.cfi_offset lr, -4
	.cfi_offset r7, -8
	.pad	#32
	sub	sp, #32
	.cfi_def_cfa_offset 40
	str	r0, [sp, #28]
	str	r1, [sp, #24]
	movs	r0, #0
.Ltmp4:
	.loc	5 70 14 prologue_end            @ ../Firmware/GD32E23x_standard_peripheral/Source/gd32e23x_usart.c:70:14
	str	r0, [sp, #20]
	.loc	5 70 25 is_stmt 0               @ ../Firmware/GD32E23x_standard_peripheral/Source/gd32e23x_usart.c:70:25
	str	r0, [sp, #16]
	.loc	5 70 38                         @ ../Firmware/GD32E23x_standard_peripheral/Source/gd32e23x_usart.c:70:38
	str	r0, [sp, #12]
	.loc	5 70 51                         @ ../Firmware/GD32E23x_standard_peripheral/Source/gd32e23x_usart.c:70:51
	str	r0, [sp, #8]
	.loc	5 71 12 is_stmt 1               @ ../Firmware/GD32E23x_standard_peripheral/Source/gd32e23x_usart.c:71:12
	ldr	r0, [sp, #28]
	str	r0, [sp, #4]                    @ 4-byte Spill
	ldr	r1, __arm_cp.1_0
	.loc	5 71 5 is_stmt 0                @ ../Firmware/GD32E23x_standard_peripheral/Source/gd32e23x_usart.c:71:5
	cmp	r0, r1
	beq	.LBB1_3
	b	.LBB1_1
.LBB1_1:
	.loc	5 0 5                           @ ../Firmware/GD32E23x_standard_peripheral/Source/gd32e23x_usart.c:0:5
	ldr	r0, [sp, #4]                    @ 4-byte Reload
	ldr	r1, __arm_cp.1_1
	.loc	5 71 5                          @ ../Firmware/GD32E23x_standard_peripheral/Source/gd32e23x_usart.c:71:5
	cmp	r0, r1
	bne	.LBB1_4
	b	.LBB1_2
.LBB1_2:
	.loc	5 0 5                           @ ../Firmware/GD32E23x_standard_peripheral/Source/gd32e23x_usart.c:0:5
	movs	r0, #5
.Ltmp5:
	.loc	5 75 17 is_stmt 1               @ ../Firmware/GD32E23x_standard_peripheral/Source/gd32e23x_usart.c:75:17
	bl	rcu_clock_freq_get
	.loc	5 75 15 is_stmt 0               @ ../Firmware/GD32E23x_standard_peripheral/Source/gd32e23x_usart.c:75:15
	str	r0, [sp, #20]
	.loc	5 76 10 is_stmt 1               @ ../Firmware/GD32E23x_standard_peripheral/Source/gd32e23x_usart.c:76:10
	b	.LBB1_5
.LBB1_3:
	.loc	5 0 10 is_stmt 0                @ ../Firmware/GD32E23x_standard_peripheral/Source/gd32e23x_usart.c:0:10
	movs	r0, #2
	.loc	5 79 17 is_stmt 1               @ ../Firmware/GD32E23x_standard_peripheral/Source/gd32e23x_usart.c:79:17
	bl	rcu_clock_freq_get
	.loc	5 79 15 is_stmt 0               @ ../Firmware/GD32E23x_standard_peripheral/Source/gd32e23x_usart.c:79:15
	str	r0, [sp, #20]
	.loc	5 80 10 is_stmt 1               @ ../Firmware/GD32E23x_standard_peripheral/Source/gd32e23x_usart.c:80:10
	b	.LBB1_5
.LBB1_4:
	.loc	5 82 10                         @ ../Firmware/GD32E23x_standard_peripheral/Source/gd32e23x_usart.c:82:10
	b	.LBB1_5
.Ltmp6:
.LBB1_5:
	.loc	5 84 8                          @ ../Firmware/GD32E23x_standard_peripheral/Source/gd32e23x_usart.c:84:8
	ldr	r0, [sp, #28]
	ldr	r0, [r0]
.Ltmp7:
	.loc	5 84 8 is_stmt 0                @ ../Firmware/GD32E23x_standard_peripheral/Source/gd32e23x_usart.c:84:8
	lsls	r0, r0, #16
	cmp	r0, #0
	bpl	.LBB1_7
	b	.LBB1_6
.LBB1_6:
.Ltmp8:
	.loc	5 86 21 is_stmt 1               @ ../Firmware/GD32E23x_standard_peripheral/Source/gd32e23x_usart.c:86:21
	ldr	r0, [sp, #20]
	.loc	5 86 20 is_stmt 0               @ ../Firmware/GD32E23x_standard_peripheral/Source/gd32e23x_usart.c:86:20
	lsls	r0, r0, #1
	.loc	5 86 27                         @ ../Firmware/GD32E23x_standard_peripheral/Source/gd32e23x_usart.c:86:27
	ldr	r1, [sp, #24]
	.loc	5 86 34                         @ ../Firmware/GD32E23x_standard_peripheral/Source/gd32e23x_usart.c:86:34
	lsrs	r2, r1, #1
	.loc	5 86 26                         @ ../Firmware/GD32E23x_standard_peripheral/Source/gd32e23x_usart.c:86:26
	adds	r0, r0, r2
	.loc	5 86 38                         @ ../Firmware/GD32E23x_standard_peripheral/Source/gd32e23x_usart.c:86:38
	udiv	r0, r0, r1
	.loc	5 86 14                         @ ../Firmware/GD32E23x_standard_peripheral/Source/gd32e23x_usart.c:86:14
	str	r0, [sp, #8]
	.loc	5 87 18 is_stmt 1               @ ../Firmware/GD32E23x_standard_peripheral/Source/gd32e23x_usart.c:87:18
	ldr	r0, [sp, #8]
	ldr	r1, __arm_cp.1_2
	.loc	5 87 23 is_stmt 0               @ ../Firmware/GD32E23x_standard_peripheral/Source/gd32e23x_usart.c:87:23
	ands	r0, r1
	.loc	5 87 16                         @ ../Firmware/GD32E23x_standard_peripheral/Source/gd32e23x_usart.c:87:16
	str	r0, [sp, #16]
	.loc	5 88 19 is_stmt 1               @ ../Firmware/GD32E23x_standard_peripheral/Source/gd32e23x_usart.c:88:19
	ldr	r0, [sp, #8]
	.loc	5 88 29 is_stmt 0               @ ../Firmware/GD32E23x_standard_peripheral/Source/gd32e23x_usart.c:88:29
	lsls	r0, r0, #28
	lsrs	r0, r0, #29
	.loc	5 88 16                         @ ../Firmware/GD32E23x_standard_peripheral/Source/gd32e23x_usart.c:88:16
	str	r0, [sp, #12]
	add	r0, sp, #16
	.loc	5 89 80 is_stmt 1               @ ../Firmware/GD32E23x_standard_peripheral/Source/gd32e23x_usart.c:89:80
	ldrh	r0, [r0]
	add	r1, sp, #12
	.loc	5 89 89 is_stmt 0               @ ../Firmware/GD32E23x_standard_peripheral/Source/gd32e23x_usart.c:89:89
	ldrh	r1, [r1]
	.loc	5 89 87                         @ ../Firmware/GD32E23x_standard_peripheral/Source/gd32e23x_usart.c:89:87
	orrs	r0, r1
	.loc	5 89 9                          @ ../Firmware/GD32E23x_standard_peripheral/Source/gd32e23x_usart.c:89:9
	ldr	r1, [sp, #28]
	.loc	5 89 34                         @ ../Firmware/GD32E23x_standard_peripheral/Source/gd32e23x_usart.c:89:34
	str	r0, [r1, #12]
	.loc	5 90 5 is_stmt 1                @ ../Firmware/GD32E23x_standard_peripheral/Source/gd32e23x_usart.c:90:5
	b	.LBB1_8
.Ltmp9:
.LBB1_7:
	.loc	5 92 17                         @ ../Firmware/GD32E23x_standard_peripheral/Source/gd32e23x_usart.c:92:17
	ldr	r0, [sp, #20]
	.loc	5 92 22 is_stmt 0               @ ../Firmware/GD32E23x_standard_peripheral/Source/gd32e23x_usart.c:92:22
	ldr	r1, [sp, #24]
	.loc	5 92 29                         @ ../Firmware/GD32E23x_standard_peripheral/Source/gd32e23x_usart.c:92:29
	lsrs	r2, r1, #1
	.loc	5 92 21                         @ ../Firmware/GD32E23x_standard_peripheral/Source/gd32e23x_usart.c:92:21
	adds	r0, r0, r2
	.loc	5 92 33                         @ ../Firmware/GD32E23x_standard_peripheral/Source/gd32e23x_usart.c:92:33
	udiv	r0, r0, r1
	.loc	5 92 14                         @ ../Firmware/GD32E23x_standard_peripheral/Source/gd32e23x_usart.c:92:14
	str	r0, [sp, #8]
	.loc	5 93 18 is_stmt 1               @ ../Firmware/GD32E23x_standard_peripheral/Source/gd32e23x_usart.c:93:18
	ldr	r0, [sp, #8]
	ldr	r1, __arm_cp.1_2
	.loc	5 93 23 is_stmt 0               @ ../Firmware/GD32E23x_standard_peripheral/Source/gd32e23x_usart.c:93:23
	ands	r0, r1
	.loc	5 93 16                         @ ../Firmware/GD32E23x_standard_peripheral/Source/gd32e23x_usart.c:93:16
	str	r0, [sp, #16]
	.loc	5 94 18 is_stmt 1               @ ../Firmware/GD32E23x_standard_peripheral/Source/gd32e23x_usart.c:94:18
	ldr	r0, [sp, #8]
	movs	r1, #15
	.loc	5 94 23 is_stmt 0               @ ../Firmware/GD32E23x_standard_peripheral/Source/gd32e23x_usart.c:94:23
	ands	r0, r1
	.loc	5 94 16                         @ ../Firmware/GD32E23x_standard_peripheral/Source/gd32e23x_usart.c:94:16
	str	r0, [sp, #12]
	add	r0, sp, #16
	.loc	5 95 80 is_stmt 1               @ ../Firmware/GD32E23x_standard_peripheral/Source/gd32e23x_usart.c:95:80
	ldrh	r0, [r0]
	add	r1, sp, #12
	.loc	5 95 89 is_stmt 0               @ ../Firmware/GD32E23x_standard_peripheral/Source/gd32e23x_usart.c:95:89
	ldrh	r1, [r1]
	.loc	5 95 87                         @ ../Firmware/GD32E23x_standard_peripheral/Source/gd32e23x_usart.c:95:87
	orrs	r0, r1
	.loc	5 95 9                          @ ../Firmware/GD32E23x_standard_peripheral/Source/gd32e23x_usart.c:95:9
	ldr	r1, [sp, #28]
	.loc	5 95 34                         @ ../Firmware/GD32E23x_standard_peripheral/Source/gd32e23x_usart.c:95:34
	str	r0, [r1, #12]
	b	.LBB1_8
.Ltmp10:
.LBB1_8:
	.loc	5 97 1 is_stmt 1                @ ../Firmware/GD32E23x_standard_peripheral/Source/gd32e23x_usart.c:97:1
	add	sp, #32
	pop	{r7, pc}
.Ltmp11:
	.p2align	2
@ %bb.9:
	.loc	5 0 1 is_stmt 0                 @ ../Firmware/GD32E23x_standard_peripheral/Source/gd32e23x_usart.c:0:1
__arm_cp.1_0:
	.long	1073759232                      @ 0x40004400
.Lcpi_end4:
	.size	__arm_cp.1_0, .Lcpi_end4-__arm_cp.1_0
__arm_cp.1_1:
	.long	1073821696                      @ 0x40013800
.Lcpi_end5:
	.size	__arm_cp.1_1, .Lcpi_end5-__arm_cp.1_1
__arm_cp.1_2:
	.long	65520                           @ 0xfff0
.Lcpi_end6:
	.size	__arm_cp.1_2, .Lcpi_end6-__arm_cp.1_2
.Lfunc_end1:
	.size	usart_baudrate_set, .Lfunc_end1-usart_baudrate_set
	.cfi_endproc
	.cantunwind
	.fnend
                                        @ -- End function
	.section	.text.usart_parity_config,"ax",%progbits
	.hidden	usart_parity_config             @ -- Begin function usart_parity_config
	.globl	usart_parity_config
	.p2align	1
	.type	usart_parity_config,%function
	.code	16                              @ @usart_parity_config
	.thumb_func
usart_parity_config:
.Lfunc_begin2:
	.loc	5 111 0 is_stmt 1               @ ../Firmware/GD32E23x_standard_peripheral/Source/gd32e23x_usart.c:111:0
	.fnstart
	.cfi_startproc
@ %bb.0:
	.pad	#8
	sub	sp, #8
	.cfi_def_cfa_offset 8
	str	r0, [sp, #4]
	str	r1, [sp]
.Ltmp12:
	.loc	5 113 5 prologue_end            @ ../Firmware/GD32E23x_standard_peripheral/Source/gd32e23x_usart.c:113:5
	ldr	r1, [sp, #4]
	.loc	5 113 30 is_stmt 0              @ ../Firmware/GD32E23x_standard_peripheral/Source/gd32e23x_usart.c:113:30
	ldr	r0, [r1]
	movs	r2, #1
	bics	r0, r2
	str	r0, [r1]
	.loc	5 115 5 is_stmt 1               @ ../Firmware/GD32E23x_standard_peripheral/Source/gd32e23x_usart.c:115:5
	ldr	r1, [sp, #4]
	.loc	5 115 30 is_stmt 0              @ ../Firmware/GD32E23x_standard_peripheral/Source/gd32e23x_usart.c:115:30
	ldr	r0, [r1]
	movw	r2, #1536
	bics	r0, r2
	str	r0, [r1]
	.loc	5 117 33 is_stmt 1              @ ../Firmware/GD32E23x_standard_peripheral/Source/gd32e23x_usart.c:117:33
	ldr	r2, [sp]
	.loc	5 117 5 is_stmt 0               @ ../Firmware/GD32E23x_standard_peripheral/Source/gd32e23x_usart.c:117:5
	ldr	r1, [sp, #4]
	.loc	5 117 30                        @ ../Firmware/GD32E23x_standard_peripheral/Source/gd32e23x_usart.c:117:30
	ldr	r0, [r1]
	orrs	r0, r2
	str	r0, [r1]
	.loc	5 118 1 is_stmt 1               @ ../Firmware/GD32E23x_standard_peripheral/Source/gd32e23x_usart.c:118:1
	add	sp, #8
	bx	lr
.Ltmp13:
.Lfunc_end2:
	.size	usart_parity_config, .Lfunc_end2-usart_parity_config
	.cfi_endproc
	.cantunwind
	.fnend
                                        @ -- End function
	.section	.text.usart_word_length_set,"ax",%progbits
	.hidden	usart_word_length_set           @ -- Begin function usart_word_length_set
	.globl	usart_word_length_set
	.p2align	1
	.type	usart_word_length_set,%function
	.code	16                              @ @usart_word_length_set
	.thumb_func
usart_word_length_set:
.Lfunc_begin3:
	.loc	5 131 0                         @ ../Firmware/GD32E23x_standard_peripheral/Source/gd32e23x_usart.c:131:0
	.fnstart
	.cfi_startproc
@ %bb.0:
	.pad	#8
	sub	sp, #8
	.cfi_def_cfa_offset 8
	str	r0, [sp, #4]
	str	r1, [sp]
.Ltmp14:
	.loc	5 133 5 prologue_end            @ ../Firmware/GD32E23x_standard_peripheral/Source/gd32e23x_usart.c:133:5
	ldr	r1, [sp, #4]
	.loc	5 133 30 is_stmt 0              @ ../Firmware/GD32E23x_standard_peripheral/Source/gd32e23x_usart.c:133:30
	ldr	r0, [r1]
	movs	r2, #1
	bics	r0, r2
	str	r0, [r1]
	.loc	5 135 5 is_stmt 1               @ ../Firmware/GD32E23x_standard_peripheral/Source/gd32e23x_usart.c:135:5
	ldr	r1, [sp, #4]
	.loc	5 135 30 is_stmt 0              @ ../Firmware/GD32E23x_standard_peripheral/Source/gd32e23x_usart.c:135:30
	ldr	r0, [r1]
	movw	r2, #4096
	bics	r0, r2
	str	r0, [r1]
	.loc	5 137 33 is_stmt 1              @ ../Firmware/GD32E23x_standard_peripheral/Source/gd32e23x_usart.c:137:33
	ldr	r2, [sp]
	.loc	5 137 5 is_stmt 0               @ ../Firmware/GD32E23x_standard_peripheral/Source/gd32e23x_usart.c:137:5
	ldr	r1, [sp, #4]
	.loc	5 137 30                        @ ../Firmware/GD32E23x_standard_peripheral/Source/gd32e23x_usart.c:137:30
	ldr	r0, [r1]
	orrs	r0, r2
	str	r0, [r1]
	.loc	5 138 1 is_stmt 1               @ ../Firmware/GD32E23x_standard_peripheral/Source/gd32e23x_usart.c:138:1
	add	sp, #8
	bx	lr
.Ltmp15:
.Lfunc_end3:
	.size	usart_word_length_set, .Lfunc_end3-usart_word_length_set
	.cfi_endproc
	.cantunwind
	.fnend
                                        @ -- End function
	.section	.text.usart_stop_bit_set,"ax",%progbits
	.hidden	usart_stop_bit_set              @ -- Begin function usart_stop_bit_set
	.globl	usart_stop_bit_set
	.p2align	1
	.type	usart_stop_bit_set,%function
	.code	16                              @ @usart_stop_bit_set
	.thumb_func
usart_stop_bit_set:
.Lfunc_begin4:
	.loc	5 153 0                         @ ../Firmware/GD32E23x_standard_peripheral/Source/gd32e23x_usart.c:153:0
	.fnstart
	.cfi_startproc
@ %bb.0:
	.pad	#8
	sub	sp, #8
	.cfi_def_cfa_offset 8
	str	r0, [sp, #4]
	str	r1, [sp]
.Ltmp16:
	.loc	5 155 5 prologue_end            @ ../Firmware/GD32E23x_standard_peripheral/Source/gd32e23x_usart.c:155:5
	ldr	r1, [sp, #4]
	.loc	5 155 30 is_stmt 0              @ ../Firmware/GD32E23x_standard_peripheral/Source/gd32e23x_usart.c:155:30
	ldr	r0, [r1]
	movs	r2, #1
	bics	r0, r2
	str	r0, [r1]
	.loc	5 157 5 is_stmt 1               @ ../Firmware/GD32E23x_standard_peripheral/Source/gd32e23x_usart.c:157:5
	ldr	r1, [sp, #4]
	.loc	5 157 30 is_stmt 0              @ ../Firmware/GD32E23x_standard_peripheral/Source/gd32e23x_usart.c:157:30
	ldr	r0, [r1, #4]
	movw	r2, #12288
	bics	r0, r2
	str	r0, [r1, #4]
	.loc	5 158 33 is_stmt 1              @ ../Firmware/GD32E23x_standard_peripheral/Source/gd32e23x_usart.c:158:33
	ldr	r2, [sp]
	.loc	5 158 5 is_stmt 0               @ ../Firmware/GD32E23x_standard_peripheral/Source/gd32e23x_usart.c:158:5
	ldr	r1, [sp, #4]
	.loc	5 158 30                        @ ../Firmware/GD32E23x_standard_peripheral/Source/gd32e23x_usart.c:158:30
	ldr	r0, [r1, #4]
	orrs	r0, r2
	str	r0, [r1, #4]
	.loc	5 159 1 is_stmt 1               @ ../Firmware/GD32E23x_standard_peripheral/Source/gd32e23x_usart.c:159:1
	add	sp, #8
	bx	lr
.Ltmp17:
.Lfunc_end4:
	.size	usart_stop_bit_set, .Lfunc_end4-usart_stop_bit_set
	.cfi_endproc
	.cantunwind
	.fnend
                                        @ -- End function
	.section	.text.usart_enable,"ax",%progbits
	.hidden	usart_enable                    @ -- Begin function usart_enable
	.globl	usart_enable
	.p2align	1
	.type	usart_enable,%function
	.code	16                              @ @usart_enable
	.thumb_func
usart_enable:
.Lfunc_begin5:
	.loc	5 168 0                         @ ../Firmware/GD32E23x_standard_peripheral/Source/gd32e23x_usart.c:168:0
	.fnstart
	.cfi_startproc
@ %bb.0:
	.pad	#4
	sub	sp, #4
	.cfi_def_cfa_offset 4
	str	r0, [sp]
.Ltmp18:
	.loc	5 169 5 prologue_end            @ ../Firmware/GD32E23x_standard_peripheral/Source/gd32e23x_usart.c:169:5
	ldr	r1, [sp]
	.loc	5 169 30 is_stmt 0              @ ../Firmware/GD32E23x_standard_peripheral/Source/gd32e23x_usart.c:169:30
	ldr	r0, [r1]
	movs	r2, #1
	orrs	r0, r2
	str	r0, [r1]
	.loc	5 170 1 is_stmt 1               @ ../Firmware/GD32E23x_standard_peripheral/Source/gd32e23x_usart.c:170:1
	add	sp, #4
	bx	lr
.Ltmp19:
.Lfunc_end5:
	.size	usart_enable, .Lfunc_end5-usart_enable
	.cfi_endproc
	.cantunwind
	.fnend
                                        @ -- End function
	.section	.text.usart_disable,"ax",%progbits
	.hidden	usart_disable                   @ -- Begin function usart_disable
	.globl	usart_disable
	.p2align	1
	.type	usart_disable,%function
	.code	16                              @ @usart_disable
	.thumb_func
usart_disable:
.Lfunc_begin6:
	.loc	5 179 0                         @ ../Firmware/GD32E23x_standard_peripheral/Source/gd32e23x_usart.c:179:0
	.fnstart
	.cfi_startproc
@ %bb.0:
	.pad	#4
	sub	sp, #4
	.cfi_def_cfa_offset 4
	str	r0, [sp]
.Ltmp20:
	.loc	5 180 5 prologue_end            @ ../Firmware/GD32E23x_standard_peripheral/Source/gd32e23x_usart.c:180:5
	ldr	r1, [sp]
	.loc	5 180 30 is_stmt 0              @ ../Firmware/GD32E23x_standard_peripheral/Source/gd32e23x_usart.c:180:30
	ldr	r0, [r1]
	movs	r2, #1
	bics	r0, r2
	str	r0, [r1]
	.loc	5 181 1 is_stmt 1               @ ../Firmware/GD32E23x_standard_peripheral/Source/gd32e23x_usart.c:181:1
	add	sp, #4
	bx	lr
.Ltmp21:
.Lfunc_end6:
	.size	usart_disable, .Lfunc_end6-usart_disable
	.cfi_endproc
	.cantunwind
	.fnend
                                        @ -- End function
	.section	.text.usart_transmit_config,"ax",%progbits
	.hidden	usart_transmit_config           @ -- Begin function usart_transmit_config
	.globl	usart_transmit_config
	.p2align	1
	.type	usart_transmit_config,%function
	.code	16                              @ @usart_transmit_config
	.thumb_func
usart_transmit_config:
.Lfunc_begin7:
	.loc	5 194 0                         @ ../Firmware/GD32E23x_standard_peripheral/Source/gd32e23x_usart.c:194:0
	.fnstart
	.cfi_startproc
@ %bb.0:
	.pad	#8
	sub	sp, #8
	.cfi_def_cfa_offset 8
	str	r0, [sp, #4]
	str	r1, [sp]
.Ltmp22:
	.loc	5 195 5 prologue_end            @ ../Firmware/GD32E23x_standard_peripheral/Source/gd32e23x_usart.c:195:5
	ldr	r1, [sp, #4]
	.loc	5 195 30 is_stmt 0              @ ../Firmware/GD32E23x_standard_peripheral/Source/gd32e23x_usart.c:195:30
	ldr	r0, [r1]
	movs	r2, #8
	bics	r0, r2
	str	r0, [r1]
	.loc	5 197 33 is_stmt 1              @ ../Firmware/GD32E23x_standard_peripheral/Source/gd32e23x_usart.c:197:33
	ldr	r2, [sp]
	.loc	5 197 5 is_stmt 0               @ ../Firmware/GD32E23x_standard_peripheral/Source/gd32e23x_usart.c:197:5
	ldr	r1, [sp, #4]
	.loc	5 197 30                        @ ../Firmware/GD32E23x_standard_peripheral/Source/gd32e23x_usart.c:197:30
	ldr	r0, [r1]
	orrs	r0, r2
	str	r0, [r1]
	.loc	5 198 1 is_stmt 1               @ ../Firmware/GD32E23x_standard_peripheral/Source/gd32e23x_usart.c:198:1
	add	sp, #8
	bx	lr
.Ltmp23:
.Lfunc_end7:
	.size	usart_transmit_config, .Lfunc_end7-usart_transmit_config
	.cfi_endproc
	.cantunwind
	.fnend
                                        @ -- End function
	.section	.text.usart_receive_config,"ax",%progbits
	.hidden	usart_receive_config            @ -- Begin function usart_receive_config
	.globl	usart_receive_config
	.p2align	1
	.type	usart_receive_config,%function
	.code	16                              @ @usart_receive_config
	.thumb_func
usart_receive_config:
.Lfunc_begin8:
	.loc	5 211 0                         @ ../Firmware/GD32E23x_standard_peripheral/Source/gd32e23x_usart.c:211:0
	.fnstart
	.cfi_startproc
@ %bb.0:
	.pad	#8
	sub	sp, #8
	.cfi_def_cfa_offset 8
	str	r0, [sp, #4]
	str	r1, [sp]
.Ltmp24:
	.loc	5 212 5 prologue_end            @ ../Firmware/GD32E23x_standard_peripheral/Source/gd32e23x_usart.c:212:5
	ldr	r1, [sp, #4]
	.loc	5 212 30 is_stmt 0              @ ../Firmware/GD32E23x_standard_peripheral/Source/gd32e23x_usart.c:212:30
	ldr	r0, [r1]
	movs	r2, #4
	bics	r0, r2
	str	r0, [r1]
	.loc	5 214 33 is_stmt 1              @ ../Firmware/GD32E23x_standard_peripheral/Source/gd32e23x_usart.c:214:33
	ldr	r2, [sp]
	.loc	5 214 5 is_stmt 0               @ ../Firmware/GD32E23x_standard_peripheral/Source/gd32e23x_usart.c:214:5
	ldr	r1, [sp, #4]
	.loc	5 214 30                        @ ../Firmware/GD32E23x_standard_peripheral/Source/gd32e23x_usart.c:214:30
	ldr	r0, [r1]
	orrs	r0, r2
	str	r0, [r1]
	.loc	5 215 1 is_stmt 1               @ ../Firmware/GD32E23x_standard_peripheral/Source/gd32e23x_usart.c:215:1
	add	sp, #8
	bx	lr
.Ltmp25:
.Lfunc_end8:
	.size	usart_receive_config, .Lfunc_end8-usart_receive_config
	.cfi_endproc
	.cantunwind
	.fnend
                                        @ -- End function
	.section	.text.usart_data_first_config,"ax",%progbits
	.hidden	usart_data_first_config         @ -- Begin function usart_data_first_config
	.globl	usart_data_first_config
	.p2align	1
	.type	usart_data_first_config,%function
	.code	16                              @ @usart_data_first_config
	.thumb_func
usart_data_first_config:
.Lfunc_begin9:
	.loc	5 228 0                         @ ../Firmware/GD32E23x_standard_peripheral/Source/gd32e23x_usart.c:228:0
	.fnstart
	.cfi_startproc
@ %bb.0:
	.pad	#8
	sub	sp, #8
	.cfi_def_cfa_offset 8
	str	r0, [sp, #4]
	str	r1, [sp]
.Ltmp26:
	.loc	5 229 5 prologue_end            @ ../Firmware/GD32E23x_standard_peripheral/Source/gd32e23x_usart.c:229:5
	ldr	r2, [sp, #4]
	.loc	5 229 30 is_stmt 0              @ ../Firmware/GD32E23x_standard_peripheral/Source/gd32e23x_usart.c:229:30
	ldr	r1, [r2]
	movs	r0, #1
	bics	r1, r0
	str	r1, [r2]
	.loc	5 231 5 is_stmt 1               @ ../Firmware/GD32E23x_standard_peripheral/Source/gd32e23x_usart.c:231:5
	ldr	r2, [sp, #4]
	.loc	5 231 30 is_stmt 0              @ ../Firmware/GD32E23x_standard_peripheral/Source/gd32e23x_usart.c:231:30
	ldr	r1, [r2, #4]
	lsls	r0, r0, #19
	bics	r1, r0
	str	r1, [r2, #4]
	.loc	5 232 52 is_stmt 1              @ ../Firmware/GD32E23x_standard_peripheral/Source/gd32e23x_usart.c:232:52
	ldr	r2, [sp]
	.loc	5 232 50 is_stmt 0              @ ../Firmware/GD32E23x_standard_peripheral/Source/gd32e23x_usart.c:232:50
	ands	r2, r0
	.loc	5 232 5                         @ ../Firmware/GD32E23x_standard_peripheral/Source/gd32e23x_usart.c:232:5
	ldr	r1, [sp, #4]
	.loc	5 232 30                        @ ../Firmware/GD32E23x_standard_peripheral/Source/gd32e23x_usart.c:232:30
	ldr	r0, [r1, #4]
	orrs	r0, r2
	str	r0, [r1, #4]
	.loc	5 233 1 is_stmt 1               @ ../Firmware/GD32E23x_standard_peripheral/Source/gd32e23x_usart.c:233:1
	add	sp, #8
	bx	lr
.Ltmp27:
.Lfunc_end9:
	.size	usart_data_first_config, .Lfunc_end9-usart_data_first_config
	.cfi_endproc
	.cantunwind
	.fnend
                                        @ -- End function
	.section	.text.usart_invert_config,"ax",%progbits
	.hidden	usart_invert_config             @ -- Begin function usart_invert_config
	.globl	usart_invert_config
	.p2align	2
	.type	usart_invert_config,%function
	.code	16                              @ @usart_invert_config
	.thumb_func
usart_invert_config:
.Lfunc_begin10:
	.loc	5 252 0                         @ ../Firmware/GD32E23x_standard_peripheral/Source/gd32e23x_usart.c:252:0
	.fnstart
	.cfi_startproc
@ %bb.0:
	.pad	#12
	sub	sp, #12
	.cfi_def_cfa_offset 12
                                        @ kill: def $r2 killed $r1
	str	r0, [sp, #8]
	add	r0, sp, #4
	strb	r1, [r0]
.Ltmp28:
	.loc	5 253 5 prologue_end            @ ../Firmware/GD32E23x_standard_peripheral/Source/gd32e23x_usart.c:253:5
	ldr	r2, [sp, #8]
	.loc	5 253 30 is_stmt 0              @ ../Firmware/GD32E23x_standard_peripheral/Source/gd32e23x_usart.c:253:30
	ldr	r1, [r2]
	movs	r3, #1
	bics	r1, r3
	str	r1, [r2]
	.loc	5 255 12 is_stmt 1              @ ../Firmware/GD32E23x_standard_peripheral/Source/gd32e23x_usart.c:255:12
	ldrb	r0, [r0]
	.loc	5 255 5 is_stmt 0               @ ../Firmware/GD32E23x_standard_peripheral/Source/gd32e23x_usart.c:255:5
	str	r0, [sp]                        @ 4-byte Spill
	cmp	r0, #7
	bhi	.LBB10_11
@ %bb.1:
	.loc	5 0 5                           @ ../Firmware/GD32E23x_standard_peripheral/Source/gd32e23x_usart.c:0:5
	ldr	r1, [sp]                        @ 4-byte Reload
	lsls	r2, r1, #2
	adr	r0, .LJTI10_0
	adds	r0, r0, r2
	mov	pc, r0
@ %bb.2:
	.p2align	2
.LJTI10_0:
	b.w	.LBB10_3
	b.w	.LBB10_4
	b.w	.LBB10_5
	b.w	.LBB10_6
	b.w	.LBB10_7
	b.w	.LBB10_8
	b.w	.LBB10_9
	b.w	.LBB10_10
.LBB10_3:
.Ltmp29:
	.loc	5 257 9 is_stmt 1               @ ../Firmware/GD32E23x_standard_peripheral/Source/gd32e23x_usart.c:257:9
	ldr	r1, [sp, #8]
	.loc	5 257 34 is_stmt 0              @ ../Firmware/GD32E23x_standard_peripheral/Source/gd32e23x_usart.c:257:34
	ldr	r0, [r1, #4]
	movs	r2, #1
	lsls	r2, r2, #18
	orrs	r0, r2
	str	r0, [r1, #4]
	.loc	5 258 9 is_stmt 1               @ ../Firmware/GD32E23x_standard_peripheral/Source/gd32e23x_usart.c:258:9
	b	.LBB10_12
.LBB10_4:
	.loc	5 260 9                         @ ../Firmware/GD32E23x_standard_peripheral/Source/gd32e23x_usart.c:260:9
	ldr	r1, [sp, #8]
	.loc	5 260 34 is_stmt 0              @ ../Firmware/GD32E23x_standard_peripheral/Source/gd32e23x_usart.c:260:34
	ldr	r0, [r1, #4]
	movs	r2, #1
	lsls	r2, r2, #18
	bics	r0, r2
	str	r0, [r1, #4]
	.loc	5 261 9 is_stmt 1               @ ../Firmware/GD32E23x_standard_peripheral/Source/gd32e23x_usart.c:261:9
	b	.LBB10_12
.LBB10_5:
	.loc	5 263 9                         @ ../Firmware/GD32E23x_standard_peripheral/Source/gd32e23x_usart.c:263:9
	ldr	r1, [sp, #8]
	.loc	5 263 34 is_stmt 0              @ ../Firmware/GD32E23x_standard_peripheral/Source/gd32e23x_usart.c:263:34
	ldr	r0, [r1, #4]
	movs	r2, #1
	lsls	r2, r2, #17
	orrs	r0, r2
	str	r0, [r1, #4]
	.loc	5 264 9 is_stmt 1               @ ../Firmware/GD32E23x_standard_peripheral/Source/gd32e23x_usart.c:264:9
	b	.LBB10_12
.LBB10_6:
	.loc	5 266 9                         @ ../Firmware/GD32E23x_standard_peripheral/Source/gd32e23x_usart.c:266:9
	ldr	r1, [sp, #8]
	.loc	5 266 34 is_stmt 0              @ ../Firmware/GD32E23x_standard_peripheral/Source/gd32e23x_usart.c:266:34
	ldr	r0, [r1, #4]
	movs	r2, #1
	lsls	r2, r2, #17
	bics	r0, r2
	str	r0, [r1, #4]
	.loc	5 267 9 is_stmt 1               @ ../Firmware/GD32E23x_standard_peripheral/Source/gd32e23x_usart.c:267:9
	b	.LBB10_12
.LBB10_7:
	.loc	5 269 9                         @ ../Firmware/GD32E23x_standard_peripheral/Source/gd32e23x_usart.c:269:9
	ldr	r1, [sp, #8]
	.loc	5 269 34 is_stmt 0              @ ../Firmware/GD32E23x_standard_peripheral/Source/gd32e23x_usart.c:269:34
	ldr	r0, [r1, #4]
	movs	r2, #1
	lsls	r2, r2, #16
	orrs	r0, r2
	str	r0, [r1, #4]
	.loc	5 270 9 is_stmt 1               @ ../Firmware/GD32E23x_standard_peripheral/Source/gd32e23x_usart.c:270:9
	b	.LBB10_12
.LBB10_8:
	.loc	5 272 9                         @ ../Firmware/GD32E23x_standard_peripheral/Source/gd32e23x_usart.c:272:9
	ldr	r1, [sp, #8]
	.loc	5 272 34 is_stmt 0              @ ../Firmware/GD32E23x_standard_peripheral/Source/gd32e23x_usart.c:272:34
	ldr	r0, [r1, #4]
	movs	r2, #1
	lsls	r2, r2, #16
	bics	r0, r2
	str	r0, [r1, #4]
	.loc	5 273 9 is_stmt 1               @ ../Firmware/GD32E23x_standard_peripheral/Source/gd32e23x_usart.c:273:9
	b	.LBB10_12
.LBB10_9:
	.loc	5 275 9                         @ ../Firmware/GD32E23x_standard_peripheral/Source/gd32e23x_usart.c:275:9
	ldr	r1, [sp, #8]
	.loc	5 275 34 is_stmt 0              @ ../Firmware/GD32E23x_standard_peripheral/Source/gd32e23x_usart.c:275:34
	ldr	r0, [r1, #4]
	movw	r2, #32768
	orrs	r0, r2
	str	r0, [r1, #4]
	.loc	5 276 9 is_stmt 1               @ ../Firmware/GD32E23x_standard_peripheral/Source/gd32e23x_usart.c:276:9
	b	.LBB10_12
.LBB10_10:
	.loc	5 278 9                         @ ../Firmware/GD32E23x_standard_peripheral/Source/gd32e23x_usart.c:278:9
	ldr	r1, [sp, #8]
	.loc	5 278 34 is_stmt 0              @ ../Firmware/GD32E23x_standard_peripheral/Source/gd32e23x_usart.c:278:34
	ldr	r0, [r1, #4]
	movw	r2, #32768
	bics	r0, r2
	str	r0, [r1, #4]
	.loc	5 279 9 is_stmt 1               @ ../Firmware/GD32E23x_standard_peripheral/Source/gd32e23x_usart.c:279:9
	b	.LBB10_12
.LBB10_11:
	.loc	5 281 9                         @ ../Firmware/GD32E23x_standard_peripheral/Source/gd32e23x_usart.c:281:9
	b	.LBB10_12
.Ltmp30:
.LBB10_12:
	.loc	5 283 1                         @ ../Firmware/GD32E23x_standard_peripheral/Source/gd32e23x_usart.c:283:1
	add	sp, #12
	bx	lr
.Ltmp31:
.Lfunc_end10:
	.size	usart_invert_config, .Lfunc_end10-usart_invert_config
	.cfi_endproc
	.cantunwind
	.fnend
                                        @ -- End function
	.section	.text.usart_overrun_enable,"ax",%progbits
	.hidden	usart_overrun_enable            @ -- Begin function usart_overrun_enable
	.globl	usart_overrun_enable
	.p2align	1
	.type	usart_overrun_enable,%function
	.code	16                              @ @usart_overrun_enable
	.thumb_func
usart_overrun_enable:
.Lfunc_begin11:
	.loc	5 292 0                         @ ../Firmware/GD32E23x_standard_peripheral/Source/gd32e23x_usart.c:292:0
	.fnstart
	.cfi_startproc
@ %bb.0:
	.pad	#4
	sub	sp, #4
	.cfi_def_cfa_offset 4
	str	r0, [sp]
.Ltmp32:
	.loc	5 293 5 prologue_end            @ ../Firmware/GD32E23x_standard_peripheral/Source/gd32e23x_usart.c:293:5
	ldr	r1, [sp]
	.loc	5 293 30 is_stmt 0              @ ../Firmware/GD32E23x_standard_peripheral/Source/gd32e23x_usart.c:293:30
	ldr	r0, [r1]
	movs	r2, #1
	bics	r0, r2
	str	r0, [r1]
	.loc	5 295 5 is_stmt 1               @ ../Firmware/GD32E23x_standard_peripheral/Source/gd32e23x_usart.c:295:5
	ldr	r1, [sp]
	.loc	5 295 30 is_stmt 0              @ ../Firmware/GD32E23x_standard_peripheral/Source/gd32e23x_usart.c:295:30
	ldr	r0, [r1, #8]
	movw	r2, #4096
	bics	r0, r2
	str	r0, [r1, #8]
	.loc	5 296 1 is_stmt 1               @ ../Firmware/GD32E23x_standard_peripheral/Source/gd32e23x_usart.c:296:1
	add	sp, #4
	bx	lr
.Ltmp33:
.Lfunc_end11:
	.size	usart_overrun_enable, .Lfunc_end11-usart_overrun_enable
	.cfi_endproc
	.cantunwind
	.fnend
                                        @ -- End function
	.section	.text.usart_overrun_disable,"ax",%progbits
	.hidden	usart_overrun_disable           @ -- Begin function usart_overrun_disable
	.globl	usart_overrun_disable
	.p2align	1
	.type	usart_overrun_disable,%function
	.code	16                              @ @usart_overrun_disable
	.thumb_func
usart_overrun_disable:
.Lfunc_begin12:
	.loc	5 305 0                         @ ../Firmware/GD32E23x_standard_peripheral/Source/gd32e23x_usart.c:305:0
	.fnstart
	.cfi_startproc
@ %bb.0:
	.pad	#4
	sub	sp, #4
	.cfi_def_cfa_offset 4
	str	r0, [sp]
.Ltmp34:
	.loc	5 306 5 prologue_end            @ ../Firmware/GD32E23x_standard_peripheral/Source/gd32e23x_usart.c:306:5
	ldr	r1, [sp]
	.loc	5 306 30 is_stmt 0              @ ../Firmware/GD32E23x_standard_peripheral/Source/gd32e23x_usart.c:306:30
	ldr	r0, [r1]
	movs	r2, #1
	bics	r0, r2
	str	r0, [r1]
	.loc	5 308 5 is_stmt 1               @ ../Firmware/GD32E23x_standard_peripheral/Source/gd32e23x_usart.c:308:5
	ldr	r1, [sp]
	.loc	5 308 30 is_stmt 0              @ ../Firmware/GD32E23x_standard_peripheral/Source/gd32e23x_usart.c:308:30
	ldr	r0, [r1, #8]
	movw	r2, #4096
	orrs	r0, r2
	str	r0, [r1, #8]
	.loc	5 309 1 is_stmt 1               @ ../Firmware/GD32E23x_standard_peripheral/Source/gd32e23x_usart.c:309:1
	add	sp, #4
	bx	lr
.Ltmp35:
.Lfunc_end12:
	.size	usart_overrun_disable, .Lfunc_end12-usart_overrun_disable
	.cfi_endproc
	.cantunwind
	.fnend
                                        @ -- End function
	.section	.text.usart_oversample_config,"ax",%progbits
	.hidden	usart_oversample_config         @ -- Begin function usart_oversample_config
	.globl	usart_oversample_config
	.p2align	1
	.type	usart_oversample_config,%function
	.code	16                              @ @usart_oversample_config
	.thumb_func
usart_oversample_config:
.Lfunc_begin13:
	.loc	5 322 0                         @ ../Firmware/GD32E23x_standard_peripheral/Source/gd32e23x_usart.c:322:0
	.fnstart
	.cfi_startproc
@ %bb.0:
	.pad	#8
	sub	sp, #8
	.cfi_def_cfa_offset 8
	str	r0, [sp, #4]
	str	r1, [sp]
.Ltmp36:
	.loc	5 324 5 prologue_end            @ ../Firmware/GD32E23x_standard_peripheral/Source/gd32e23x_usart.c:324:5
	ldr	r1, [sp, #4]
	.loc	5 324 30 is_stmt 0              @ ../Firmware/GD32E23x_standard_peripheral/Source/gd32e23x_usart.c:324:30
	ldr	r0, [r1]
	movs	r2, #1
	bics	r0, r2
	str	r0, [r1]
	.loc	5 326 5 is_stmt 1               @ ../Firmware/GD32E23x_standard_peripheral/Source/gd32e23x_usart.c:326:5
	ldr	r1, [sp, #4]
	.loc	5 326 30 is_stmt 0              @ ../Firmware/GD32E23x_standard_peripheral/Source/gd32e23x_usart.c:326:30
	ldr	r0, [r1]
	movw	r2, #32768
	bics	r0, r2
	str	r0, [r1]
	.loc	5 327 33 is_stmt 1              @ ../Firmware/GD32E23x_standard_peripheral/Source/gd32e23x_usart.c:327:33
	ldr	r2, [sp]
	.loc	5 327 5 is_stmt 0               @ ../Firmware/GD32E23x_standard_peripheral/Source/gd32e23x_usart.c:327:5
	ldr	r1, [sp, #4]
	.loc	5 327 30                        @ ../Firmware/GD32E23x_standard_peripheral/Source/gd32e23x_usart.c:327:30
	ldr	r0, [r1]
	orrs	r0, r2
	str	r0, [r1]
	.loc	5 328 1 is_stmt 1               @ ../Firmware/GD32E23x_standard_peripheral/Source/gd32e23x_usart.c:328:1
	add	sp, #8
	bx	lr
.Ltmp37:
.Lfunc_end13:
	.size	usart_oversample_config, .Lfunc_end13-usart_oversample_config
	.cfi_endproc
	.cantunwind
	.fnend
                                        @ -- End function
	.section	.text.usart_sample_bit_config,"ax",%progbits
	.hidden	usart_sample_bit_config         @ -- Begin function usart_sample_bit_config
	.globl	usart_sample_bit_config
	.p2align	1
	.type	usart_sample_bit_config,%function
	.code	16                              @ @usart_sample_bit_config
	.thumb_func
usart_sample_bit_config:
.Lfunc_begin14:
	.loc	5 341 0                         @ ../Firmware/GD32E23x_standard_peripheral/Source/gd32e23x_usart.c:341:0
	.fnstart
	.cfi_startproc
@ %bb.0:
	.pad	#8
	sub	sp, #8
	.cfi_def_cfa_offset 8
	str	r0, [sp, #4]
	str	r1, [sp]
.Ltmp38:
	.loc	5 343 5 prologue_end            @ ../Firmware/GD32E23x_standard_peripheral/Source/gd32e23x_usart.c:343:5
	ldr	r1, [sp, #4]
	.loc	5 343 30 is_stmt 0              @ ../Firmware/GD32E23x_standard_peripheral/Source/gd32e23x_usart.c:343:30
	ldr	r0, [r1]
	movs	r2, #1
	bics	r0, r2
	str	r0, [r1]
	.loc	5 345 5 is_stmt 1               @ ../Firmware/GD32E23x_standard_peripheral/Source/gd32e23x_usart.c:345:5
	ldr	r1, [sp, #4]
	.loc	5 345 30 is_stmt 0              @ ../Firmware/GD32E23x_standard_peripheral/Source/gd32e23x_usart.c:345:30
	ldr	r0, [r1, #8]
	movw	r2, #2048
	bics	r0, r2
	str	r0, [r1, #8]
	.loc	5 346 33 is_stmt 1              @ ../Firmware/GD32E23x_standard_peripheral/Source/gd32e23x_usart.c:346:33
	ldr	r2, [sp]
	.loc	5 346 5 is_stmt 0               @ ../Firmware/GD32E23x_standard_peripheral/Source/gd32e23x_usart.c:346:5
	ldr	r1, [sp, #4]
	.loc	5 346 30                        @ ../Firmware/GD32E23x_standard_peripheral/Source/gd32e23x_usart.c:346:30
	ldr	r0, [r1, #8]
	orrs	r0, r2
	str	r0, [r1, #8]
	.loc	5 347 1 is_stmt 1               @ ../Firmware/GD32E23x_standard_peripheral/Source/gd32e23x_usart.c:347:1
	add	sp, #8
	bx	lr
.Ltmp39:
.Lfunc_end14:
	.size	usart_sample_bit_config, .Lfunc_end14-usart_sample_bit_config
	.cfi_endproc
	.cantunwind
	.fnend
                                        @ -- End function
	.section	.text.usart_receiver_timeout_enable,"ax",%progbits
	.hidden	usart_receiver_timeout_enable   @ -- Begin function usart_receiver_timeout_enable
	.globl	usart_receiver_timeout_enable
	.p2align	1
	.type	usart_receiver_timeout_enable,%function
	.code	16                              @ @usart_receiver_timeout_enable
	.thumb_func
usart_receiver_timeout_enable:
.Lfunc_begin15:
	.loc	5 356 0                         @ ../Firmware/GD32E23x_standard_peripheral/Source/gd32e23x_usart.c:356:0
	.fnstart
	.cfi_startproc
@ %bb.0:
	.pad	#4
	sub	sp, #4
	.cfi_def_cfa_offset 4
	str	r0, [sp]
.Ltmp40:
	.loc	5 357 5 prologue_end            @ ../Firmware/GD32E23x_standard_peripheral/Source/gd32e23x_usart.c:357:5
	ldr	r1, [sp]
	.loc	5 357 30 is_stmt 0              @ ../Firmware/GD32E23x_standard_peripheral/Source/gd32e23x_usart.c:357:30
	ldr	r0, [r1, #4]
	movs	r2, #1
	lsls	r2, r2, #23
	orrs	r0, r2
	str	r0, [r1, #4]
	.loc	5 358 1 is_stmt 1               @ ../Firmware/GD32E23x_standard_peripheral/Source/gd32e23x_usart.c:358:1
	add	sp, #4
	bx	lr
.Ltmp41:
.Lfunc_end15:
	.size	usart_receiver_timeout_enable, .Lfunc_end15-usart_receiver_timeout_enable
	.cfi_endproc
	.cantunwind
	.fnend
                                        @ -- End function
	.section	.text.usart_receiver_timeout_disable,"ax",%progbits
	.hidden	usart_receiver_timeout_disable  @ -- Begin function usart_receiver_timeout_disable
	.globl	usart_receiver_timeout_disable
	.p2align	1
	.type	usart_receiver_timeout_disable,%function
	.code	16                              @ @usart_receiver_timeout_disable
	.thumb_func
usart_receiver_timeout_disable:
.Lfunc_begin16:
	.loc	5 367 0                         @ ../Firmware/GD32E23x_standard_peripheral/Source/gd32e23x_usart.c:367:0
	.fnstart
	.cfi_startproc
@ %bb.0:
	.pad	#4
	sub	sp, #4
	.cfi_def_cfa_offset 4
	str	r0, [sp]
.Ltmp42:
	.loc	5 368 5 prologue_end            @ ../Firmware/GD32E23x_standard_peripheral/Source/gd32e23x_usart.c:368:5
	ldr	r1, [sp]
	.loc	5 368 30 is_stmt 0              @ ../Firmware/GD32E23x_standard_peripheral/Source/gd32e23x_usart.c:368:30
	ldr	r0, [r1, #4]
	movs	r2, #1
	lsls	r2, r2, #23
	bics	r0, r2
	str	r0, [r1, #4]
	.loc	5 369 1 is_stmt 1               @ ../Firmware/GD32E23x_standard_peripheral/Source/gd32e23x_usart.c:369:1
	add	sp, #4
	bx	lr
.Ltmp43:
.Lfunc_end16:
	.size	usart_receiver_timeout_disable, .Lfunc_end16-usart_receiver_timeout_disable
	.cfi_endproc
	.cantunwind
	.fnend
                                        @ -- End function
	.section	.text.usart_receiver_timeout_threshold_config,"ax",%progbits
	.hidden	usart_receiver_timeout_threshold_config @ -- Begin function usart_receiver_timeout_threshold_config
	.globl	usart_receiver_timeout_threshold_config
	.p2align	1
	.type	usart_receiver_timeout_threshold_config,%function
	.code	16                              @ @usart_receiver_timeout_threshold_config
	.thumb_func
usart_receiver_timeout_threshold_config:
.Lfunc_begin17:
	.loc	5 379 0                         @ ../Firmware/GD32E23x_standard_peripheral/Source/gd32e23x_usart.c:379:0
	.fnstart
	.cfi_startproc
@ %bb.0:
	.pad	#8
	sub	sp, #8
	.cfi_def_cfa_offset 8
	str	r0, [sp, #4]
	str	r1, [sp]
.Ltmp44:
	.loc	5 380 5 prologue_end            @ ../Firmware/GD32E23x_standard_peripheral/Source/gd32e23x_usart.c:380:5
	ldr	r1, [sp, #4]
	.loc	5 380 28 is_stmt 0              @ ../Firmware/GD32E23x_standard_peripheral/Source/gd32e23x_usart.c:380:28
	ldr	r0, [r1, #20]
	movs	r2, #255
	lsls	r2, r2, #24
	ands	r0, r2
	str	r0, [r1, #20]
	.loc	5 381 31 is_stmt 1              @ ../Firmware/GD32E23x_standard_peripheral/Source/gd32e23x_usart.c:381:31
	ldr	r2, [sp]
	.loc	5 381 5 is_stmt 0               @ ../Firmware/GD32E23x_standard_peripheral/Source/gd32e23x_usart.c:381:5
	ldr	r1, [sp, #4]
	.loc	5 381 28                        @ ../Firmware/GD32E23x_standard_peripheral/Source/gd32e23x_usart.c:381:28
	ldr	r0, [r1, #20]
	orrs	r0, r2
	str	r0, [r1, #20]
	.loc	5 382 1 is_stmt 1               @ ../Firmware/GD32E23x_standard_peripheral/Source/gd32e23x_usart.c:382:1
	add	sp, #8
	bx	lr
.Ltmp45:
.Lfunc_end17:
	.size	usart_receiver_timeout_threshold_config, .Lfunc_end17-usart_receiver_timeout_threshold_config
	.cfi_endproc
	.cantunwind
	.fnend
                                        @ -- End function
	.section	.text.usart_data_transmit,"ax",%progbits
	.hidden	usart_data_transmit             @ -- Begin function usart_data_transmit
	.globl	usart_data_transmit
	.p2align	2
	.type	usart_data_transmit,%function
	.code	16                              @ @usart_data_transmit
	.thumb_func
usart_data_transmit:
.Lfunc_begin18:
	.loc	5 392 0                         @ ../Firmware/GD32E23x_standard_peripheral/Source/gd32e23x_usart.c:392:0
	.fnstart
	.cfi_startproc
@ %bb.0:
	.pad	#8
	sub	sp, #8
	.cfi_def_cfa_offset 8
	str	r0, [sp, #4]
	str	r1, [sp]
.Ltmp46:
	.loc	5 393 54 prologue_end           @ ../Firmware/GD32E23x_standard_peripheral/Source/gd32e23x_usart.c:393:54
	ldr	r0, [sp]
	ldr	r1, __arm_cp.18_0
	.loc	5 393 52 is_stmt 0              @ ../Firmware/GD32E23x_standard_peripheral/Source/gd32e23x_usart.c:393:52
	ands	r0, r1
	.loc	5 393 5                         @ ../Firmware/GD32E23x_standard_peripheral/Source/gd32e23x_usart.c:393:5
	ldr	r1, [sp, #4]
	.loc	5 393 31                        @ ../Firmware/GD32E23x_standard_peripheral/Source/gd32e23x_usart.c:393:31
	str	r0, [r1, #40]
	.loc	5 394 1 is_stmt 1               @ ../Firmware/GD32E23x_standard_peripheral/Source/gd32e23x_usart.c:394:1
	add	sp, #8
	bx	lr
.Ltmp47:
	.p2align	2
@ %bb.1:
	.loc	5 0 1 is_stmt 0                 @ ../Firmware/GD32E23x_standard_peripheral/Source/gd32e23x_usart.c:0:1
__arm_cp.18_0:
	.long	511                             @ 0x1ff
.Lcpi_end7:
	.size	__arm_cp.18_0, .Lcpi_end7-__arm_cp.18_0
.Lfunc_end18:
	.size	usart_data_transmit, .Lfunc_end18-usart_data_transmit
	.cfi_endproc
	.cantunwind
	.fnend
                                        @ -- End function
	.section	.text.usart_data_receive,"ax",%progbits
	.hidden	usart_data_receive              @ -- Begin function usart_data_receive
	.globl	usart_data_receive
	.p2align	2
	.type	usart_data_receive,%function
	.code	16                              @ @usart_data_receive
	.thumb_func
usart_data_receive:
.Lfunc_begin19:
	.loc	5 403 0 is_stmt 1               @ ../Firmware/GD32E23x_standard_peripheral/Source/gd32e23x_usart.c:403:0
	.fnstart
	.cfi_startproc
@ %bb.0:
	.pad	#4
	sub	sp, #4
	.cfi_def_cfa_offset 4
	str	r0, [sp]
.Ltmp48:
	.loc	5 404 23 prologue_end           @ ../Firmware/GD32E23x_standard_peripheral/Source/gd32e23x_usart.c:404:23
	ldr	r0, [sp]
	ldr	r0, [r0, #36]
	ldr	r1, __arm_cp.19_0
	ands	r0, r1
	.loc	5 404 5 is_stmt 0               @ ../Firmware/GD32E23x_standard_peripheral/Source/gd32e23x_usart.c:404:5
	add	sp, #4
	bx	lr
.Ltmp49:
	.p2align	2
@ %bb.1:
	.loc	5 0 5                           @ ../Firmware/GD32E23x_standard_peripheral/Source/gd32e23x_usart.c:0:5
__arm_cp.19_0:
	.long	511                             @ 0x1ff
.Lcpi_end8:
	.size	__arm_cp.19_0, .Lcpi_end8-__arm_cp.19_0
.Lfunc_end19:
	.size	usart_data_receive, .Lfunc_end19-usart_data_receive
	.cfi_endproc
	.cantunwind
	.fnend
                                        @ -- End function
	.section	.text.usart_address_config,"ax",%progbits
	.hidden	usart_address_config            @ -- Begin function usart_address_config
	.globl	usart_address_config
	.p2align	1
	.type	usart_address_config,%function
	.code	16                              @ @usart_address_config
	.thumb_func
usart_address_config:
.Lfunc_begin20:
	.loc	5 415 0 is_stmt 1               @ ../Firmware/GD32E23x_standard_peripheral/Source/gd32e23x_usart.c:415:0
	.fnstart
	.cfi_startproc
@ %bb.0:
	.pad	#8
	sub	sp, #8
	.cfi_def_cfa_offset 8
                                        @ kill: def $r2 killed $r1
	str	r0, [sp, #4]
	mov	r0, sp
	strb	r1, [r0]
.Ltmp50:
	.loc	5 417 5 prologue_end            @ ../Firmware/GD32E23x_standard_peripheral/Source/gd32e23x_usart.c:417:5
	ldr	r1, [sp, #4]
	.loc	5 417 30 is_stmt 0              @ ../Firmware/GD32E23x_standard_peripheral/Source/gd32e23x_usart.c:417:30
	ldr	r0, [r1]
	movs	r2, #1
	bics	r0, r2
	str	r0, [r1]
	.loc	5 419 5 is_stmt 1               @ ../Firmware/GD32E23x_standard_peripheral/Source/gd32e23x_usart.c:419:5
	ldr	r1, [sp, #4]
	.loc	5 419 30 is_stmt 0              @ ../Firmware/GD32E23x_standard_peripheral/Source/gd32e23x_usart.c:419:30
	ldr	r0, [r1, #4]
	movs	r2, #255
	lsls	r2, r2, #24
	bics	r0, r2
	str	r0, [r1, #4]
	.loc	5 420 54 is_stmt 1              @ ../Firmware/GD32E23x_standard_peripheral/Source/gd32e23x_usart.c:420:54
	ldr	r0, [sp]
	.loc	5 420 70 is_stmt 0              @ ../Firmware/GD32E23x_standard_peripheral/Source/gd32e23x_usart.c:420:70
	lsls	r2, r0, #24
	.loc	5 420 5                         @ ../Firmware/GD32E23x_standard_peripheral/Source/gd32e23x_usart.c:420:5
	ldr	r1, [sp, #4]
	.loc	5 420 30                        @ ../Firmware/GD32E23x_standard_peripheral/Source/gd32e23x_usart.c:420:30
	ldr	r0, [r1, #4]
	orrs	r0, r2
	str	r0, [r1, #4]
	.loc	5 421 1 is_stmt 1               @ ../Firmware/GD32E23x_standard_peripheral/Source/gd32e23x_usart.c:421:1
	add	sp, #8
	bx	lr
.Ltmp51:
.Lfunc_end20:
	.size	usart_address_config, .Lfunc_end20-usart_address_config
	.cfi_endproc
	.cantunwind
	.fnend
                                        @ -- End function
	.section	.text.usart_address_detection_mode_config,"ax",%progbits
	.hidden	usart_address_detection_mode_config @ -- Begin function usart_address_detection_mode_config
	.globl	usart_address_detection_mode_config
	.p2align	1
	.type	usart_address_detection_mode_config,%function
	.code	16                              @ @usart_address_detection_mode_config
	.thumb_func
usart_address_detection_mode_config:
.Lfunc_begin21:
	.loc	5 434 0                         @ ../Firmware/GD32E23x_standard_peripheral/Source/gd32e23x_usart.c:434:0
	.fnstart
	.cfi_startproc
@ %bb.0:
	.pad	#8
	sub	sp, #8
	.cfi_def_cfa_offset 8
	str	r0, [sp, #4]
	str	r1, [sp]
.Ltmp52:
	.loc	5 436 5 prologue_end            @ ../Firmware/GD32E23x_standard_peripheral/Source/gd32e23x_usart.c:436:5
	ldr	r1, [sp, #4]
	.loc	5 436 30 is_stmt 0              @ ../Firmware/GD32E23x_standard_peripheral/Source/gd32e23x_usart.c:436:30
	ldr	r0, [r1]
	movs	r2, #1
	bics	r0, r2
	str	r0, [r1]
	.loc	5 438 5 is_stmt 1               @ ../Firmware/GD32E23x_standard_peripheral/Source/gd32e23x_usart.c:438:5
	ldr	r2, [sp, #4]
	.loc	5 438 30 is_stmt 0              @ ../Firmware/GD32E23x_standard_peripheral/Source/gd32e23x_usart.c:438:30
	ldr	r1, [r2, #4]
	movs	r0, #16
	bics	r1, r0
	str	r1, [r2, #4]
	.loc	5 439 52 is_stmt 1              @ ../Firmware/GD32E23x_standard_peripheral/Source/gd32e23x_usart.c:439:52
	ldr	r2, [sp]
	.loc	5 439 49 is_stmt 0              @ ../Firmware/GD32E23x_standard_peripheral/Source/gd32e23x_usart.c:439:49
	ands	r2, r0
	.loc	5 439 5                         @ ../Firmware/GD32E23x_standard_peripheral/Source/gd32e23x_usart.c:439:5
	ldr	r1, [sp, #4]
	.loc	5 439 30                        @ ../Firmware/GD32E23x_standard_peripheral/Source/gd32e23x_usart.c:439:30
	ldr	r0, [r1, #4]
	orrs	r0, r2
	str	r0, [r1, #4]
	.loc	5 440 1 is_stmt 1               @ ../Firmware/GD32E23x_standard_peripheral/Source/gd32e23x_usart.c:440:1
	add	sp, #8
	bx	lr
.Ltmp53:
.Lfunc_end21:
	.size	usart_address_detection_mode_config, .Lfunc_end21-usart_address_detection_mode_config
	.cfi_endproc
	.cantunwind
	.fnend
                                        @ -- End function
	.section	.text.usart_mute_mode_enable,"ax",%progbits
	.hidden	usart_mute_mode_enable          @ -- Begin function usart_mute_mode_enable
	.globl	usart_mute_mode_enable
	.p2align	1
	.type	usart_mute_mode_enable,%function
	.code	16                              @ @usart_mute_mode_enable
	.thumb_func
usart_mute_mode_enable:
.Lfunc_begin22:
	.loc	5 449 0                         @ ../Firmware/GD32E23x_standard_peripheral/Source/gd32e23x_usart.c:449:0
	.fnstart
	.cfi_startproc
@ %bb.0:
	.pad	#4
	sub	sp, #4
	.cfi_def_cfa_offset 4
	str	r0, [sp]
.Ltmp54:
	.loc	5 450 5 prologue_end            @ ../Firmware/GD32E23x_standard_peripheral/Source/gd32e23x_usart.c:450:5
	ldr	r1, [sp]
	.loc	5 450 30 is_stmt 0              @ ../Firmware/GD32E23x_standard_peripheral/Source/gd32e23x_usart.c:450:30
	ldr	r0, [r1]
	movw	r2, #8192
	orrs	r0, r2
	str	r0, [r1]
	.loc	5 451 1 is_stmt 1               @ ../Firmware/GD32E23x_standard_peripheral/Source/gd32e23x_usart.c:451:1
	add	sp, #4
	bx	lr
.Ltmp55:
.Lfunc_end22:
	.size	usart_mute_mode_enable, .Lfunc_end22-usart_mute_mode_enable
	.cfi_endproc
	.cantunwind
	.fnend
                                        @ -- End function
	.section	.text.usart_mute_mode_disable,"ax",%progbits
	.hidden	usart_mute_mode_disable         @ -- Begin function usart_mute_mode_disable
	.globl	usart_mute_mode_disable
	.p2align	1
	.type	usart_mute_mode_disable,%function
	.code	16                              @ @usart_mute_mode_disable
	.thumb_func
usart_mute_mode_disable:
.Lfunc_begin23:
	.loc	5 460 0                         @ ../Firmware/GD32E23x_standard_peripheral/Source/gd32e23x_usart.c:460:0
	.fnstart
	.cfi_startproc
@ %bb.0:
	.pad	#4
	sub	sp, #4
	.cfi_def_cfa_offset 4
	str	r0, [sp]
.Ltmp56:
	.loc	5 461 5 prologue_end            @ ../Firmware/GD32E23x_standard_peripheral/Source/gd32e23x_usart.c:461:5
	ldr	r1, [sp]
	.loc	5 461 30 is_stmt 0              @ ../Firmware/GD32E23x_standard_peripheral/Source/gd32e23x_usart.c:461:30
	ldr	r0, [r1]
	movw	r2, #8192
	bics	r0, r2
	str	r0, [r1]
	.loc	5 462 1 is_stmt 1               @ ../Firmware/GD32E23x_standard_peripheral/Source/gd32e23x_usart.c:462:1
	add	sp, #4
	bx	lr
.Ltmp57:
.Lfunc_end23:
	.size	usart_mute_mode_disable, .Lfunc_end23-usart_mute_mode_disable
	.cfi_endproc
	.cantunwind
	.fnend
                                        @ -- End function
	.section	.text.usart_mute_mode_wakeup_config,"ax",%progbits
	.hidden	usart_mute_mode_wakeup_config   @ -- Begin function usart_mute_mode_wakeup_config
	.globl	usart_mute_mode_wakeup_config
	.p2align	1
	.type	usart_mute_mode_wakeup_config,%function
	.code	16                              @ @usart_mute_mode_wakeup_config
	.thumb_func
usart_mute_mode_wakeup_config:
.Lfunc_begin24:
	.loc	5 475 0                         @ ../Firmware/GD32E23x_standard_peripheral/Source/gd32e23x_usart.c:475:0
	.fnstart
	.cfi_startproc
@ %bb.0:
	.pad	#8
	sub	sp, #8
	.cfi_def_cfa_offset 8
	str	r0, [sp, #4]
	str	r1, [sp]
.Ltmp58:
	.loc	5 477 5 prologue_end            @ ../Firmware/GD32E23x_standard_peripheral/Source/gd32e23x_usart.c:477:5
	ldr	r1, [sp, #4]
	.loc	5 477 30 is_stmt 0              @ ../Firmware/GD32E23x_standard_peripheral/Source/gd32e23x_usart.c:477:30
	ldr	r0, [r1]
	movs	r2, #1
	bics	r0, r2
	str	r0, [r1]
	.loc	5 479 5 is_stmt 1               @ ../Firmware/GD32E23x_standard_peripheral/Source/gd32e23x_usart.c:479:5
	ldr	r1, [sp, #4]
	.loc	5 479 30 is_stmt 0              @ ../Firmware/GD32E23x_standard_peripheral/Source/gd32e23x_usart.c:479:30
	ldr	r0, [r1]
	movw	r2, #2048
	bics	r0, r2
	str	r0, [r1]
	.loc	5 480 33 is_stmt 1              @ ../Firmware/GD32E23x_standard_peripheral/Source/gd32e23x_usart.c:480:33
	ldr	r2, [sp]
	.loc	5 480 5 is_stmt 0               @ ../Firmware/GD32E23x_standard_peripheral/Source/gd32e23x_usart.c:480:5
	ldr	r1, [sp, #4]
	.loc	5 480 30                        @ ../Firmware/GD32E23x_standard_peripheral/Source/gd32e23x_usart.c:480:30
	ldr	r0, [r1]
	orrs	r0, r2
	str	r0, [r1]
	.loc	5 481 1 is_stmt 1               @ ../Firmware/GD32E23x_standard_peripheral/Source/gd32e23x_usart.c:481:1
	add	sp, #8
	bx	lr
.Ltmp59:
.Lfunc_end24:
	.size	usart_mute_mode_wakeup_config, .Lfunc_end24-usart_mute_mode_wakeup_config
	.cfi_endproc
	.cantunwind
	.fnend
                                        @ -- End function
	.section	.text.usart_lin_mode_enable,"ax",%progbits
	.hidden	usart_lin_mode_enable           @ -- Begin function usart_lin_mode_enable
	.globl	usart_lin_mode_enable
	.p2align	1
	.type	usart_lin_mode_enable,%function
	.code	16                              @ @usart_lin_mode_enable
	.thumb_func
usart_lin_mode_enable:
.Lfunc_begin25:
	.loc	5 490 0                         @ ../Firmware/GD32E23x_standard_peripheral/Source/gd32e23x_usart.c:490:0
	.fnstart
	.cfi_startproc
@ %bb.0:
	.pad	#4
	sub	sp, #4
	.cfi_def_cfa_offset 4
	str	r0, [sp]
.Ltmp60:
	.loc	5 492 5 prologue_end            @ ../Firmware/GD32E23x_standard_peripheral/Source/gd32e23x_usart.c:492:5
	ldr	r1, [sp]
	.loc	5 492 30 is_stmt 0              @ ../Firmware/GD32E23x_standard_peripheral/Source/gd32e23x_usart.c:492:30
	ldr	r0, [r1]
	movs	r2, #1
	bics	r0, r2
	str	r0, [r1]
	.loc	5 494 5 is_stmt 1               @ ../Firmware/GD32E23x_standard_peripheral/Source/gd32e23x_usart.c:494:5
	ldr	r1, [sp]
	.loc	5 494 30 is_stmt 0              @ ../Firmware/GD32E23x_standard_peripheral/Source/gd32e23x_usart.c:494:30
	ldr	r0, [r1, #4]
	movw	r2, #16384
	orrs	r0, r2
	str	r0, [r1, #4]
	.loc	5 495 1 is_stmt 1               @ ../Firmware/GD32E23x_standard_peripheral/Source/gd32e23x_usart.c:495:1
	add	sp, #4
	bx	lr
.Ltmp61:
.Lfunc_end25:
	.size	usart_lin_mode_enable, .Lfunc_end25-usart_lin_mode_enable
	.cfi_endproc
	.cantunwind
	.fnend
                                        @ -- End function
	.section	.text.usart_lin_mode_disable,"ax",%progbits
	.hidden	usart_lin_mode_disable          @ -- Begin function usart_lin_mode_disable
	.globl	usart_lin_mode_disable
	.p2align	1
	.type	usart_lin_mode_disable,%function
	.code	16                              @ @usart_lin_mode_disable
	.thumb_func
usart_lin_mode_disable:
.Lfunc_begin26:
	.loc	5 504 0                         @ ../Firmware/GD32E23x_standard_peripheral/Source/gd32e23x_usart.c:504:0
	.fnstart
	.cfi_startproc
@ %bb.0:
	.pad	#4
	sub	sp, #4
	.cfi_def_cfa_offset 4
	str	r0, [sp]
.Ltmp62:
	.loc	5 506 5 prologue_end            @ ../Firmware/GD32E23x_standard_peripheral/Source/gd32e23x_usart.c:506:5
	ldr	r1, [sp]
	.loc	5 506 30 is_stmt 0              @ ../Firmware/GD32E23x_standard_peripheral/Source/gd32e23x_usart.c:506:30
	ldr	r0, [r1]
	movs	r2, #1
	bics	r0, r2
	str	r0, [r1]
	.loc	5 508 5 is_stmt 1               @ ../Firmware/GD32E23x_standard_peripheral/Source/gd32e23x_usart.c:508:5
	ldr	r1, [sp]
	.loc	5 508 30 is_stmt 0              @ ../Firmware/GD32E23x_standard_peripheral/Source/gd32e23x_usart.c:508:30
	ldr	r0, [r1, #4]
	movw	r2, #16384
	bics	r0, r2
	str	r0, [r1, #4]
	.loc	5 509 1 is_stmt 1               @ ../Firmware/GD32E23x_standard_peripheral/Source/gd32e23x_usart.c:509:1
	add	sp, #4
	bx	lr
.Ltmp63:
.Lfunc_end26:
	.size	usart_lin_mode_disable, .Lfunc_end26-usart_lin_mode_disable
	.cfi_endproc
	.cantunwind
	.fnend
                                        @ -- End function
	.section	.text.usart_lin_break_detection_length_config,"ax",%progbits
	.hidden	usart_lin_break_detection_length_config @ -- Begin function usart_lin_break_detection_length_config
	.globl	usart_lin_break_detection_length_config
	.p2align	1
	.type	usart_lin_break_detection_length_config,%function
	.code	16                              @ @usart_lin_break_detection_length_config
	.thumb_func
usart_lin_break_detection_length_config:
.Lfunc_begin27:
	.loc	5 522 0                         @ ../Firmware/GD32E23x_standard_peripheral/Source/gd32e23x_usart.c:522:0
	.fnstart
	.cfi_startproc
@ %bb.0:
	.pad	#8
	sub	sp, #8
	.cfi_def_cfa_offset 8
	str	r0, [sp, #4]
	str	r1, [sp]
.Ltmp64:
	.loc	5 524 5 prologue_end            @ ../Firmware/GD32E23x_standard_peripheral/Source/gd32e23x_usart.c:524:5
	ldr	r1, [sp, #4]
	.loc	5 524 30 is_stmt 0              @ ../Firmware/GD32E23x_standard_peripheral/Source/gd32e23x_usart.c:524:30
	ldr	r0, [r1]
	movs	r2, #1
	bics	r0, r2
	str	r0, [r1]
	.loc	5 525 5 is_stmt 1               @ ../Firmware/GD32E23x_standard_peripheral/Source/gd32e23x_usart.c:525:5
	ldr	r2, [sp, #4]
	.loc	5 525 30 is_stmt 0              @ ../Firmware/GD32E23x_standard_peripheral/Source/gd32e23x_usart.c:525:30
	ldr	r1, [r2, #4]
	movs	r0, #32
	bics	r1, r0
	str	r1, [r2, #4]
	.loc	5 526 53 is_stmt 1              @ ../Firmware/GD32E23x_standard_peripheral/Source/gd32e23x_usart.c:526:53
	ldr	r2, [sp]
	.loc	5 526 50 is_stmt 0              @ ../Firmware/GD32E23x_standard_peripheral/Source/gd32e23x_usart.c:526:50
	ands	r2, r0
	.loc	5 526 5                         @ ../Firmware/GD32E23x_standard_peripheral/Source/gd32e23x_usart.c:526:5
	ldr	r1, [sp, #4]
	.loc	5 526 30                        @ ../Firmware/GD32E23x_standard_peripheral/Source/gd32e23x_usart.c:526:30
	ldr	r0, [r1, #4]
	orrs	r0, r2
	str	r0, [r1, #4]
	.loc	5 527 1 is_stmt 1               @ ../Firmware/GD32E23x_standard_peripheral/Source/gd32e23x_usart.c:527:1
	add	sp, #8
	bx	lr
.Ltmp65:
.Lfunc_end27:
	.size	usart_lin_break_detection_length_config, .Lfunc_end27-usart_lin_break_detection_length_config
	.cfi_endproc
	.cantunwind
	.fnend
                                        @ -- End function
	.section	.text.usart_halfduplex_enable,"ax",%progbits
	.hidden	usart_halfduplex_enable         @ -- Begin function usart_halfduplex_enable
	.globl	usart_halfduplex_enable
	.p2align	1
	.type	usart_halfduplex_enable,%function
	.code	16                              @ @usart_halfduplex_enable
	.thumb_func
usart_halfduplex_enable:
.Lfunc_begin28:
	.loc	5 536 0                         @ ../Firmware/GD32E23x_standard_peripheral/Source/gd32e23x_usart.c:536:0
	.fnstart
	.cfi_startproc
@ %bb.0:
	.pad	#4
	sub	sp, #4
	.cfi_def_cfa_offset 4
	str	r0, [sp]
.Ltmp66:
	.loc	5 538 5 prologue_end            @ ../Firmware/GD32E23x_standard_peripheral/Source/gd32e23x_usart.c:538:5
	ldr	r1, [sp]
	.loc	5 538 30 is_stmt 0              @ ../Firmware/GD32E23x_standard_peripheral/Source/gd32e23x_usart.c:538:30
	ldr	r0, [r1]
	movs	r2, #1
	bics	r0, r2
	str	r0, [r1]
	.loc	5 540 5 is_stmt 1               @ ../Firmware/GD32E23x_standard_peripheral/Source/gd32e23x_usart.c:540:5
	ldr	r1, [sp]
	.loc	5 540 30 is_stmt 0              @ ../Firmware/GD32E23x_standard_peripheral/Source/gd32e23x_usart.c:540:30
	ldr	r0, [r1, #8]
	movs	r2, #8
	orrs	r0, r2
	str	r0, [r1, #8]
	.loc	5 541 1 is_stmt 1               @ ../Firmware/GD32E23x_standard_peripheral/Source/gd32e23x_usart.c:541:1
	add	sp, #4
	bx	lr
.Ltmp67:
.Lfunc_end28:
	.size	usart_halfduplex_enable, .Lfunc_end28-usart_halfduplex_enable
	.cfi_endproc
	.cantunwind
	.fnend
                                        @ -- End function
	.section	.text.usart_halfduplex_disable,"ax",%progbits
	.hidden	usart_halfduplex_disable        @ -- Begin function usart_halfduplex_disable
	.globl	usart_halfduplex_disable
	.p2align	1
	.type	usart_halfduplex_disable,%function
	.code	16                              @ @usart_halfduplex_disable
	.thumb_func
usart_halfduplex_disable:
.Lfunc_begin29:
	.loc	5 550 0                         @ ../Firmware/GD32E23x_standard_peripheral/Source/gd32e23x_usart.c:550:0
	.fnstart
	.cfi_startproc
@ %bb.0:
	.pad	#4
	sub	sp, #4
	.cfi_def_cfa_offset 4
	str	r0, [sp]
.Ltmp68:
	.loc	5 552 5 prologue_end            @ ../Firmware/GD32E23x_standard_peripheral/Source/gd32e23x_usart.c:552:5
	ldr	r1, [sp]
	.loc	5 552 30 is_stmt 0              @ ../Firmware/GD32E23x_standard_peripheral/Source/gd32e23x_usart.c:552:30
	ldr	r0, [r1]
	movs	r2, #1
	bics	r0, r2
	str	r0, [r1]
	.loc	5 554 5 is_stmt 1               @ ../Firmware/GD32E23x_standard_peripheral/Source/gd32e23x_usart.c:554:5
	ldr	r1, [sp]
	.loc	5 554 30 is_stmt 0              @ ../Firmware/GD32E23x_standard_peripheral/Source/gd32e23x_usart.c:554:30
	ldr	r0, [r1, #8]
	movs	r2, #8
	bics	r0, r2
	str	r0, [r1, #8]
	.loc	5 555 1 is_stmt 1               @ ../Firmware/GD32E23x_standard_peripheral/Source/gd32e23x_usart.c:555:1
	add	sp, #4
	bx	lr
.Ltmp69:
.Lfunc_end29:
	.size	usart_halfduplex_disable, .Lfunc_end29-usart_halfduplex_disable
	.cfi_endproc
	.cantunwind
	.fnend
                                        @ -- End function
	.section	.text.usart_clock_enable,"ax",%progbits
	.hidden	usart_clock_enable              @ -- Begin function usart_clock_enable
	.globl	usart_clock_enable
	.p2align	1
	.type	usart_clock_enable,%function
	.code	16                              @ @usart_clock_enable
	.thumb_func
usart_clock_enable:
.Lfunc_begin30:
	.loc	5 564 0                         @ ../Firmware/GD32E23x_standard_peripheral/Source/gd32e23x_usart.c:564:0
	.fnstart
	.cfi_startproc
@ %bb.0:
	.pad	#4
	sub	sp, #4
	.cfi_def_cfa_offset 4
	str	r0, [sp]
.Ltmp70:
	.loc	5 566 5 prologue_end            @ ../Firmware/GD32E23x_standard_peripheral/Source/gd32e23x_usart.c:566:5
	ldr	r1, [sp]
	.loc	5 566 30 is_stmt 0              @ ../Firmware/GD32E23x_standard_peripheral/Source/gd32e23x_usart.c:566:30
	ldr	r0, [r1]
	movs	r2, #1
	bics	r0, r2
	str	r0, [r1]
	.loc	5 568 5 is_stmt 1               @ ../Firmware/GD32E23x_standard_peripheral/Source/gd32e23x_usart.c:568:5
	ldr	r1, [sp]
	.loc	5 568 30 is_stmt 0              @ ../Firmware/GD32E23x_standard_peripheral/Source/gd32e23x_usart.c:568:30
	ldr	r0, [r1, #4]
	movw	r2, #2048
	orrs	r0, r2
	str	r0, [r1, #4]
	.loc	5 569 1 is_stmt 1               @ ../Firmware/GD32E23x_standard_peripheral/Source/gd32e23x_usart.c:569:1
	add	sp, #4
	bx	lr
.Ltmp71:
.Lfunc_end30:
	.size	usart_clock_enable, .Lfunc_end30-usart_clock_enable
	.cfi_endproc
	.cantunwind
	.fnend
                                        @ -- End function
	.section	.text.usart_clock_disable,"ax",%progbits
	.hidden	usart_clock_disable             @ -- Begin function usart_clock_disable
	.globl	usart_clock_disable
	.p2align	1
	.type	usart_clock_disable,%function
	.code	16                              @ @usart_clock_disable
	.thumb_func
usart_clock_disable:
.Lfunc_begin31:
	.loc	5 578 0                         @ ../Firmware/GD32E23x_standard_peripheral/Source/gd32e23x_usart.c:578:0
	.fnstart
	.cfi_startproc
@ %bb.0:
	.pad	#4
	sub	sp, #4
	.cfi_def_cfa_offset 4
	str	r0, [sp]
.Ltmp72:
	.loc	5 580 5 prologue_end            @ ../Firmware/GD32E23x_standard_peripheral/Source/gd32e23x_usart.c:580:5
	ldr	r1, [sp]
	.loc	5 580 30 is_stmt 0              @ ../Firmware/GD32E23x_standard_peripheral/Source/gd32e23x_usart.c:580:30
	ldr	r0, [r1]
	movs	r2, #1
	bics	r0, r2
	str	r0, [r1]
	.loc	5 582 5 is_stmt 1               @ ../Firmware/GD32E23x_standard_peripheral/Source/gd32e23x_usart.c:582:5
	ldr	r1, [sp]
	.loc	5 582 30 is_stmt 0              @ ../Firmware/GD32E23x_standard_peripheral/Source/gd32e23x_usart.c:582:30
	ldr	r0, [r1, #4]
	movw	r2, #2048
	bics	r0, r2
	str	r0, [r1, #4]
	.loc	5 583 1 is_stmt 1               @ ../Firmware/GD32E23x_standard_peripheral/Source/gd32e23x_usart.c:583:1
	add	sp, #4
	bx	lr
.Ltmp73:
.Lfunc_end31:
	.size	usart_clock_disable, .Lfunc_end31-usart_clock_disable
	.cfi_endproc
	.cantunwind
	.fnend
                                        @ -- End function
	.section	.text.usart_synchronous_clock_config,"ax",%progbits
	.hidden	usart_synchronous_clock_config  @ -- Begin function usart_synchronous_clock_config
	.globl	usart_synchronous_clock_config
	.p2align	1
	.type	usart_synchronous_clock_config,%function
	.code	16                              @ @usart_synchronous_clock_config
	.thumb_func
usart_synchronous_clock_config:
.Lfunc_begin32:
	.loc	5 604 0                         @ ../Firmware/GD32E23x_standard_peripheral/Source/gd32e23x_usart.c:604:0
	.fnstart
	.cfi_startproc
@ %bb.0:
	.pad	#16
	sub	sp, #16
	.cfi_def_cfa_offset 16
	str	r0, [sp, #12]
	str	r1, [sp, #8]
	str	r2, [sp, #4]
	str	r3, [sp]
.Ltmp74:
	.loc	5 606 5 prologue_end            @ ../Firmware/GD32E23x_standard_peripheral/Source/gd32e23x_usart.c:606:5
	ldr	r1, [sp, #12]
	.loc	5 606 30 is_stmt 0              @ ../Firmware/GD32E23x_standard_peripheral/Source/gd32e23x_usart.c:606:30
	ldr	r0, [r1]
	movs	r2, #1
	bics	r0, r2
	str	r0, [r1]
	.loc	5 608 5 is_stmt 1               @ ../Firmware/GD32E23x_standard_peripheral/Source/gd32e23x_usart.c:608:5
	ldr	r1, [sp, #12]
	.loc	5 608 30 is_stmt 0              @ ../Firmware/GD32E23x_standard_peripheral/Source/gd32e23x_usart.c:608:30
	ldr	r0, [r1, #4]
	movw	r2, #1792
	bics	r0, r2
	str	r0, [r1, #4]
	.loc	5 610 52 is_stmt 1              @ ../Firmware/GD32E23x_standard_peripheral/Source/gd32e23x_usart.c:610:52
	ldr	r2, [sp, #8]
	movw	r0, #256
	.loc	5 610 50 is_stmt 0              @ ../Firmware/GD32E23x_standard_peripheral/Source/gd32e23x_usart.c:610:50
	ands	r2, r0
	.loc	5 610 5                         @ ../Firmware/GD32E23x_standard_peripheral/Source/gd32e23x_usart.c:610:5
	ldr	r1, [sp, #12]
	.loc	5 610 30                        @ ../Firmware/GD32E23x_standard_peripheral/Source/gd32e23x_usart.c:610:30
	ldr	r0, [r1, #4]
	orrs	r0, r2
	str	r0, [r1, #4]
	.loc	5 611 51 is_stmt 1              @ ../Firmware/GD32E23x_standard_peripheral/Source/gd32e23x_usart.c:611:51
	ldr	r2, [sp, #4]
	movw	r0, #512
	.loc	5 611 49 is_stmt 0              @ ../Firmware/GD32E23x_standard_peripheral/Source/gd32e23x_usart.c:611:49
	ands	r2, r0
	.loc	5 611 5                         @ ../Firmware/GD32E23x_standard_peripheral/Source/gd32e23x_usart.c:611:5
	ldr	r1, [sp, #12]
	.loc	5 611 30                        @ ../Firmware/GD32E23x_standard_peripheral/Source/gd32e23x_usart.c:611:30
	ldr	r0, [r1, #4]
	orrs	r0, r2
	str	r0, [r1, #4]
	.loc	5 612 51 is_stmt 1              @ ../Firmware/GD32E23x_standard_peripheral/Source/gd32e23x_usart.c:612:51
	ldr	r2, [sp]
	movw	r0, #1024
	.loc	5 612 49 is_stmt 0              @ ../Firmware/GD32E23x_standard_peripheral/Source/gd32e23x_usart.c:612:49
	ands	r2, r0
	.loc	5 612 5                         @ ../Firmware/GD32E23x_standard_peripheral/Source/gd32e23x_usart.c:612:5
	ldr	r1, [sp, #12]
	.loc	5 612 30                        @ ../Firmware/GD32E23x_standard_peripheral/Source/gd32e23x_usart.c:612:30
	ldr	r0, [r1, #4]
	orrs	r0, r2
	str	r0, [r1, #4]
	.loc	5 613 1 is_stmt 1               @ ../Firmware/GD32E23x_standard_peripheral/Source/gd32e23x_usart.c:613:1
	add	sp, #16
	bx	lr
.Ltmp75:
.Lfunc_end32:
	.size	usart_synchronous_clock_config, .Lfunc_end32-usart_synchronous_clock_config
	.cfi_endproc
	.cantunwind
	.fnend
                                        @ -- End function
	.section	.text.usart_guard_time_config,"ax",%progbits
	.hidden	usart_guard_time_config         @ -- Begin function usart_guard_time_config
	.globl	usart_guard_time_config
	.p2align	1
	.type	usart_guard_time_config,%function
	.code	16                              @ @usart_guard_time_config
	.thumb_func
usart_guard_time_config:
.Lfunc_begin33:
	.loc	5 623 0                         @ ../Firmware/GD32E23x_standard_peripheral/Source/gd32e23x_usart.c:623:0
	.fnstart
	.cfi_startproc
@ %bb.0:
	.pad	#8
	sub	sp, #8
	.cfi_def_cfa_offset 8
	str	r0, [sp, #4]
	str	r1, [sp]
.Ltmp76:
	.loc	5 625 5 prologue_end            @ ../Firmware/GD32E23x_standard_peripheral/Source/gd32e23x_usart.c:625:5
	ldr	r1, [sp, #4]
	.loc	5 625 30 is_stmt 0              @ ../Firmware/GD32E23x_standard_peripheral/Source/gd32e23x_usart.c:625:30
	ldr	r0, [r1]
	movs	r2, #1
	bics	r0, r2
	str	r0, [r1]
	.loc	5 627 5 is_stmt 1               @ ../Firmware/GD32E23x_standard_peripheral/Source/gd32e23x_usart.c:627:5
	ldr	r1, [sp, #4]
	.loc	5 627 28 is_stmt 0              @ ../Firmware/GD32E23x_standard_peripheral/Source/gd32e23x_usart.c:627:28
	ldr	r0, [r1, #16]
	movw	r2, #65280
	bics	r0, r2
	str	r0, [r1, #16]
	.loc	5 628 50 is_stmt 1              @ ../Firmware/GD32E23x_standard_peripheral/Source/gd32e23x_usart.c:628:50
	ldr	r0, [sp]
	.loc	5 628 56 is_stmt 0              @ ../Firmware/GD32E23x_standard_peripheral/Source/gd32e23x_usart.c:628:56
	lsls	r0, r0, #8
	.loc	5 628 46                        @ ../Firmware/GD32E23x_standard_peripheral/Source/gd32e23x_usart.c:628:46
	uxth	r2, r0
	.loc	5 628 5                         @ ../Firmware/GD32E23x_standard_peripheral/Source/gd32e23x_usart.c:628:5
	ldr	r1, [sp, #4]
	.loc	5 628 28                        @ ../Firmware/GD32E23x_standard_peripheral/Source/gd32e23x_usart.c:628:28
	ldr	r0, [r1, #16]
	orrs	r0, r2
	str	r0, [r1, #16]
	.loc	5 629 1 is_stmt 1               @ ../Firmware/GD32E23x_standard_peripheral/Source/gd32e23x_usart.c:629:1
	add	sp, #8
	bx	lr
.Ltmp77:
.Lfunc_end33:
	.size	usart_guard_time_config, .Lfunc_end33-usart_guard_time_config
	.cfi_endproc
	.cantunwind
	.fnend
                                        @ -- End function
	.section	.text.usart_smartcard_mode_enable,"ax",%progbits
	.hidden	usart_smartcard_mode_enable     @ -- Begin function usart_smartcard_mode_enable
	.globl	usart_smartcard_mode_enable
	.p2align	1
	.type	usart_smartcard_mode_enable,%function
	.code	16                              @ @usart_smartcard_mode_enable
	.thumb_func
usart_smartcard_mode_enable:
.Lfunc_begin34:
	.loc	5 638 0                         @ ../Firmware/GD32E23x_standard_peripheral/Source/gd32e23x_usart.c:638:0
	.fnstart
	.cfi_startproc
@ %bb.0:
	.pad	#4
	sub	sp, #4
	.cfi_def_cfa_offset 4
	str	r0, [sp]
.Ltmp78:
	.loc	5 640 5 prologue_end            @ ../Firmware/GD32E23x_standard_peripheral/Source/gd32e23x_usart.c:640:5
	ldr	r1, [sp]
	.loc	5 640 30 is_stmt 0              @ ../Firmware/GD32E23x_standard_peripheral/Source/gd32e23x_usart.c:640:30
	ldr	r0, [r1]
	movs	r2, #1
	bics	r0, r2
	str	r0, [r1]
	.loc	5 642 5 is_stmt 1               @ ../Firmware/GD32E23x_standard_peripheral/Source/gd32e23x_usart.c:642:5
	ldr	r1, [sp]
	.loc	5 642 30 is_stmt 0              @ ../Firmware/GD32E23x_standard_peripheral/Source/gd32e23x_usart.c:642:30
	ldr	r0, [r1, #8]
	movs	r2, #32
	orrs	r0, r2
	str	r0, [r1, #8]
	.loc	5 643 1 is_stmt 1               @ ../Firmware/GD32E23x_standard_peripheral/Source/gd32e23x_usart.c:643:1
	add	sp, #4
	bx	lr
.Ltmp79:
.Lfunc_end34:
	.size	usart_smartcard_mode_enable, .Lfunc_end34-usart_smartcard_mode_enable
	.cfi_endproc
	.cantunwind
	.fnend
                                        @ -- End function
	.section	.text.usart_smartcard_mode_disable,"ax",%progbits
	.hidden	usart_smartcard_mode_disable    @ -- Begin function usart_smartcard_mode_disable
	.globl	usart_smartcard_mode_disable
	.p2align	1
	.type	usart_smartcard_mode_disable,%function
	.code	16                              @ @usart_smartcard_mode_disable
	.thumb_func
usart_smartcard_mode_disable:
.Lfunc_begin35:
	.loc	5 652 0                         @ ../Firmware/GD32E23x_standard_peripheral/Source/gd32e23x_usart.c:652:0
	.fnstart
	.cfi_startproc
@ %bb.0:
	.pad	#4
	sub	sp, #4
	.cfi_def_cfa_offset 4
	str	r0, [sp]
.Ltmp80:
	.loc	5 654 5 prologue_end            @ ../Firmware/GD32E23x_standard_peripheral/Source/gd32e23x_usart.c:654:5
	ldr	r1, [sp]
	.loc	5 654 30 is_stmt 0              @ ../Firmware/GD32E23x_standard_peripheral/Source/gd32e23x_usart.c:654:30
	ldr	r0, [r1]
	movs	r2, #1
	bics	r0, r2
	str	r0, [r1]
	.loc	5 656 5 is_stmt 1               @ ../Firmware/GD32E23x_standard_peripheral/Source/gd32e23x_usart.c:656:5
	ldr	r1, [sp]
	.loc	5 656 30 is_stmt 0              @ ../Firmware/GD32E23x_standard_peripheral/Source/gd32e23x_usart.c:656:30
	ldr	r0, [r1, #8]
	movs	r2, #32
	bics	r0, r2
	str	r0, [r1, #8]
	.loc	5 657 1 is_stmt 1               @ ../Firmware/GD32E23x_standard_peripheral/Source/gd32e23x_usart.c:657:1
	add	sp, #4
	bx	lr
.Ltmp81:
.Lfunc_end35:
	.size	usart_smartcard_mode_disable, .Lfunc_end35-usart_smartcard_mode_disable
	.cfi_endproc
	.cantunwind
	.fnend
                                        @ -- End function
	.section	.text.usart_smartcard_mode_nack_enable,"ax",%progbits
	.hidden	usart_smartcard_mode_nack_enable @ -- Begin function usart_smartcard_mode_nack_enable
	.globl	usart_smartcard_mode_nack_enable
	.p2align	1
	.type	usart_smartcard_mode_nack_enable,%function
	.code	16                              @ @usart_smartcard_mode_nack_enable
	.thumb_func
usart_smartcard_mode_nack_enable:
.Lfunc_begin36:
	.loc	5 666 0                         @ ../Firmware/GD32E23x_standard_peripheral/Source/gd32e23x_usart.c:666:0
	.fnstart
	.cfi_startproc
@ %bb.0:
	.pad	#4
	sub	sp, #4
	.cfi_def_cfa_offset 4
	str	r0, [sp]
.Ltmp82:
	.loc	5 668 5 prologue_end            @ ../Firmware/GD32E23x_standard_peripheral/Source/gd32e23x_usart.c:668:5
	ldr	r1, [sp]
	.loc	5 668 30 is_stmt 0              @ ../Firmware/GD32E23x_standard_peripheral/Source/gd32e23x_usart.c:668:30
	ldr	r0, [r1]
	movs	r2, #1
	bics	r0, r2
	str	r0, [r1]
	.loc	5 670 5 is_stmt 1               @ ../Firmware/GD32E23x_standard_peripheral/Source/gd32e23x_usart.c:670:5
	ldr	r1, [sp]
	.loc	5 670 30 is_stmt 0              @ ../Firmware/GD32E23x_standard_peripheral/Source/gd32e23x_usart.c:670:30
	ldr	r0, [r1, #8]
	movs	r2, #16
	orrs	r0, r2
	str	r0, [r1, #8]
	.loc	5 671 1 is_stmt 1               @ ../Firmware/GD32E23x_standard_peripheral/Source/gd32e23x_usart.c:671:1
	add	sp, #4
	bx	lr
.Ltmp83:
.Lfunc_end36:
	.size	usart_smartcard_mode_nack_enable, .Lfunc_end36-usart_smartcard_mode_nack_enable
	.cfi_endproc
	.cantunwind
	.fnend
                                        @ -- End function
	.section	.text.usart_smartcard_mode_nack_disable,"ax",%progbits
	.hidden	usart_smartcard_mode_nack_disable @ -- Begin function usart_smartcard_mode_nack_disable
	.globl	usart_smartcard_mode_nack_disable
	.p2align	1
	.type	usart_smartcard_mode_nack_disable,%function
	.code	16                              @ @usart_smartcard_mode_nack_disable
	.thumb_func
usart_smartcard_mode_nack_disable:
.Lfunc_begin37:
	.loc	5 680 0                         @ ../Firmware/GD32E23x_standard_peripheral/Source/gd32e23x_usart.c:680:0
	.fnstart
	.cfi_startproc
@ %bb.0:
	.pad	#4
	sub	sp, #4
	.cfi_def_cfa_offset 4
	str	r0, [sp]
.Ltmp84:
	.loc	5 682 5 prologue_end            @ ../Firmware/GD32E23x_standard_peripheral/Source/gd32e23x_usart.c:682:5
	ldr	r1, [sp]
	.loc	5 682 30 is_stmt 0              @ ../Firmware/GD32E23x_standard_peripheral/Source/gd32e23x_usart.c:682:30
	ldr	r0, [r1]
	movs	r2, #1
	bics	r0, r2
	str	r0, [r1]
	.loc	5 684 5 is_stmt 1               @ ../Firmware/GD32E23x_standard_peripheral/Source/gd32e23x_usart.c:684:5
	ldr	r1, [sp]
	.loc	5 684 30 is_stmt 0              @ ../Firmware/GD32E23x_standard_peripheral/Source/gd32e23x_usart.c:684:30
	ldr	r0, [r1, #8]
	movs	r2, #16
	bics	r0, r2
	str	r0, [r1, #8]
	.loc	5 685 1 is_stmt 1               @ ../Firmware/GD32E23x_standard_peripheral/Source/gd32e23x_usart.c:685:1
	add	sp, #4
	bx	lr
.Ltmp85:
.Lfunc_end37:
	.size	usart_smartcard_mode_nack_disable, .Lfunc_end37-usart_smartcard_mode_nack_disable
	.cfi_endproc
	.cantunwind
	.fnend
                                        @ -- End function
	.section	.text.usart_smartcard_mode_early_nack_enable,"ax",%progbits
	.hidden	usart_smartcard_mode_early_nack_enable @ -- Begin function usart_smartcard_mode_early_nack_enable
	.globl	usart_smartcard_mode_early_nack_enable
	.p2align	1
	.type	usart_smartcard_mode_early_nack_enable,%function
	.code	16                              @ @usart_smartcard_mode_early_nack_enable
	.thumb_func
usart_smartcard_mode_early_nack_enable:
.Lfunc_begin38:
	.loc	5 694 0                         @ ../Firmware/GD32E23x_standard_peripheral/Source/gd32e23x_usart.c:694:0
	.fnstart
	.cfi_startproc
@ %bb.0:
	.pad	#4
	sub	sp, #4
	.cfi_def_cfa_offset 4
	str	r0, [sp]
.Ltmp86:
	.loc	5 695 5 prologue_end            @ ../Firmware/GD32E23x_standard_peripheral/Source/gd32e23x_usart.c:695:5
	ldr	r1, [sp]
	movs	r2, #208
	.loc	5 695 30 is_stmt 0              @ ../Firmware/GD32E23x_standard_peripheral/Source/gd32e23x_usart.c:695:30
	ldr	r0, [r1, r2]
	movs	r3, #1
	orrs	r0, r3
	str	r0, [r1, r2]
	.loc	5 696 1 is_stmt 1               @ ../Firmware/GD32E23x_standard_peripheral/Source/gd32e23x_usart.c:696:1
	add	sp, #4
	bx	lr
.Ltmp87:
.Lfunc_end38:
	.size	usart_smartcard_mode_early_nack_enable, .Lfunc_end38-usart_smartcard_mode_early_nack_enable
	.cfi_endproc
	.cantunwind
	.fnend
                                        @ -- End function
	.section	.text.usart_smartcard_mode_early_nack_disable,"ax",%progbits
	.hidden	usart_smartcard_mode_early_nack_disable @ -- Begin function usart_smartcard_mode_early_nack_disable
	.globl	usart_smartcard_mode_early_nack_disable
	.p2align	1
	.type	usart_smartcard_mode_early_nack_disable,%function
	.code	16                              @ @usart_smartcard_mode_early_nack_disable
	.thumb_func
usart_smartcard_mode_early_nack_disable:
.Lfunc_begin39:
	.loc	5 705 0                         @ ../Firmware/GD32E23x_standard_peripheral/Source/gd32e23x_usart.c:705:0
	.fnstart
	.cfi_startproc
@ %bb.0:
	.pad	#4
	sub	sp, #4
	.cfi_def_cfa_offset 4
	str	r0, [sp]
.Ltmp88:
	.loc	5 706 5 prologue_end            @ ../Firmware/GD32E23x_standard_peripheral/Source/gd32e23x_usart.c:706:5
	ldr	r1, [sp]
	movs	r2, #208
	.loc	5 706 30 is_stmt 0              @ ../Firmware/GD32E23x_standard_peripheral/Source/gd32e23x_usart.c:706:30
	ldr	r0, [r1, r2]
	movs	r3, #1
	bics	r0, r3
	str	r0, [r1, r2]
	.loc	5 707 1 is_stmt 1               @ ../Firmware/GD32E23x_standard_peripheral/Source/gd32e23x_usart.c:707:1
	add	sp, #4
	bx	lr
.Ltmp89:
.Lfunc_end39:
	.size	usart_smartcard_mode_early_nack_disable, .Lfunc_end39-usart_smartcard_mode_early_nack_disable
	.cfi_endproc
	.cantunwind
	.fnend
                                        @ -- End function
	.section	.text.usart_smartcard_autoretry_config,"ax",%progbits
	.hidden	usart_smartcard_autoretry_config @ -- Begin function usart_smartcard_autoretry_config
	.globl	usart_smartcard_autoretry_config
	.p2align	1
	.type	usart_smartcard_autoretry_config,%function
	.code	16                              @ @usart_smartcard_autoretry_config
	.thumb_func
usart_smartcard_autoretry_config:
.Lfunc_begin40:
	.loc	5 717 0                         @ ../Firmware/GD32E23x_standard_peripheral/Source/gd32e23x_usart.c:717:0
	.fnstart
	.cfi_startproc
@ %bb.0:
	.pad	#8
	sub	sp, #8
	.cfi_def_cfa_offset 8
	str	r0, [sp, #4]
	str	r1, [sp]
.Ltmp90:
	.loc	5 719 5 prologue_end            @ ../Firmware/GD32E23x_standard_peripheral/Source/gd32e23x_usart.c:719:5
	ldr	r1, [sp, #4]
	.loc	5 719 30 is_stmt 0              @ ../Firmware/GD32E23x_standard_peripheral/Source/gd32e23x_usart.c:719:30
	ldr	r0, [r1]
	movs	r2, #1
	bics	r0, r2
	str	r0, [r1]
	.loc	5 720 5 is_stmt 1               @ ../Firmware/GD32E23x_standard_peripheral/Source/gd32e23x_usart.c:720:5
	ldr	r1, [sp, #4]
	.loc	5 720 30 is_stmt 0              @ ../Firmware/GD32E23x_standard_peripheral/Source/gd32e23x_usart.c:720:30
	ldr	r0, [r1, #8]
	movs	r2, #7
	lsls	r2, r2, #17
	bics	r0, r2
	str	r0, [r1, #8]
	.loc	5 721 56 is_stmt 1              @ ../Firmware/GD32E23x_standard_peripheral/Source/gd32e23x_usart.c:721:56
	ldr	r0, [sp]
	.loc	5 721 53 is_stmt 0              @ ../Firmware/GD32E23x_standard_peripheral/Source/gd32e23x_usart.c:721:53
	lsls	r0, r0, #29
	lsrs	r2, r0, #12
	.loc	5 721 5                         @ ../Firmware/GD32E23x_standard_peripheral/Source/gd32e23x_usart.c:721:5
	ldr	r1, [sp, #4]
	.loc	5 721 30                        @ ../Firmware/GD32E23x_standard_peripheral/Source/gd32e23x_usart.c:721:30
	ldr	r0, [r1, #8]
	orrs	r0, r2
	str	r0, [r1, #8]
	.loc	5 722 1 is_stmt 1               @ ../Firmware/GD32E23x_standard_peripheral/Source/gd32e23x_usart.c:722:1
	add	sp, #8
	bx	lr
.Ltmp91:
.Lfunc_end40:
	.size	usart_smartcard_autoretry_config, .Lfunc_end40-usart_smartcard_autoretry_config
	.cfi_endproc
	.cantunwind
	.fnend
                                        @ -- End function
	.section	.text.usart_block_length_config,"ax",%progbits
	.hidden	usart_block_length_config       @ -- Begin function usart_block_length_config
	.globl	usart_block_length_config
	.p2align	1
	.type	usart_block_length_config,%function
	.code	16                              @ @usart_block_length_config
	.thumb_func
usart_block_length_config:
.Lfunc_begin41:
	.loc	5 732 0                         @ ../Firmware/GD32E23x_standard_peripheral/Source/gd32e23x_usart.c:732:0
	.fnstart
	.cfi_startproc
@ %bb.0:
	.pad	#8
	sub	sp, #8
	.cfi_def_cfa_offset 8
	str	r0, [sp, #4]
	str	r1, [sp]
.Ltmp92:
	.loc	5 733 5 prologue_end            @ ../Firmware/GD32E23x_standard_peripheral/Source/gd32e23x_usart.c:733:5
	ldr	r1, [sp, #4]
	.loc	5 733 28 is_stmt 0              @ ../Firmware/GD32E23x_standard_peripheral/Source/gd32e23x_usart.c:733:28
	ldr	r0, [r1, #20]
	movs	r2, #255
	lsls	r2, r2, #24
	bics	r0, r2
	str	r0, [r1, #20]
	.loc	5 734 48 is_stmt 1              @ ../Firmware/GD32E23x_standard_peripheral/Source/gd32e23x_usart.c:734:48
	ldr	r0, [sp]
	.loc	5 734 52 is_stmt 0              @ ../Firmware/GD32E23x_standard_peripheral/Source/gd32e23x_usart.c:734:52
	lsls	r2, r0, #24
	.loc	5 734 5                         @ ../Firmware/GD32E23x_standard_peripheral/Source/gd32e23x_usart.c:734:5
	ldr	r1, [sp, #4]
	.loc	5 734 28                        @ ../Firmware/GD32E23x_standard_peripheral/Source/gd32e23x_usart.c:734:28
	ldr	r0, [r1, #20]
	orrs	r0, r2
	str	r0, [r1, #20]
	.loc	5 735 1 is_stmt 1               @ ../Firmware/GD32E23x_standard_peripheral/Source/gd32e23x_usart.c:735:1
	add	sp, #8
	bx	lr
.Ltmp93:
.Lfunc_end41:
	.size	usart_block_length_config, .Lfunc_end41-usart_block_length_config
	.cfi_endproc
	.cantunwind
	.fnend
                                        @ -- End function
	.section	.text.usart_irda_mode_enable,"ax",%progbits
	.hidden	usart_irda_mode_enable          @ -- Begin function usart_irda_mode_enable
	.globl	usart_irda_mode_enable
	.p2align	1
	.type	usart_irda_mode_enable,%function
	.code	16                              @ @usart_irda_mode_enable
	.thumb_func
usart_irda_mode_enable:
.Lfunc_begin42:
	.loc	5 744 0                         @ ../Firmware/GD32E23x_standard_peripheral/Source/gd32e23x_usart.c:744:0
	.fnstart
	.cfi_startproc
@ %bb.0:
	.pad	#4
	sub	sp, #4
	.cfi_def_cfa_offset 4
	str	r0, [sp]
.Ltmp94:
	.loc	5 746 5 prologue_end            @ ../Firmware/GD32E23x_standard_peripheral/Source/gd32e23x_usart.c:746:5
	ldr	r1, [sp]
	.loc	5 746 30 is_stmt 0              @ ../Firmware/GD32E23x_standard_peripheral/Source/gd32e23x_usart.c:746:30
	ldr	r0, [r1]
	movs	r2, #1
	bics	r0, r2
	str	r0, [r1]
	.loc	5 748 5 is_stmt 1               @ ../Firmware/GD32E23x_standard_peripheral/Source/gd32e23x_usart.c:748:5
	ldr	r1, [sp]
	.loc	5 748 30 is_stmt 0              @ ../Firmware/GD32E23x_standard_peripheral/Source/gd32e23x_usart.c:748:30
	ldr	r0, [r1, #8]
	movs	r2, #2
	orrs	r0, r2
	str	r0, [r1, #8]
	.loc	5 749 1 is_stmt 1               @ ../Firmware/GD32E23x_standard_peripheral/Source/gd32e23x_usart.c:749:1
	add	sp, #4
	bx	lr
.Ltmp95:
.Lfunc_end42:
	.size	usart_irda_mode_enable, .Lfunc_end42-usart_irda_mode_enable
	.cfi_endproc
	.cantunwind
	.fnend
                                        @ -- End function
	.section	.text.usart_irda_mode_disable,"ax",%progbits
	.hidden	usart_irda_mode_disable         @ -- Begin function usart_irda_mode_disable
	.globl	usart_irda_mode_disable
	.p2align	1
	.type	usart_irda_mode_disable,%function
	.code	16                              @ @usart_irda_mode_disable
	.thumb_func
usart_irda_mode_disable:
.Lfunc_begin43:
	.loc	5 758 0                         @ ../Firmware/GD32E23x_standard_peripheral/Source/gd32e23x_usart.c:758:0
	.fnstart
	.cfi_startproc
@ %bb.0:
	.pad	#4
	sub	sp, #4
	.cfi_def_cfa_offset 4
	str	r0, [sp]
.Ltmp96:
	.loc	5 760 5 prologue_end            @ ../Firmware/GD32E23x_standard_peripheral/Source/gd32e23x_usart.c:760:5
	ldr	r1, [sp]
	.loc	5 760 30 is_stmt 0              @ ../Firmware/GD32E23x_standard_peripheral/Source/gd32e23x_usart.c:760:30
	ldr	r0, [r1]
	movs	r2, #1
	bics	r0, r2
	str	r0, [r1]
	.loc	5 762 5 is_stmt 1               @ ../Firmware/GD32E23x_standard_peripheral/Source/gd32e23x_usart.c:762:5
	ldr	r1, [sp]
	.loc	5 762 30 is_stmt 0              @ ../Firmware/GD32E23x_standard_peripheral/Source/gd32e23x_usart.c:762:30
	ldr	r0, [r1, #8]
	movs	r2, #2
	bics	r0, r2
	str	r0, [r1, #8]
	.loc	5 763 1 is_stmt 1               @ ../Firmware/GD32E23x_standard_peripheral/Source/gd32e23x_usart.c:763:1
	add	sp, #4
	bx	lr
.Ltmp97:
.Lfunc_end43:
	.size	usart_irda_mode_disable, .Lfunc_end43-usart_irda_mode_disable
	.cfi_endproc
	.cantunwind
	.fnend
                                        @ -- End function
	.section	.text.usart_prescaler_config,"ax",%progbits
	.hidden	usart_prescaler_config          @ -- Begin function usart_prescaler_config
	.globl	usart_prescaler_config
	.p2align	1
	.type	usart_prescaler_config,%function
	.code	16                              @ @usart_prescaler_config
	.thumb_func
usart_prescaler_config:
.Lfunc_begin44:
	.loc	5 773 0                         @ ../Firmware/GD32E23x_standard_peripheral/Source/gd32e23x_usart.c:773:0
	.fnstart
	.cfi_startproc
@ %bb.0:
	.pad	#8
	sub	sp, #8
	.cfi_def_cfa_offset 8
	str	r0, [sp, #4]
	str	r1, [sp]
.Ltmp98:
	.loc	5 775 5 prologue_end            @ ../Firmware/GD32E23x_standard_peripheral/Source/gd32e23x_usart.c:775:5
	ldr	r1, [sp, #4]
	.loc	5 775 30 is_stmt 0              @ ../Firmware/GD32E23x_standard_peripheral/Source/gd32e23x_usart.c:775:30
	ldr	r0, [r1]
	movs	r2, #1
	bics	r0, r2
	str	r0, [r1]
	.loc	5 776 5 is_stmt 1               @ ../Firmware/GD32E23x_standard_peripheral/Source/gd32e23x_usart.c:776:5
	ldr	r1, [sp, #4]
	.loc	5 776 28 is_stmt 0              @ ../Firmware/GD32E23x_standard_peripheral/Source/gd32e23x_usart.c:776:28
	ldr	r0, [r1, #16]
	movs	r2, #255
	bics	r0, r2
	str	r0, [r1, #16]
	.loc	5 777 31 is_stmt 1              @ ../Firmware/GD32E23x_standard_peripheral/Source/gd32e23x_usart.c:777:31
	ldr	r2, [sp]
	.loc	5 777 5 is_stmt 0               @ ../Firmware/GD32E23x_standard_peripheral/Source/gd32e23x_usart.c:777:5
	ldr	r1, [sp, #4]
	.loc	5 777 28                        @ ../Firmware/GD32E23x_standard_peripheral/Source/gd32e23x_usart.c:777:28
	ldr	r0, [r1, #16]
	orrs	r0, r2
	str	r0, [r1, #16]
	.loc	5 778 1 is_stmt 1               @ ../Firmware/GD32E23x_standard_peripheral/Source/gd32e23x_usart.c:778:1
	add	sp, #8
	bx	lr
.Ltmp99:
.Lfunc_end44:
	.size	usart_prescaler_config, .Lfunc_end44-usart_prescaler_config
	.cfi_endproc
	.cantunwind
	.fnend
                                        @ -- End function
	.section	.text.usart_irda_lowpower_config,"ax",%progbits
	.hidden	usart_irda_lowpower_config      @ -- Begin function usart_irda_lowpower_config
	.globl	usart_irda_lowpower_config
	.p2align	1
	.type	usart_irda_lowpower_config,%function
	.code	16                              @ @usart_irda_lowpower_config
	.thumb_func
usart_irda_lowpower_config:
.Lfunc_begin45:
	.loc	5 791 0                         @ ../Firmware/GD32E23x_standard_peripheral/Source/gd32e23x_usart.c:791:0
	.fnstart
	.cfi_startproc
@ %bb.0:
	.pad	#8
	sub	sp, #8
	.cfi_def_cfa_offset 8
	str	r0, [sp, #4]
	str	r1, [sp]
.Ltmp100:
	.loc	5 793 5 prologue_end            @ ../Firmware/GD32E23x_standard_peripheral/Source/gd32e23x_usart.c:793:5
	ldr	r1, [sp, #4]
	.loc	5 793 30 is_stmt 0              @ ../Firmware/GD32E23x_standard_peripheral/Source/gd32e23x_usart.c:793:30
	ldr	r0, [r1]
	movs	r2, #1
	bics	r0, r2
	str	r0, [r1]
	.loc	5 794 5 is_stmt 1               @ ../Firmware/GD32E23x_standard_peripheral/Source/gd32e23x_usart.c:794:5
	ldr	r2, [sp, #4]
	.loc	5 794 30 is_stmt 0              @ ../Firmware/GD32E23x_standard_peripheral/Source/gd32e23x_usart.c:794:30
	ldr	r1, [r2, #8]
	movs	r0, #4
	bics	r1, r0
	str	r1, [r2, #8]
	.loc	5 795 52 is_stmt 1              @ ../Firmware/GD32E23x_standard_peripheral/Source/gd32e23x_usart.c:795:52
	ldr	r2, [sp]
	.loc	5 795 50 is_stmt 0              @ ../Firmware/GD32E23x_standard_peripheral/Source/gd32e23x_usart.c:795:50
	ands	r2, r0
	.loc	5 795 5                         @ ../Firmware/GD32E23x_standard_peripheral/Source/gd32e23x_usart.c:795:5
	ldr	r1, [sp, #4]
	.loc	5 795 30                        @ ../Firmware/GD32E23x_standard_peripheral/Source/gd32e23x_usart.c:795:30
	ldr	r0, [r1, #8]
	orrs	r0, r2
	str	r0, [r1, #8]
	.loc	5 796 1 is_stmt 1               @ ../Firmware/GD32E23x_standard_peripheral/Source/gd32e23x_usart.c:796:1
	add	sp, #8
	bx	lr
.Ltmp101:
.Lfunc_end45:
	.size	usart_irda_lowpower_config, .Lfunc_end45-usart_irda_lowpower_config
	.cfi_endproc
	.cantunwind
	.fnend
                                        @ -- End function
	.section	.text.usart_hardware_flow_rts_config,"ax",%progbits
	.hidden	usart_hardware_flow_rts_config  @ -- Begin function usart_hardware_flow_rts_config
	.globl	usart_hardware_flow_rts_config
	.p2align	1
	.type	usart_hardware_flow_rts_config,%function
	.code	16                              @ @usart_hardware_flow_rts_config
	.thumb_func
usart_hardware_flow_rts_config:
.Lfunc_begin46:
	.loc	5 809 0                         @ ../Firmware/GD32E23x_standard_peripheral/Source/gd32e23x_usart.c:809:0
	.fnstart
	.cfi_startproc
@ %bb.0:
	.pad	#8
	sub	sp, #8
	.cfi_def_cfa_offset 8
	str	r0, [sp, #4]
	str	r1, [sp]
.Ltmp102:
	.loc	5 811 5 prologue_end            @ ../Firmware/GD32E23x_standard_peripheral/Source/gd32e23x_usart.c:811:5
	ldr	r1, [sp, #4]
	.loc	5 811 30 is_stmt 0              @ ../Firmware/GD32E23x_standard_peripheral/Source/gd32e23x_usart.c:811:30
	ldr	r0, [r1]
	movs	r2, #1
	bics	r0, r2
	str	r0, [r1]
	.loc	5 813 5 is_stmt 1               @ ../Firmware/GD32E23x_standard_peripheral/Source/gd32e23x_usart.c:813:5
	ldr	r1, [sp, #4]
	.loc	5 813 30 is_stmt 0              @ ../Firmware/GD32E23x_standard_peripheral/Source/gd32e23x_usart.c:813:30
	ldr	r0, [r1, #8]
	movw	r2, #256
	bics	r0, r2
	str	r0, [r1, #8]
	.loc	5 814 33 is_stmt 1              @ ../Firmware/GD32E23x_standard_peripheral/Source/gd32e23x_usart.c:814:33
	ldr	r2, [sp]
	.loc	5 814 5 is_stmt 0               @ ../Firmware/GD32E23x_standard_peripheral/Source/gd32e23x_usart.c:814:5
	ldr	r1, [sp, #4]
	.loc	5 814 30                        @ ../Firmware/GD32E23x_standard_peripheral/Source/gd32e23x_usart.c:814:30
	ldr	r0, [r1, #8]
	orrs	r0, r2
	str	r0, [r1, #8]
	.loc	5 815 1 is_stmt 1               @ ../Firmware/GD32E23x_standard_peripheral/Source/gd32e23x_usart.c:815:1
	add	sp, #8
	bx	lr
.Ltmp103:
.Lfunc_end46:
	.size	usart_hardware_flow_rts_config, .Lfunc_end46-usart_hardware_flow_rts_config
	.cfi_endproc
	.cantunwind
	.fnend
                                        @ -- End function
	.section	.text.usart_hardware_flow_cts_config,"ax",%progbits
	.hidden	usart_hardware_flow_cts_config  @ -- Begin function usart_hardware_flow_cts_config
	.globl	usart_hardware_flow_cts_config
	.p2align	1
	.type	usart_hardware_flow_cts_config,%function
	.code	16                              @ @usart_hardware_flow_cts_config
	.thumb_func
usart_hardware_flow_cts_config:
.Lfunc_begin47:
	.loc	5 828 0                         @ ../Firmware/GD32E23x_standard_peripheral/Source/gd32e23x_usart.c:828:0
	.fnstart
	.cfi_startproc
@ %bb.0:
	.pad	#8
	sub	sp, #8
	.cfi_def_cfa_offset 8
	str	r0, [sp, #4]
	str	r1, [sp]
.Ltmp104:
	.loc	5 830 5 prologue_end            @ ../Firmware/GD32E23x_standard_peripheral/Source/gd32e23x_usart.c:830:5
	ldr	r1, [sp, #4]
	.loc	5 830 30 is_stmt 0              @ ../Firmware/GD32E23x_standard_peripheral/Source/gd32e23x_usart.c:830:30
	ldr	r0, [r1]
	movs	r2, #1
	bics	r0, r2
	str	r0, [r1]
	.loc	5 832 5 is_stmt 1               @ ../Firmware/GD32E23x_standard_peripheral/Source/gd32e23x_usart.c:832:5
	ldr	r1, [sp, #4]
	.loc	5 832 30 is_stmt 0              @ ../Firmware/GD32E23x_standard_peripheral/Source/gd32e23x_usart.c:832:30
	ldr	r0, [r1, #8]
	movw	r2, #512
	bics	r0, r2
	str	r0, [r1, #8]
	.loc	5 833 33 is_stmt 1              @ ../Firmware/GD32E23x_standard_peripheral/Source/gd32e23x_usart.c:833:33
	ldr	r2, [sp]
	.loc	5 833 5 is_stmt 0               @ ../Firmware/GD32E23x_standard_peripheral/Source/gd32e23x_usart.c:833:5
	ldr	r1, [sp, #4]
	.loc	5 833 30                        @ ../Firmware/GD32E23x_standard_peripheral/Source/gd32e23x_usart.c:833:30
	ldr	r0, [r1, #8]
	orrs	r0, r2
	str	r0, [r1, #8]
	.loc	5 834 1 is_stmt 1               @ ../Firmware/GD32E23x_standard_peripheral/Source/gd32e23x_usart.c:834:1
	add	sp, #8
	bx	lr
.Ltmp105:
.Lfunc_end47:
	.size	usart_hardware_flow_cts_config, .Lfunc_end47-usart_hardware_flow_cts_config
	.cfi_endproc
	.cantunwind
	.fnend
                                        @ -- End function
	.section	.text.usart_hardware_flow_coherence_config,"ax",%progbits
	.hidden	usart_hardware_flow_coherence_config @ -- Begin function usart_hardware_flow_coherence_config
	.globl	usart_hardware_flow_coherence_config
	.p2align	1
	.type	usart_hardware_flow_coherence_config,%function
	.code	16                              @ @usart_hardware_flow_coherence_config
	.thumb_func
usart_hardware_flow_coherence_config:
.Lfunc_begin48:
	.loc	5 847 0                         @ ../Firmware/GD32E23x_standard_peripheral/Source/gd32e23x_usart.c:847:0
	.fnstart
	.cfi_startproc
@ %bb.0:
	.pad	#8
	sub	sp, #8
	.cfi_def_cfa_offset 8
	str	r0, [sp, #4]
	str	r1, [sp]
.Ltmp106:
	.loc	5 848 5 prologue_end            @ ../Firmware/GD32E23x_standard_peripheral/Source/gd32e23x_usart.c:848:5
	ldr	r3, [sp, #4]
	movs	r2, #192
	.loc	5 848 29 is_stmt 0              @ ../Firmware/GD32E23x_standard_peripheral/Source/gd32e23x_usart.c:848:29
	ldr	r1, [r3, r2]
	movs	r0, #1
	bics	r1, r0
	str	r1, [r3, r2]
	.loc	5 849 49 is_stmt 1              @ ../Firmware/GD32E23x_standard_peripheral/Source/gd32e23x_usart.c:849:49
	ldr	r3, [sp]
	.loc	5 849 47 is_stmt 0              @ ../Firmware/GD32E23x_standard_peripheral/Source/gd32e23x_usart.c:849:47
	ands	r3, r0
	.loc	5 849 5                         @ ../Firmware/GD32E23x_standard_peripheral/Source/gd32e23x_usart.c:849:5
	ldr	r1, [sp, #4]
	.loc	5 849 29                        @ ../Firmware/GD32E23x_standard_peripheral/Source/gd32e23x_usart.c:849:29
	ldr	r0, [r1, r2]
	orrs	r0, r3
	str	r0, [r1, r2]
	.loc	5 850 1 is_stmt 1               @ ../Firmware/GD32E23x_standard_peripheral/Source/gd32e23x_usart.c:850:1
	add	sp, #8
	bx	lr
.Ltmp107:
.Lfunc_end48:
	.size	usart_hardware_flow_coherence_config, .Lfunc_end48-usart_hardware_flow_coherence_config
	.cfi_endproc
	.cantunwind
	.fnend
                                        @ -- End function
	.section	.text.usart_rs485_driver_enable,"ax",%progbits
	.hidden	usart_rs485_driver_enable       @ -- Begin function usart_rs485_driver_enable
	.globl	usart_rs485_driver_enable
	.p2align	1
	.type	usart_rs485_driver_enable,%function
	.code	16                              @ @usart_rs485_driver_enable
	.thumb_func
usart_rs485_driver_enable:
.Lfunc_begin49:
	.loc	5 859 0                         @ ../Firmware/GD32E23x_standard_peripheral/Source/gd32e23x_usart.c:859:0
	.fnstart
	.cfi_startproc
@ %bb.0:
	.pad	#4
	sub	sp, #4
	.cfi_def_cfa_offset 4
	str	r0, [sp]
.Ltmp108:
	.loc	5 861 5 prologue_end            @ ../Firmware/GD32E23x_standard_peripheral/Source/gd32e23x_usart.c:861:5
	ldr	r1, [sp]
	.loc	5 861 30 is_stmt 0              @ ../Firmware/GD32E23x_standard_peripheral/Source/gd32e23x_usart.c:861:30
	ldr	r0, [r1]
	movs	r2, #1
	bics	r0, r2
	str	r0, [r1]
	.loc	5 863 5 is_stmt 1               @ ../Firmware/GD32E23x_standard_peripheral/Source/gd32e23x_usart.c:863:5
	ldr	r1, [sp]
	.loc	5 863 30 is_stmt 0              @ ../Firmware/GD32E23x_standard_peripheral/Source/gd32e23x_usart.c:863:30
	ldr	r0, [r1, #8]
	movw	r2, #16384
	orrs	r0, r2
	str	r0, [r1, #8]
	.loc	5 864 1 is_stmt 1               @ ../Firmware/GD32E23x_standard_peripheral/Source/gd32e23x_usart.c:864:1
	add	sp, #4
	bx	lr
.Ltmp109:
.Lfunc_end49:
	.size	usart_rs485_driver_enable, .Lfunc_end49-usart_rs485_driver_enable
	.cfi_endproc
	.cantunwind
	.fnend
                                        @ -- End function
	.section	.text.usart_rs485_driver_disable,"ax",%progbits
	.hidden	usart_rs485_driver_disable      @ -- Begin function usart_rs485_driver_disable
	.globl	usart_rs485_driver_disable
	.p2align	1
	.type	usart_rs485_driver_disable,%function
	.code	16                              @ @usart_rs485_driver_disable
	.thumb_func
usart_rs485_driver_disable:
.Lfunc_begin50:
	.loc	5 873 0                         @ ../Firmware/GD32E23x_standard_peripheral/Source/gd32e23x_usart.c:873:0
	.fnstart
	.cfi_startproc
@ %bb.0:
	.pad	#4
	sub	sp, #4
	.cfi_def_cfa_offset 4
	str	r0, [sp]
.Ltmp110:
	.loc	5 875 5 prologue_end            @ ../Firmware/GD32E23x_standard_peripheral/Source/gd32e23x_usart.c:875:5
	ldr	r1, [sp]
	.loc	5 875 30 is_stmt 0              @ ../Firmware/GD32E23x_standard_peripheral/Source/gd32e23x_usart.c:875:30
	ldr	r0, [r1]
	movs	r2, #1
	bics	r0, r2
	str	r0, [r1]
	.loc	5 877 5 is_stmt 1               @ ../Firmware/GD32E23x_standard_peripheral/Source/gd32e23x_usart.c:877:5
	ldr	r1, [sp]
	.loc	5 877 30 is_stmt 0              @ ../Firmware/GD32E23x_standard_peripheral/Source/gd32e23x_usart.c:877:30
	ldr	r0, [r1, #8]
	movw	r2, #16384
	bics	r0, r2
	str	r0, [r1, #8]
	.loc	5 878 1 is_stmt 1               @ ../Firmware/GD32E23x_standard_peripheral/Source/gd32e23x_usart.c:878:1
	add	sp, #4
	bx	lr
.Ltmp111:
.Lfunc_end50:
	.size	usart_rs485_driver_disable, .Lfunc_end50-usart_rs485_driver_disable
	.cfi_endproc
	.cantunwind
	.fnend
                                        @ -- End function
	.section	.text.usart_driver_assertime_config,"ax",%progbits
	.hidden	usart_driver_assertime_config   @ -- Begin function usart_driver_assertime_config
	.globl	usart_driver_assertime_config
	.p2align	1
	.type	usart_driver_assertime_config,%function
	.code	16                              @ @usart_driver_assertime_config
	.thumb_func
usart_driver_assertime_config:
.Lfunc_begin51:
	.loc	5 888 0                         @ ../Firmware/GD32E23x_standard_peripheral/Source/gd32e23x_usart.c:888:0
	.fnstart
	.cfi_startproc
@ %bb.0:
	.pad	#8
	sub	sp, #8
	.cfi_def_cfa_offset 8
	str	r0, [sp, #4]
	str	r1, [sp]
.Ltmp112:
	.loc	5 890 5 prologue_end            @ ../Firmware/GD32E23x_standard_peripheral/Source/gd32e23x_usart.c:890:5
	ldr	r1, [sp, #4]
	.loc	5 890 30 is_stmt 0              @ ../Firmware/GD32E23x_standard_peripheral/Source/gd32e23x_usart.c:890:30
	ldr	r0, [r1]
	movs	r2, #1
	bics	r0, r2
	str	r0, [r1]
	.loc	5 892 5 is_stmt 1               @ ../Firmware/GD32E23x_standard_peripheral/Source/gd32e23x_usart.c:892:5
	ldr	r1, [sp, #4]
	.loc	5 892 30 is_stmt 0              @ ../Firmware/GD32E23x_standard_peripheral/Source/gd32e23x_usart.c:892:30
	ldr	r0, [r1]
	movs	r2, #31
	lsls	r2, r2, #21
	bics	r0, r2
	str	r0, [r1]
	.loc	5 893 53 is_stmt 1              @ ../Firmware/GD32E23x_standard_peripheral/Source/gd32e23x_usart.c:893:53
	ldr	r0, [sp]
	.loc	5 893 49 is_stmt 0              @ ../Firmware/GD32E23x_standard_peripheral/Source/gd32e23x_usart.c:893:49
	lsls	r0, r0, #27
	lsrs	r2, r0, #6
	.loc	5 893 5                         @ ../Firmware/GD32E23x_standard_peripheral/Source/gd32e23x_usart.c:893:5
	ldr	r1, [sp, #4]
	.loc	5 893 30                        @ ../Firmware/GD32E23x_standard_peripheral/Source/gd32e23x_usart.c:893:30
	ldr	r0, [r1]
	orrs	r0, r2
	str	r0, [r1]
	.loc	5 894 1 is_stmt 1               @ ../Firmware/GD32E23x_standard_peripheral/Source/gd32e23x_usart.c:894:1
	add	sp, #8
	bx	lr
.Ltmp113:
.Lfunc_end51:
	.size	usart_driver_assertime_config, .Lfunc_end51-usart_driver_assertime_config
	.cfi_endproc
	.cantunwind
	.fnend
                                        @ -- End function
	.section	.text.usart_driver_deassertime_config,"ax",%progbits
	.hidden	usart_driver_deassertime_config @ -- Begin function usart_driver_deassertime_config
	.globl	usart_driver_deassertime_config
	.p2align	1
	.type	usart_driver_deassertime_config,%function
	.code	16                              @ @usart_driver_deassertime_config
	.thumb_func
usart_driver_deassertime_config:
.Lfunc_begin52:
	.loc	5 904 0                         @ ../Firmware/GD32E23x_standard_peripheral/Source/gd32e23x_usart.c:904:0
	.fnstart
	.cfi_startproc
@ %bb.0:
	.pad	#8
	sub	sp, #8
	.cfi_def_cfa_offset 8
	str	r0, [sp, #4]
	str	r1, [sp]
.Ltmp114:
	.loc	5 906 5 prologue_end            @ ../Firmware/GD32E23x_standard_peripheral/Source/gd32e23x_usart.c:906:5
	ldr	r1, [sp, #4]
	.loc	5 906 30 is_stmt 0              @ ../Firmware/GD32E23x_standard_peripheral/Source/gd32e23x_usart.c:906:30
	ldr	r0, [r1]
	movs	r2, #1
	bics	r0, r2
	str	r0, [r1]
	.loc	5 908 5 is_stmt 1               @ ../Firmware/GD32E23x_standard_peripheral/Source/gd32e23x_usart.c:908:5
	ldr	r1, [sp, #4]
	.loc	5 908 30 is_stmt 0              @ ../Firmware/GD32E23x_standard_peripheral/Source/gd32e23x_usart.c:908:30
	ldr	r0, [r1]
	movs	r2, #31
	lsls	r2, r2, #16
	bics	r0, r2
	str	r0, [r1]
	.loc	5 909 53 is_stmt 1              @ ../Firmware/GD32E23x_standard_peripheral/Source/gd32e23x_usart.c:909:53
	ldr	r0, [sp]
	.loc	5 909 49 is_stmt 0              @ ../Firmware/GD32E23x_standard_peripheral/Source/gd32e23x_usart.c:909:49
	lsls	r0, r0, #27
	lsrs	r2, r0, #11
	.loc	5 909 5                         @ ../Firmware/GD32E23x_standard_peripheral/Source/gd32e23x_usart.c:909:5
	ldr	r1, [sp, #4]
	.loc	5 909 30                        @ ../Firmware/GD32E23x_standard_peripheral/Source/gd32e23x_usart.c:909:30
	ldr	r0, [r1]
	orrs	r0, r2
	str	r0, [r1]
	.loc	5 910 1 is_stmt 1               @ ../Firmware/GD32E23x_standard_peripheral/Source/gd32e23x_usart.c:910:1
	add	sp, #8
	bx	lr
.Ltmp115:
.Lfunc_end52:
	.size	usart_driver_deassertime_config, .Lfunc_end52-usart_driver_deassertime_config
	.cfi_endproc
	.cantunwind
	.fnend
                                        @ -- End function
	.section	.text.usart_depolarity_config,"ax",%progbits
	.hidden	usart_depolarity_config         @ -- Begin function usart_depolarity_config
	.globl	usart_depolarity_config
	.p2align	1
	.type	usart_depolarity_config,%function
	.code	16                              @ @usart_depolarity_config
	.thumb_func
usart_depolarity_config:
.Lfunc_begin53:
	.loc	5 923 0                         @ ../Firmware/GD32E23x_standard_peripheral/Source/gd32e23x_usart.c:923:0
	.fnstart
	.cfi_startproc
@ %bb.0:
	.pad	#8
	sub	sp, #8
	.cfi_def_cfa_offset 8
	str	r0, [sp, #4]
	str	r1, [sp]
.Ltmp116:
	.loc	5 925 5 prologue_end            @ ../Firmware/GD32E23x_standard_peripheral/Source/gd32e23x_usart.c:925:5
	ldr	r1, [sp, #4]
	.loc	5 925 30 is_stmt 0              @ ../Firmware/GD32E23x_standard_peripheral/Source/gd32e23x_usart.c:925:30
	ldr	r0, [r1]
	movs	r2, #1
	bics	r0, r2
	str	r0, [r1]
	.loc	5 927 5 is_stmt 1               @ ../Firmware/GD32E23x_standard_peripheral/Source/gd32e23x_usart.c:927:5
	ldr	r2, [sp, #4]
	.loc	5 927 30 is_stmt 0              @ ../Firmware/GD32E23x_standard_peripheral/Source/gd32e23x_usart.c:927:30
	ldr	r1, [r2, #8]
	movw	r0, #32768
	bics	r1, r0
	str	r1, [r2, #8]
	.loc	5 928 51 is_stmt 1              @ ../Firmware/GD32E23x_standard_peripheral/Source/gd32e23x_usart.c:928:51
	ldr	r2, [sp]
	.loc	5 928 49 is_stmt 0              @ ../Firmware/GD32E23x_standard_peripheral/Source/gd32e23x_usart.c:928:49
	ands	r2, r0
	.loc	5 928 5                         @ ../Firmware/GD32E23x_standard_peripheral/Source/gd32e23x_usart.c:928:5
	ldr	r1, [sp, #4]
	.loc	5 928 30                        @ ../Firmware/GD32E23x_standard_peripheral/Source/gd32e23x_usart.c:928:30
	ldr	r0, [r1, #8]
	orrs	r0, r2
	str	r0, [r1, #8]
	.loc	5 929 1 is_stmt 1               @ ../Firmware/GD32E23x_standard_peripheral/Source/gd32e23x_usart.c:929:1
	add	sp, #8
	bx	lr
.Ltmp117:
.Lfunc_end53:
	.size	usart_depolarity_config, .Lfunc_end53-usart_depolarity_config
	.cfi_endproc
	.cantunwind
	.fnend
                                        @ -- End function
	.section	.text.usart_dma_receive_config,"ax",%progbits
	.hidden	usart_dma_receive_config        @ -- Begin function usart_dma_receive_config
	.globl	usart_dma_receive_config
	.p2align	1
	.type	usart_dma_receive_config,%function
	.code	16                              @ @usart_dma_receive_config
	.thumb_func
usart_dma_receive_config:
.Lfunc_begin54:
	.loc	5 942 0                         @ ../Firmware/GD32E23x_standard_peripheral/Source/gd32e23x_usart.c:942:0
	.fnstart
	.cfi_startproc
@ %bb.0:
	.pad	#8
	sub	sp, #8
	.cfi_def_cfa_offset 8
	str	r0, [sp, #4]
	str	r1, [sp]
.Ltmp118:
	.loc	5 943 5 prologue_end            @ ../Firmware/GD32E23x_standard_peripheral/Source/gd32e23x_usart.c:943:5
	ldr	r1, [sp, #4]
	.loc	5 943 30 is_stmt 0              @ ../Firmware/GD32E23x_standard_peripheral/Source/gd32e23x_usart.c:943:30
	ldr	r0, [r1, #8]
	movs	r2, #64
	bics	r0, r2
	str	r0, [r1, #8]
	.loc	5 945 33 is_stmt 1              @ ../Firmware/GD32E23x_standard_peripheral/Source/gd32e23x_usart.c:945:33
	ldr	r2, [sp]
	.loc	5 945 5 is_stmt 0               @ ../Firmware/GD32E23x_standard_peripheral/Source/gd32e23x_usart.c:945:5
	ldr	r1, [sp, #4]
	.loc	5 945 30                        @ ../Firmware/GD32E23x_standard_peripheral/Source/gd32e23x_usart.c:945:30
	ldr	r0, [r1, #8]
	orrs	r0, r2
	str	r0, [r1, #8]
	.loc	5 946 1 is_stmt 1               @ ../Firmware/GD32E23x_standard_peripheral/Source/gd32e23x_usart.c:946:1
	add	sp, #8
	bx	lr
.Ltmp119:
.Lfunc_end54:
	.size	usart_dma_receive_config, .Lfunc_end54-usart_dma_receive_config
	.cfi_endproc
	.cantunwind
	.fnend
                                        @ -- End function
	.section	.text.usart_dma_transmit_config,"ax",%progbits
	.hidden	usart_dma_transmit_config       @ -- Begin function usart_dma_transmit_config
	.globl	usart_dma_transmit_config
	.p2align	1
	.type	usart_dma_transmit_config,%function
	.code	16                              @ @usart_dma_transmit_config
	.thumb_func
usart_dma_transmit_config:
.Lfunc_begin55:
	.loc	5 959 0                         @ ../Firmware/GD32E23x_standard_peripheral/Source/gd32e23x_usart.c:959:0
	.fnstart
	.cfi_startproc
@ %bb.0:
	.pad	#8
	sub	sp, #8
	.cfi_def_cfa_offset 8
	str	r0, [sp, #4]
	str	r1, [sp]
.Ltmp120:
	.loc	5 960 5 prologue_end            @ ../Firmware/GD32E23x_standard_peripheral/Source/gd32e23x_usart.c:960:5
	ldr	r1, [sp, #4]
	.loc	5 960 30 is_stmt 0              @ ../Firmware/GD32E23x_standard_peripheral/Source/gd32e23x_usart.c:960:30
	ldr	r0, [r1, #8]
	movs	r2, #128
	bics	r0, r2
	str	r0, [r1, #8]
	.loc	5 962 33 is_stmt 1              @ ../Firmware/GD32E23x_standard_peripheral/Source/gd32e23x_usart.c:962:33
	ldr	r2, [sp]
	.loc	5 962 5 is_stmt 0               @ ../Firmware/GD32E23x_standard_peripheral/Source/gd32e23x_usart.c:962:5
	ldr	r1, [sp, #4]
	.loc	5 962 30                        @ ../Firmware/GD32E23x_standard_peripheral/Source/gd32e23x_usart.c:962:30
	ldr	r0, [r1, #8]
	orrs	r0, r2
	str	r0, [r1, #8]
	.loc	5 963 1 is_stmt 1               @ ../Firmware/GD32E23x_standard_peripheral/Source/gd32e23x_usart.c:963:1
	add	sp, #8
	bx	lr
.Ltmp121:
.Lfunc_end55:
	.size	usart_dma_transmit_config, .Lfunc_end55-usart_dma_transmit_config
	.cfi_endproc
	.cantunwind
	.fnend
                                        @ -- End function
	.section	.text.usart_reception_error_dma_disable,"ax",%progbits
	.hidden	usart_reception_error_dma_disable @ -- Begin function usart_reception_error_dma_disable
	.globl	usart_reception_error_dma_disable
	.p2align	1
	.type	usart_reception_error_dma_disable,%function
	.code	16                              @ @usart_reception_error_dma_disable
	.thumb_func
usart_reception_error_dma_disable:
.Lfunc_begin56:
	.loc	5 972 0                         @ ../Firmware/GD32E23x_standard_peripheral/Source/gd32e23x_usart.c:972:0
	.fnstart
	.cfi_startproc
@ %bb.0:
	.pad	#4
	sub	sp, #4
	.cfi_def_cfa_offset 4
	str	r0, [sp]
.Ltmp122:
	.loc	5 974 5 prologue_end            @ ../Firmware/GD32E23x_standard_peripheral/Source/gd32e23x_usart.c:974:5
	ldr	r1, [sp]
	.loc	5 974 30 is_stmt 0              @ ../Firmware/GD32E23x_standard_peripheral/Source/gd32e23x_usart.c:974:30
	ldr	r0, [r1]
	movs	r2, #1
	bics	r0, r2
	str	r0, [r1]
	.loc	5 976 5 is_stmt 1               @ ../Firmware/GD32E23x_standard_peripheral/Source/gd32e23x_usart.c:976:5
	ldr	r1, [sp]
	.loc	5 976 30 is_stmt 0              @ ../Firmware/GD32E23x_standard_peripheral/Source/gd32e23x_usart.c:976:30
	ldr	r0, [r1, #8]
	movw	r2, #8192
	orrs	r0, r2
	str	r0, [r1, #8]
	.loc	5 977 1 is_stmt 1               @ ../Firmware/GD32E23x_standard_peripheral/Source/gd32e23x_usart.c:977:1
	add	sp, #4
	bx	lr
.Ltmp123:
.Lfunc_end56:
	.size	usart_reception_error_dma_disable, .Lfunc_end56-usart_reception_error_dma_disable
	.cfi_endproc
	.cantunwind
	.fnend
                                        @ -- End function
	.section	.text.usart_reception_error_dma_enable,"ax",%progbits
	.hidden	usart_reception_error_dma_enable @ -- Begin function usart_reception_error_dma_enable
	.globl	usart_reception_error_dma_enable
	.p2align	1
	.type	usart_reception_error_dma_enable,%function
	.code	16                              @ @usart_reception_error_dma_enable
	.thumb_func
usart_reception_error_dma_enable:
.Lfunc_begin57:
	.loc	5 986 0                         @ ../Firmware/GD32E23x_standard_peripheral/Source/gd32e23x_usart.c:986:0
	.fnstart
	.cfi_startproc
@ %bb.0:
	.pad	#4
	sub	sp, #4
	.cfi_def_cfa_offset 4
	str	r0, [sp]
.Ltmp124:
	.loc	5 988 5 prologue_end            @ ../Firmware/GD32E23x_standard_peripheral/Source/gd32e23x_usart.c:988:5
	ldr	r1, [sp]
	.loc	5 988 30 is_stmt 0              @ ../Firmware/GD32E23x_standard_peripheral/Source/gd32e23x_usart.c:988:30
	ldr	r0, [r1]
	movs	r2, #1
	bics	r0, r2
	str	r0, [r1]
	.loc	5 990 5 is_stmt 1               @ ../Firmware/GD32E23x_standard_peripheral/Source/gd32e23x_usart.c:990:5
	ldr	r1, [sp]
	.loc	5 990 30 is_stmt 0              @ ../Firmware/GD32E23x_standard_peripheral/Source/gd32e23x_usart.c:990:30
	ldr	r0, [r1, #8]
	movw	r2, #8192
	bics	r0, r2
	str	r0, [r1, #8]
	.loc	5 991 1 is_stmt 1               @ ../Firmware/GD32E23x_standard_peripheral/Source/gd32e23x_usart.c:991:1
	add	sp, #4
	bx	lr
.Ltmp125:
.Lfunc_end57:
	.size	usart_reception_error_dma_enable, .Lfunc_end57-usart_reception_error_dma_enable
	.cfi_endproc
	.cantunwind
	.fnend
                                        @ -- End function
	.section	.text.usart_wakeup_enable,"ax",%progbits
	.hidden	usart_wakeup_enable             @ -- Begin function usart_wakeup_enable
	.globl	usart_wakeup_enable
	.p2align	1
	.type	usart_wakeup_enable,%function
	.code	16                              @ @usart_wakeup_enable
	.thumb_func
usart_wakeup_enable:
.Lfunc_begin58:
	.loc	5 1000 0                        @ ../Firmware/GD32E23x_standard_peripheral/Source/gd32e23x_usart.c:1000:0
	.fnstart
	.cfi_startproc
@ %bb.0:
	.pad	#4
	sub	sp, #4
	.cfi_def_cfa_offset 4
	str	r0, [sp]
.Ltmp126:
	.loc	5 1001 5 prologue_end           @ ../Firmware/GD32E23x_standard_peripheral/Source/gd32e23x_usart.c:1001:5
	ldr	r1, [sp]
	.loc	5 1001 30 is_stmt 0             @ ../Firmware/GD32E23x_standard_peripheral/Source/gd32e23x_usart.c:1001:30
	ldr	r0, [r1]
	movs	r2, #2
	orrs	r0, r2
	str	r0, [r1]
	.loc	5 1002 1 is_stmt 1              @ ../Firmware/GD32E23x_standard_peripheral/Source/gd32e23x_usart.c:1002:1
	add	sp, #4
	bx	lr
.Ltmp127:
.Lfunc_end58:
	.size	usart_wakeup_enable, .Lfunc_end58-usart_wakeup_enable
	.cfi_endproc
	.cantunwind
	.fnend
                                        @ -- End function
	.section	.text.usart_wakeup_disable,"ax",%progbits
	.hidden	usart_wakeup_disable            @ -- Begin function usart_wakeup_disable
	.globl	usart_wakeup_disable
	.p2align	1
	.type	usart_wakeup_disable,%function
	.code	16                              @ @usart_wakeup_disable
	.thumb_func
usart_wakeup_disable:
.Lfunc_begin59:
	.loc	5 1011 0                        @ ../Firmware/GD32E23x_standard_peripheral/Source/gd32e23x_usart.c:1011:0
	.fnstart
	.cfi_startproc
@ %bb.0:
	.pad	#4
	sub	sp, #4
	.cfi_def_cfa_offset 4
	str	r0, [sp]
.Ltmp128:
	.loc	5 1012 5 prologue_end           @ ../Firmware/GD32E23x_standard_peripheral/Source/gd32e23x_usart.c:1012:5
	ldr	r1, [sp]
	.loc	5 1012 30 is_stmt 0             @ ../Firmware/GD32E23x_standard_peripheral/Source/gd32e23x_usart.c:1012:30
	ldr	r0, [r1]
	movs	r2, #2
	bics	r0, r2
	str	r0, [r1]
	.loc	5 1013 1 is_stmt 1              @ ../Firmware/GD32E23x_standard_peripheral/Source/gd32e23x_usart.c:1013:1
	add	sp, #4
	bx	lr
.Ltmp129:
.Lfunc_end59:
	.size	usart_wakeup_disable, .Lfunc_end59-usart_wakeup_disable
	.cfi_endproc
	.cantunwind
	.fnend
                                        @ -- End function
	.section	.text.usart_wakeup_mode_config,"ax",%progbits
	.hidden	usart_wakeup_mode_config        @ -- Begin function usart_wakeup_mode_config
	.globl	usart_wakeup_mode_config
	.p2align	1
	.type	usart_wakeup_mode_config,%function
	.code	16                              @ @usart_wakeup_mode_config
	.thumb_func
usart_wakeup_mode_config:
.Lfunc_begin60:
	.loc	5 1027 0                        @ ../Firmware/GD32E23x_standard_peripheral/Source/gd32e23x_usart.c:1027:0
	.fnstart
	.cfi_startproc
@ %bb.0:
	.pad	#8
	sub	sp, #8
	.cfi_def_cfa_offset 8
	str	r0, [sp, #4]
	str	r1, [sp]
.Ltmp130:
	.loc	5 1029 5 prologue_end           @ ../Firmware/GD32E23x_standard_peripheral/Source/gd32e23x_usart.c:1029:5
	ldr	r1, [sp, #4]
	.loc	5 1029 30 is_stmt 0             @ ../Firmware/GD32E23x_standard_peripheral/Source/gd32e23x_usart.c:1029:30
	ldr	r0, [r1]
	movs	r2, #1
	bics	r0, r2
	str	r0, [r1]
	.loc	5 1031 5 is_stmt 1              @ ../Firmware/GD32E23x_standard_peripheral/Source/gd32e23x_usart.c:1031:5
	ldr	r2, [sp, #4]
	.loc	5 1031 30 is_stmt 0             @ ../Firmware/GD32E23x_standard_peripheral/Source/gd32e23x_usart.c:1031:30
	ldr	r1, [r2, #8]
	movs	r0, #3
	lsls	r0, r0, #20
	bics	r1, r0
	str	r1, [r2, #8]
	.loc	5 1032 51 is_stmt 1             @ ../Firmware/GD32E23x_standard_peripheral/Source/gd32e23x_usart.c:1032:51
	ldr	r2, [sp]
	.loc	5 1032 48 is_stmt 0             @ ../Firmware/GD32E23x_standard_peripheral/Source/gd32e23x_usart.c:1032:48
	ands	r2, r0
	.loc	5 1032 5                        @ ../Firmware/GD32E23x_standard_peripheral/Source/gd32e23x_usart.c:1032:5
	ldr	r1, [sp, #4]
	.loc	5 1032 30                       @ ../Firmware/GD32E23x_standard_peripheral/Source/gd32e23x_usart.c:1032:30
	ldr	r0, [r1, #8]
	orrs	r0, r2
	str	r0, [r1, #8]
	.loc	5 1033 1 is_stmt 1              @ ../Firmware/GD32E23x_standard_peripheral/Source/gd32e23x_usart.c:1033:1
	add	sp, #8
	bx	lr
.Ltmp131:
.Lfunc_end60:
	.size	usart_wakeup_mode_config, .Lfunc_end60-usart_wakeup_mode_config
	.cfi_endproc
	.cantunwind
	.fnend
                                        @ -- End function
	.section	.text.usart_receive_fifo_enable,"ax",%progbits
	.hidden	usart_receive_fifo_enable       @ -- Begin function usart_receive_fifo_enable
	.globl	usart_receive_fifo_enable
	.p2align	1
	.type	usart_receive_fifo_enable,%function
	.code	16                              @ @usart_receive_fifo_enable
	.thumb_func
usart_receive_fifo_enable:
.Lfunc_begin61:
	.loc	5 1042 0                        @ ../Firmware/GD32E23x_standard_peripheral/Source/gd32e23x_usart.c:1042:0
	.fnstart
	.cfi_startproc
@ %bb.0:
	.pad	#4
	sub	sp, #4
	.cfi_def_cfa_offset 4
	str	r0, [sp]
.Ltmp132:
	.loc	5 1043 5 prologue_end           @ ../Firmware/GD32E23x_standard_peripheral/Source/gd32e23x_usart.c:1043:5
	ldr	r1, [sp]
	movs	r2, #208
	.loc	5 1043 30 is_stmt 0             @ ../Firmware/GD32E23x_standard_peripheral/Source/gd32e23x_usart.c:1043:30
	ldr	r0, [r1, r2]
	movw	r3, #256
	orrs	r0, r3
	str	r0, [r1, r2]
	.loc	5 1044 1 is_stmt 1              @ ../Firmware/GD32E23x_standard_peripheral/Source/gd32e23x_usart.c:1044:1
	add	sp, #4
	bx	lr
.Ltmp133:
.Lfunc_end61:
	.size	usart_receive_fifo_enable, .Lfunc_end61-usart_receive_fifo_enable
	.cfi_endproc
	.cantunwind
	.fnend
                                        @ -- End function
	.section	.text.usart_receive_fifo_disable,"ax",%progbits
	.hidden	usart_receive_fifo_disable      @ -- Begin function usart_receive_fifo_disable
	.globl	usart_receive_fifo_disable
	.p2align	1
	.type	usart_receive_fifo_disable,%function
	.code	16                              @ @usart_receive_fifo_disable
	.thumb_func
usart_receive_fifo_disable:
.Lfunc_begin62:
	.loc	5 1053 0                        @ ../Firmware/GD32E23x_standard_peripheral/Source/gd32e23x_usart.c:1053:0
	.fnstart
	.cfi_startproc
@ %bb.0:
	.pad	#4
	sub	sp, #4
	.cfi_def_cfa_offset 4
	str	r0, [sp]
.Ltmp134:
	.loc	5 1054 5 prologue_end           @ ../Firmware/GD32E23x_standard_peripheral/Source/gd32e23x_usart.c:1054:5
	ldr	r1, [sp]
	movs	r2, #208
	.loc	5 1054 30 is_stmt 0             @ ../Firmware/GD32E23x_standard_peripheral/Source/gd32e23x_usart.c:1054:30
	ldr	r0, [r1, r2]
	movw	r3, #256
	bics	r0, r3
	str	r0, [r1, r2]
	.loc	5 1055 1 is_stmt 1              @ ../Firmware/GD32E23x_standard_peripheral/Source/gd32e23x_usart.c:1055:1
	add	sp, #4
	bx	lr
.Ltmp135:
.Lfunc_end62:
	.size	usart_receive_fifo_disable, .Lfunc_end62-usart_receive_fifo_disable
	.cfi_endproc
	.cantunwind
	.fnend
                                        @ -- End function
	.section	.text.usart_receive_fifo_counter_number,"ax",%progbits
	.hidden	usart_receive_fifo_counter_number @ -- Begin function usart_receive_fifo_counter_number
	.globl	usart_receive_fifo_counter_number
	.p2align	1
	.type	usart_receive_fifo_counter_number,%function
	.code	16                              @ @usart_receive_fifo_counter_number
	.thumb_func
usart_receive_fifo_counter_number:
.Lfunc_begin63:
	.loc	5 1064 0                        @ ../Firmware/GD32E23x_standard_peripheral/Source/gd32e23x_usart.c:1064:0
	.fnstart
	.cfi_startproc
@ %bb.0:
	.pad	#4
	sub	sp, #4
	.cfi_def_cfa_offset 4
	str	r0, [sp]
.Ltmp136:
	.loc	5 1065 22 prologue_end          @ ../Firmware/GD32E23x_standard_peripheral/Source/gd32e23x_usart.c:1065:22
	ldr	r0, [sp]
	movs	r1, #208
	ldr	r0, [r0, r1]
	movw	r1, #28672
	ands	r0, r1
	lsrs	r0, r0, #12
	.loc	5 1065 5 is_stmt 0              @ ../Firmware/GD32E23x_standard_peripheral/Source/gd32e23x_usart.c:1065:5
	add	sp, #4
	bx	lr
.Ltmp137:
.Lfunc_end63:
	.size	usart_receive_fifo_counter_number, .Lfunc_end63-usart_receive_fifo_counter_number
	.cfi_endproc
	.cantunwind
	.fnend
                                        @ -- End function
	.section	.text.usart_flag_get,"ax",%progbits
	.hidden	usart_flag_get                  @ -- Begin function usart_flag_get
	.globl	usart_flag_get
	.p2align	1
	.type	usart_flag_get,%function
	.code	16                              @ @usart_flag_get
	.thumb_func
usart_flag_get:
.Lfunc_begin64:
	.loc	5 1101 0 is_stmt 1              @ ../Firmware/GD32E23x_standard_peripheral/Source/gd32e23x_usart.c:1101:0
	.fnstart
	.cfi_startproc
@ %bb.0:
	.pad	#16
	sub	sp, #16
	.cfi_def_cfa_offset 16
	str	r1, [sp]                        @ 4-byte Spill
	mov	r1, r0
	ldr	r0, [sp]                        @ 4-byte Reload
                                        @ kill: def $r2 killed $r0
	str	r1, [sp, #8]
	add	r1, sp, #4
	strh	r0, [r1]
.Ltmp138:
	.loc	5 1102 18 prologue_end          @ ../Firmware/GD32E23x_standard_peripheral/Source/gd32e23x_usart.c:1102:18
	ldr	r0, [sp, #8]
	ldrh	r2, [r1]
	lsrs	r2, r2, #6
	ldr	r0, [r0, r2]
	.loc	5 1102 54 is_stmt 0             @ ../Firmware/GD32E23x_standard_peripheral/Source/gd32e23x_usart.c:1102:54
	ldrh	r1, [r1]
	movs	r2, #31
	ands	r1, r2
.Ltmp139:
	.loc	5 1102 8                        @ ../Firmware/GD32E23x_standard_peripheral/Source/gd32e23x_usart.c:1102:8
	lsrs	r0, r1
	lsls	r0, r0, #31
	cbz	r0, .LBB64_2
	b	.LBB64_1
.LBB64_1:
	.loc	5 0 8                           @ ../Firmware/GD32E23x_standard_peripheral/Source/gd32e23x_usart.c:0:8
	add	r1, sp, #12
	movs	r0, #1
.Ltmp140:
	.loc	5 1103 9 is_stmt 1              @ ../Firmware/GD32E23x_standard_peripheral/Source/gd32e23x_usart.c:1103:9
	strb	r0, [r1]
	b	.LBB64_3
.Ltmp141:
.LBB64_2:
	.loc	5 0 9 is_stmt 0                 @ ../Firmware/GD32E23x_standard_peripheral/Source/gd32e23x_usart.c:0:9
	add	r1, sp, #12
	movs	r0, #0
.Ltmp142:
	.loc	5 1105 9 is_stmt 1              @ ../Firmware/GD32E23x_standard_peripheral/Source/gd32e23x_usart.c:1105:9
	strb	r0, [r1]
	b	.LBB64_3
.Ltmp143:
.LBB64_3:
	.loc	5 0 9 is_stmt 0                 @ ../Firmware/GD32E23x_standard_peripheral/Source/gd32e23x_usart.c:0:9
	add	r0, sp, #12
	.loc	5 1107 1 is_stmt 1              @ ../Firmware/GD32E23x_standard_peripheral/Source/gd32e23x_usart.c:1107:1
	ldrb	r0, [r0]
	add	sp, #16
	bx	lr
.Ltmp144:
.Lfunc_end64:
	.size	usart_flag_get, .Lfunc_end64-usart_flag_get
	.cfi_endproc
	.cantunwind
	.fnend
                                        @ -- End function
	.section	.text.usart_flag_clear,"ax",%progbits
	.hidden	usart_flag_clear                @ -- Begin function usart_flag_clear
	.globl	usart_flag_clear
	.p2align	1
	.type	usart_flag_clear,%function
	.code	16                              @ @usart_flag_clear
	.thumb_func
usart_flag_clear:
.Lfunc_begin65:
	.loc	5 1131 0                        @ ../Firmware/GD32E23x_standard_peripheral/Source/gd32e23x_usart.c:1131:0
	.fnstart
	.cfi_startproc
@ %bb.0:
	.pad	#8
	sub	sp, #8
	.cfi_def_cfa_offset 8
                                        @ kill: def $r2 killed $r1
	str	r0, [sp, #4]
	mov	r0, sp
	strh	r1, [r0]
.Ltmp145:
	.loc	5 1132 33 prologue_end          @ ../Firmware/GD32E23x_standard_peripheral/Source/gd32e23x_usart.c:1132:33
	ldrh	r0, [r0]
	movs	r1, #31
	ands	r0, r1
	movs	r2, #1
	lsls	r2, r0
	.loc	5 1132 5 is_stmt 0              @ ../Firmware/GD32E23x_standard_peripheral/Source/gd32e23x_usart.c:1132:5
	ldr	r1, [sp, #4]
	.loc	5 1132 30                       @ ../Firmware/GD32E23x_standard_peripheral/Source/gd32e23x_usart.c:1132:30
	ldr	r0, [r1, #32]
	orrs	r0, r2
	str	r0, [r1, #32]
	.loc	5 1133 1 is_stmt 1              @ ../Firmware/GD32E23x_standard_peripheral/Source/gd32e23x_usart.c:1133:1
	add	sp, #8
	bx	lr
.Ltmp146:
.Lfunc_end65:
	.size	usart_flag_clear, .Lfunc_end65-usart_flag_clear
	.cfi_endproc
	.cantunwind
	.fnend
                                        @ -- End function
	.section	.text.usart_interrupt_enable,"ax",%progbits
	.hidden	usart_interrupt_enable          @ -- Begin function usart_interrupt_enable
	.globl	usart_interrupt_enable
	.p2align	1
	.type	usart_interrupt_enable,%function
	.code	16                              @ @usart_interrupt_enable
	.thumb_func
usart_interrupt_enable:
.Lfunc_begin66:
	.loc	5 1158 0                        @ ../Firmware/GD32E23x_standard_peripheral/Source/gd32e23x_usart.c:1158:0
	.fnstart
	.cfi_startproc
@ %bb.0:
	.pad	#8
	sub	sp, #8
	.cfi_def_cfa_offset 8
                                        @ kill: def $r2 killed $r1
	str	r0, [sp, #4]
	mov	r0, sp
	strh	r1, [r0]
.Ltmp147:
	.loc	5 1159 47 prologue_end          @ ../Firmware/GD32E23x_standard_peripheral/Source/gd32e23x_usart.c:1159:47
	ldrh	r0, [r0]
	movs	r2, #31
	mov	r1, r0
	ands	r1, r2
	movs	r3, #1
	lsls	r3, r1
	.loc	5 1159 5 is_stmt 0              @ ../Firmware/GD32E23x_standard_peripheral/Source/gd32e23x_usart.c:1159:5
	ldr	r1, [sp, #4]
	lsrs	r2, r0, #6
	.loc	5 1159 44                       @ ../Firmware/GD32E23x_standard_peripheral/Source/gd32e23x_usart.c:1159:44
	ldr	r0, [r1, r2]
	orrs	r0, r3
	str	r0, [r1, r2]
	.loc	5 1160 1 is_stmt 1              @ ../Firmware/GD32E23x_standard_peripheral/Source/gd32e23x_usart.c:1160:1
	add	sp, #8
	bx	lr
.Ltmp148:
.Lfunc_end66:
	.size	usart_interrupt_enable, .Lfunc_end66-usart_interrupt_enable
	.cfi_endproc
	.cantunwind
	.fnend
                                        @ -- End function
	.section	.text.usart_interrupt_disable,"ax",%progbits
	.hidden	usart_interrupt_disable         @ -- Begin function usart_interrupt_disable
	.globl	usart_interrupt_disable
	.p2align	1
	.type	usart_interrupt_disable,%function
	.code	16                              @ @usart_interrupt_disable
	.thumb_func
usart_interrupt_disable:
.Lfunc_begin67:
	.loc	5 1185 0                        @ ../Firmware/GD32E23x_standard_peripheral/Source/gd32e23x_usart.c:1185:0
	.fnstart
	.cfi_startproc
@ %bb.0:
	.pad	#8
	sub	sp, #8
	.cfi_def_cfa_offset 8
                                        @ kill: def $r2 killed $r1
	str	r0, [sp, #4]
	mov	r0, sp
	strh	r1, [r0]
.Ltmp149:
	.loc	5 1186 48 prologue_end          @ ../Firmware/GD32E23x_standard_peripheral/Source/gd32e23x_usart.c:1186:48
	ldrh	r0, [r0]
	movs	r2, #31
	mov	r1, r0
	ands	r1, r2
	movs	r3, #1
	lsls	r3, r1
	.loc	5 1186 5 is_stmt 0              @ ../Firmware/GD32E23x_standard_peripheral/Source/gd32e23x_usart.c:1186:5
	ldr	r1, [sp, #4]
	lsrs	r2, r0, #6
	.loc	5 1186 44                       @ ../Firmware/GD32E23x_standard_peripheral/Source/gd32e23x_usart.c:1186:44
	ldr	r0, [r1, r2]
	bics	r0, r3
	str	r0, [r1, r2]
	.loc	5 1187 1 is_stmt 1              @ ../Firmware/GD32E23x_standard_peripheral/Source/gd32e23x_usart.c:1187:1
	add	sp, #8
	bx	lr
.Ltmp150:
.Lfunc_end67:
	.size	usart_interrupt_disable, .Lfunc_end67-usart_interrupt_disable
	.cfi_endproc
	.cantunwind
	.fnend
                                        @ -- End function
	.section	.text.usart_command_enable,"ax",%progbits
	.hidden	usart_command_enable            @ -- Begin function usart_command_enable
	.globl	usart_command_enable
	.p2align	1
	.type	usart_command_enable,%function
	.code	16                              @ @usart_command_enable
	.thumb_func
usart_command_enable:
.Lfunc_begin68:
	.loc	5 1202 0                        @ ../Firmware/GD32E23x_standard_peripheral/Source/gd32e23x_usart.c:1202:0
	.fnstart
	.cfi_startproc
@ %bb.0:
	.pad	#8
	sub	sp, #8
	.cfi_def_cfa_offset 8
	str	r0, [sp, #4]
	str	r1, [sp]
.Ltmp151:
	.loc	5 1203 33 prologue_end          @ ../Firmware/GD32E23x_standard_peripheral/Source/gd32e23x_usart.c:1203:33
	ldr	r2, [sp]
	.loc	5 1203 5 is_stmt 0              @ ../Firmware/GD32E23x_standard_peripheral/Source/gd32e23x_usart.c:1203:5
	ldr	r1, [sp, #4]
	.loc	5 1203 29                       @ ../Firmware/GD32E23x_standard_peripheral/Source/gd32e23x_usart.c:1203:29
	ldr	r0, [r1, #24]
	orrs	r0, r2
	str	r0, [r1, #24]
	.loc	5 1204 1 is_stmt 1              @ ../Firmware/GD32E23x_standard_peripheral/Source/gd32e23x_usart.c:1204:1
	add	sp, #8
	bx	lr
.Ltmp152:
.Lfunc_end68:
	.size	usart_command_enable, .Lfunc_end68-usart_command_enable
	.cfi_endproc
	.cantunwind
	.fnend
                                        @ -- End function
	.section	.text.usart_interrupt_flag_get,"ax",%progbits
	.hidden	usart_interrupt_flag_get        @ -- Begin function usart_interrupt_flag_get
	.globl	usart_interrupt_flag_get
	.p2align	1
	.type	usart_interrupt_flag_get,%function
	.code	16                              @ @usart_interrupt_flag_get
	.thumb_func
usart_interrupt_flag_get:
.Lfunc_begin69:
	.loc	5 1231 0                        @ ../Firmware/GD32E23x_standard_peripheral/Source/gd32e23x_usart.c:1231:0
	.fnstart
	.cfi_startproc
@ %bb.0:
	.save	{r4, lr}
	push	{r4, lr}
	.cfi_def_cfa_offset 8
	.cfi_offset lr, -4
	.cfi_offset r4, -8
	.pad	#20
	sub	sp, #20
	.cfi_def_cfa_offset 28
	str	r0, [sp, #12]
	str	r1, [sp, #8]
	movs	r0, #0
.Ltmp153:
	.loc	5 1232 14 prologue_end          @ ../Firmware/GD32E23x_standard_peripheral/Source/gd32e23x_usart.c:1232:14
	str	r0, [sp, #4]
	.loc	5 1232 30 is_stmt 0             @ ../Firmware/GD32E23x_standard_peripheral/Source/gd32e23x_usart.c:1232:30
	str	r0, [sp]
	.loc	5 1234 18 is_stmt 1             @ ../Firmware/GD32E23x_standard_peripheral/Source/gd32e23x_usart.c:1234:18
	ldr	r0, [sp, #12]
	add	r1, sp, #8
	ldrh	r1, [r1]
	lsrs	r1, r1, #6
	ldr	r0, [r0, r1]
	.loc	5 1234 58 is_stmt 0             @ ../Firmware/GD32E23x_standard_peripheral/Source/gd32e23x_usart.c:1234:58
	ldr	r4, [sp, #8]
	movs	r3, #31
	ands	r4, r3
	movs	r1, #1
	mov	r2, r1
	lsls	r2, r4
	.loc	5 1234 56                       @ ../Firmware/GD32E23x_standard_peripheral/Source/gd32e23x_usart.c:1234:56
	ands	r0, r2
	.loc	5 1234 15                       @ ../Firmware/GD32E23x_standard_peripheral/Source/gd32e23x_usart.c:1234:15
	str	r0, [sp, #4]
	.loc	5 1236 19 is_stmt 1             @ ../Firmware/GD32E23x_standard_peripheral/Source/gd32e23x_usart.c:1236:19
	ldr	r0, [sp, #12]
	ldr	r2, [sp, #8]
	lsrs	r2, r2, #22
	ldr	r0, [r0, r2]
	.loc	5 1236 60 is_stmt 0             @ ../Firmware/GD32E23x_standard_peripheral/Source/gd32e23x_usart.c:1236:60
	ldr	r2, [sp, #8]
	lsls	r3, r3, #16
	ands	r2, r3
	lsrs	r2, r2, #16
	lsls	r1, r2
	.loc	5 1236 58                       @ ../Firmware/GD32E23x_standard_peripheral/Source/gd32e23x_usart.c:1236:58
	ands	r0, r1
	.loc	5 1236 16                       @ ../Firmware/GD32E23x_standard_peripheral/Source/gd32e23x_usart.c:1236:16
	str	r0, [sp]
.Ltmp154:
	.loc	5 1238 8 is_stmt 1              @ ../Firmware/GD32E23x_standard_peripheral/Source/gd32e23x_usart.c:1238:8
	ldr	r0, [sp]
	.loc	5 1238 19 is_stmt 0             @ ../Firmware/GD32E23x_standard_peripheral/Source/gd32e23x_usart.c:1238:19
	cbz	r0, .LBB69_3
	b	.LBB69_1
.LBB69_1:
	.loc	5 1238 22                       @ ../Firmware/GD32E23x_standard_peripheral/Source/gd32e23x_usart.c:1238:22
	ldr	r0, [sp, #4]
.Ltmp155:
	.loc	5 1238 8                        @ ../Firmware/GD32E23x_standard_peripheral/Source/gd32e23x_usart.c:1238:8
	cbz	r0, .LBB69_3
	b	.LBB69_2
.LBB69_2:
	.loc	5 0 8                           @ ../Firmware/GD32E23x_standard_peripheral/Source/gd32e23x_usart.c:0:8
	add	r1, sp, #16
	movs	r0, #1
.Ltmp156:
	.loc	5 1239 9 is_stmt 1              @ ../Firmware/GD32E23x_standard_peripheral/Source/gd32e23x_usart.c:1239:9
	strb	r0, [r1]
	b	.LBB69_4
.Ltmp157:
.LBB69_3:
	.loc	5 0 9 is_stmt 0                 @ ../Firmware/GD32E23x_standard_peripheral/Source/gd32e23x_usart.c:0:9
	add	r1, sp, #16
	movs	r0, #0
.Ltmp158:
	.loc	5 1241 9 is_stmt 1              @ ../Firmware/GD32E23x_standard_peripheral/Source/gd32e23x_usart.c:1241:9
	strb	r0, [r1]
	b	.LBB69_4
.Ltmp159:
.LBB69_4:
	.loc	5 0 9 is_stmt 0                 @ ../Firmware/GD32E23x_standard_peripheral/Source/gd32e23x_usart.c:0:9
	add	r0, sp, #16
	.loc	5 1243 1 is_stmt 1              @ ../Firmware/GD32E23x_standard_peripheral/Source/gd32e23x_usart.c:1243:1
	ldrb	r0, [r0]
	add	sp, #20
	pop	{r4, pc}
.Ltmp160:
.Lfunc_end69:
	.size	usart_interrupt_flag_get, .Lfunc_end69-usart_interrupt_flag_get
	.cfi_endproc
	.cantunwind
	.fnend
                                        @ -- End function
	.section	.text.usart_interrupt_flag_clear,"ax",%progbits
	.hidden	usart_interrupt_flag_clear      @ -- Begin function usart_interrupt_flag_clear
	.globl	usart_interrupt_flag_clear
	.p2align	2
	.type	usart_interrupt_flag_clear,%function
	.code	16                              @ @usart_interrupt_flag_clear
	.thumb_func
usart_interrupt_flag_clear:
.Lfunc_begin70:
	.loc	5 1268 0                        @ ../Firmware/GD32E23x_standard_peripheral/Source/gd32e23x_usart.c:1268:0
	.fnstart
	.cfi_startproc
@ %bb.0:
	.pad	#8
	sub	sp, #8
	.cfi_def_cfa_offset 8
	str	r0, [sp, #4]
	str	r1, [sp]
.Ltmp161:
	.loc	5 1269 30 prologue_end          @ ../Firmware/GD32E23x_standard_peripheral/Source/gd32e23x_usart.c:1269:30
	ldr	r0, [sp]
	ldr	r1, __arm_cp.70_0
.Ltmp162:
	.loc	5 1269 8 is_stmt 0              @ ../Firmware/GD32E23x_standard_peripheral/Source/gd32e23x_usart.c:1269:8
	cmp	r0, r1
	bne	.LBB70_2
	b	.LBB70_1
.LBB70_1:
.Ltmp163:
	.loc	5 1270 9 is_stmt 1              @ ../Firmware/GD32E23x_standard_peripheral/Source/gd32e23x_usart.c:1270:9
	ldr	r1, [sp, #4]
	movs	r2, #208
	.loc	5 1270 34 is_stmt 0             @ ../Firmware/GD32E23x_standard_peripheral/Source/gd32e23x_usart.c:1270:34
	ldr	r0, [r1, r2]
	movw	r3, #32768
	bics	r0, r3
	str	r0, [r1, r2]
	.loc	5 1271 5 is_stmt 1              @ ../Firmware/GD32E23x_standard_peripheral/Source/gd32e23x_usart.c:1271:5
	b	.LBB70_3
.Ltmp164:
.LBB70_2:
	.loc	5 1272 37                       @ ../Firmware/GD32E23x_standard_peripheral/Source/gd32e23x_usart.c:1272:37
	ldr	r0, [sp]
	movs	r1, #31
	lsls	r1, r1, #16
	ands	r0, r1
	lsrs	r0, r0, #16
	movs	r2, #1
	lsls	r2, r0
	.loc	5 1272 9 is_stmt 0              @ ../Firmware/GD32E23x_standard_peripheral/Source/gd32e23x_usart.c:1272:9
	ldr	r1, [sp, #4]
	.loc	5 1272 34                       @ ../Firmware/GD32E23x_standard_peripheral/Source/gd32e23x_usart.c:1272:34
	ldr	r0, [r1, #32]
	orrs	r0, r2
	str	r0, [r1, #32]
	b	.LBB70_3
.Ltmp165:
.LBB70_3:
	.loc	5 1274 1 is_stmt 1              @ ../Firmware/GD32E23x_standard_peripheral/Source/gd32e23x_usart.c:1274:1
	add	sp, #8
	bx	lr
.Ltmp166:
	.p2align	2
@ %bb.4:
	.loc	5 0 1 is_stmt 0                 @ ../Firmware/GD32E23x_standard_peripheral/Source/gd32e23x_usart.c:0:1
__arm_cp.70_0:
	.long	873411593                       @ 0x340f3409
.Lcpi_end9:
	.size	__arm_cp.70_0, .Lcpi_end9-__arm_cp.70_0
.Lfunc_end70:
	.size	usart_interrupt_flag_clear, .Lfunc_end70-usart_interrupt_flag_clear
	.cfi_endproc
	.cantunwind
	.fnend
                                        @ -- End function
	.section	".note.GNU-stack","",%progbits
	.eabi_attribute	30, 6	@ Tag_ABI_optimization_goals
	.ARM_attribute	16, 1	@ Tag_AV_eba