	.text
	.syntax unified
	.eabi_attribute	67, "2.09"	@ Tag_conformance
	.cpu	cortex-m23
	.eabi_attribute	6, 16	@ Tag_CPU_arch
	.eabi_attribute	7, 77	@ Tag_CPU_arch_profile
	.eabi_attribute	8, 0	@ Tag_ARM_ISA_use
	.eabi_attribute	9, 3	@ Tag_THUMB_ISA_use
	.eabi_attribute	34, 0	@ Tag_CPU_unaligned_access
	.eabi_attribute	17, 1	@ Tag_ABI_PCS_GOT_use
	.eabi_attribute	20, 2	@ Tag_ABI_FP_denormal
	.eabi_attribute	21, 0	@ Tag_ABI_FP_exceptions
	.eabi_attribute	23, 1	@ Tag_ABI_FP_number_model
	.eabi_attribute	24, 1	@ Tag_ABI_align_needed
	.eabi_attribute	25, 1	@ Tag_ABI_align_preserved
	.eabi_attribute	38, 1	@ Tag_ABI_FP_16bit_format
	.eabi_attribute	18, 2	@ Tag_ABI_PCS_wchar_t
	.eabi_attribute	26, 1	@ Tag_ABI_enum_size
	.eabi_attribute	14, 0	@ Tag_ABI_PCS_R9_use
	.file	"gd32e23x_syscfg.c"
	.file	1 "D:\\GD32\\GD32E230\\Oscilloscope\\Project" "../Firmware/GD32E23x_standard_peripheral/Include\\gd32e23x_rcu.h"
	.file	2 "D:\\GD32\\GD32E230\\Oscilloscope\\Project" "../Firmware/CMSIS/GD/GD32E23x/Include\\gd32e23x.h"
	.file	3 "D:\\Keil_arm\\ARM\\ARMCLANG\\Bin\\..\\include" "stdint.h"
	.section	.text.syscfg_deinit,"ax",%progbits
	.hidden	syscfg_deinit                   @ -- Begin function syscfg_deinit
	.globl	syscfg_deinit
	.p2align	1
	.type	syscfg_deinit,%function
	.code	16                              @ @syscfg_deinit
	.thumb_func
syscfg_deinit:
.Lfunc_begin0:
	.file	4 "D:\\GD32\\GD32E230\\Oscilloscope\\Project" "../Firmware/GD32E23x_standard_peripheral/Source/gd32e23x_syscfg.c"
	.loc	4 44 0                          @ ../Firmware/GD32E23x_standard_peripheral/Source/gd32e23x_syscfg.c:44:0
	.fnstart
	.cfi_sections .debug_frame
	.cfi_startproc
@ %bb.0:
	.save	{r7, lr}
	push	{r7, lr}
	.cfi_def_cfa_offset 8
	.cfi_offset lr, -4
	.cfi_offset r7, -8
	.pad	#8
	sub	sp, #8
	.cfi_def_cfa_offset 16
	movw	r0, #768
.Ltmp0:
	.loc	4 45 5 prologue_end             @ ../Firmware/GD32E23x_standard_peripheral/Source/gd32e23x_syscfg.c:45:5
	str	r0, [sp, #4]                    @ 4-byte Spill
	bl	rcu_periph_reset_enable
	ldr	r0, [sp, #4]                    @ 4-byte Reload
	.loc	4 46 5                          @ ../Firmware/GD32E23x_standard_peripheral/Source/gd32e23x_syscfg.c:46:5
	bl	rcu_periph_reset_disable
	.loc	4 47 1                          @ ../Firmware/GD32E23x_standard_peripheral/Source/gd32e23x_syscfg.c:47:1
	add	sp, #8
	pop	{r7, pc}
.Ltmp1:
.Lfunc_end0:
	.size	syscfg_deinit, .Lfunc_end0-syscfg_deinit
	.cfi_endproc
	.cantunwind
	.fnend
                                        @ -- End function
	.section	.text.syscfg_dma_remap_enable,"ax",%progbits
	.hidden	syscfg_dma_remap_enable         @ -- Begin function syscfg_dma_remap_enable
	.globl	syscfg_dma_remap_enable
	.p2align	2
	.type	syscfg_dma_remap_enable,%function
	.code	16                              @ @syscfg_dma_remap_enable
	.thumb_func
syscfg_dma_remap_enable:
.Lfunc_begin1:
	.loc	4 62 0                          @ ../Firmware/GD32E23x_standard_peripheral/Source/gd32e23x_syscfg.c:62:0
	.fnstart
	.cfi_startproc
@ %bb.0:
	.pad	#4
	sub	sp, #4
	.cfi_def_cfa_offset 4
	str	r0, [sp]
.Ltmp2:
	.loc	4 63 20 prologue_end            @ ../Firmware/GD32E23x_standard_peripheral/Source/gd32e23x_syscfg.c:63:20
	ldr	r2, [sp]
	ldr	r1, __arm_cp.1_0
	.loc	4 63 17 is_stmt 0               @ ../Firmware/GD32E23x_standard_peripheral/Source/gd32e23x_syscfg.c:63:17
	ldr	r0, [r1]
	orrs	r0, r2
	str	r0, [r1]
	.loc	4 64 1 is_stmt 1                @ ../Firmware/GD32E23x_standard_peripheral/Source/gd32e23x_syscfg.c:64:1
	add	sp, #4
	bx	lr
.Ltmp3:
	.p2align	2
@ %bb.1:
	.loc	4 0 1 is_stmt 0                 @ ../Firmware/GD32E23x_standard_peripheral/Source/gd32e23x_syscfg.c:0:1
__arm_cp.1_0:
	.long	1073807360                      @ 0x40010000
.Lcpi_end0:
	.size	__arm_cp.1_0, .Lcpi_end0-__arm_cp.1_0
.Lfunc_end1:
	.size	syscfg_dma_remap_enable, .Lfunc_end1-syscfg_dma_remap_enable
	.cfi_endproc
	.cantunwind
	.fnend
                                        @ -- End function
	.section	.text.syscfg_dma_remap_disable,"ax",%progbits
	.hidden	syscfg_dma_remap_disable        @ -- Begin function syscfg_dma_remap_disable
	.globl	syscfg_dma_remap_disable
	.p2align	2
	.type	syscfg_dma_remap_disable,%function
	.code	16                              @ @syscfg_dma_remap_disable
	.thumb_func
syscfg_dma_remap_disable:
.Lfunc_begin2:
	.loc	4 79 0 is_stmt 1                @ ../Firmware/GD32E23x_standard_peripheral/Source/gd32e23x_syscfg.c:79:0
	.fnstart
	.cfi_startproc
@ %bb.0:
	.pad	#4
	sub	sp, #4
	.cfi_def_cfa_offset 4
	str	r0, [sp]
.Ltmp4:
	.loc	4 80 21 prologue_end            @ ../Firmware/GD32E23x_standard_peripheral/Source/gd32e23x_syscfg.c:80:21
	ldr	r2, [sp]
	ldr	r1, __arm_cp.2_0
	.loc	4 80 17 is_stmt 0               @ ../Firmware/GD32E23x_standard_peripheral/Source/gd32e23x_syscfg.c:80:17
	ldr	r0, [r1]
	bics	r0, r2
	str	r0, [r1]
	.loc	4 81 1 is_stmt 1                @ ../Firmware/GD32E23x_standard_peripheral/Source/gd32e23x_syscfg.c:81:1
	add	sp, #4
	bx	lr
.Ltmp5:
	.p2align	2
@ %bb.1:
	.loc	4 0 1 is_stmt 0                 @ ../Firmware/GD32E23x_standard_peripheral/Source/gd32e23x_syscfg.c:0:1
__arm_cp.2_0:
	.long	1073807360                      @ 0x40010000
.Lcpi_end1:
	.size	__arm_cp.2_0, .Lcpi_end1-__arm_cp.2_0
.Lfunc_end2:
	.size	syscfg_dma_remap_disable, .Lfunc_end2-syscfg_dma_remap_disable
	.cfi_endproc
	.cantunwind
	.fnend
                                        @ -- End function
	.section	.text.syscfg_high_current_enable,"ax",%progbits
	.hidden	syscfg_high_current_enable      @ -- Begin function syscfg_high_current_enable
	.globl	syscfg_high_current_enable
	.p2align	2
	.type	syscfg_high_current_enable,%function
	.code	16                              @ @syscfg_high_current_enable
	.thumb_func
syscfg_high_current_enable:
.Lfunc_begin3:
	.loc	4 90 0 is_stmt 1                @ ../Firmware/GD32E23x_standard_peripheral/Source/gd32e23x_syscfg.c:90:0
	.fnstart
	.cfi_startproc
@ %bb.0:
	ldr	r1, __arm_cp.3_0
.Ltmp6:
	.loc	4 91 17 prologue_end            @ ../Firmware/GD32E23x_standard_peripheral/Source/gd32e23x_syscfg.c:91:17
	ldr	r0, [r1]
	movs	r2, #1
	lsls	r2, r2, #19
	orrs	r0, r2
	str	r0, [r1]
	.loc	4 92 1                          @ ../Firmware/GD32E23x_standard_peripheral/Source/gd32e23x_syscfg.c:92:1
	bx	lr
.Ltmp7:
	.p2align	2
@ %bb.1:
	.loc	4 0 1 is_stmt 0                 @ ../Firmware/GD32E23x_standard_peripheral/Source/gd32e23x_syscfg.c:0:1
__arm_cp.3_0:
	.long	1073807360                      @ 0x40010000
.Lcpi_end2:
	.size	__arm_cp.3_0, .Lcpi_end2-__arm_cp.3_0
.Lfunc_end3:
	.size	syscfg_high_current_enable, .Lfunc_end3-syscfg_high_current_enable
	.cfi_endproc
	.cantunwind
	.fnend
                                        @ -- End function
	.section	.text.syscfg_high_current_disable,"ax",%progbits
	.hidden	syscfg_high_current_disable     @ -- Begin function syscfg_high_current_disable
	.globl	syscfg_high_current_disable
	.p2align	2
	.type	syscfg_high_current_disable,%function
	.code	16                              @ @syscfg_high_current_disable
	.thumb_func
syscfg_high_current_disable:
.Lfunc_begin4:
	.loc	4 101 0 is_stmt 1               @ ../Firmware/GD32E23x_standard_peripheral/Source/gd32e23x_syscfg.c:101:0
	.fnstart
	.cfi_startproc
@ %bb.0:
	ldr	r1, __arm_cp.4_0
.Ltmp8:
	.loc	4 102 17 prologue_end           @ ../Firmware/GD32E23x_standard_peripheral/Source/gd32e23x_syscfg.c:102:17
	ldr	r0, [r1]
	movs	r2, #1
	lsls	r2, r2, #19
	bics	r0, r2
	str	r0, [r1]
	.loc	4 103 1                         @ ../Firmware/GD32E23x_standard_peripheral/Source/gd32e23x_syscfg.c:103:1
	bx	lr
.Ltmp9:
	.p2align	2
@ %bb.1:
	.loc	4 0 1 is_stmt 0                 @ ../Firmware/GD32E23x_standard_peripheral/Source/gd32e23x_syscfg.c:0:1
__arm_cp.4_0:
	.long	1073807360                      @ 0x40010000
.Lcpi_end3:
	.size	__arm_cp.4_0, .Lcpi_end3-__arm_cp.4_0
.Lfunc_end4:
	.size	syscfg_high_current_disable, .Lfunc_end4-syscfg_high_current_disable
	.cfi_endproc
	.cantunwind
	.fnend
                                        @ -- End function
	.section	.text.syscfg_exti_line_config,"ax",%progbits
	.hidden	syscfg_exti_line_config         @ -- Begin function syscfg_exti_line_config
	.globl	syscfg_exti_line_config
	.p2align	2
	.type	syscfg_exti_line_config,%function
	.code	16                              @ @syscfg_exti_line_config
	.thumb_func
syscfg_exti_line_config:
.Lfunc_begin5:
	.loc	4 116 0 is_stmt 1               @ ../Firmware/GD32E23x_standard_peripheral/Source/gd32e23x_syscfg.c:116:0
	.fnstart
	.cfi_startproc
@ %bb.0:
	.pad	#20
	sub	sp, #20
	.cfi_def_cfa_offset 20
	mov	r2, r1
                                        @ kill: def $r1 killed $r2
                                        @ kill: def $r1 killed $r0
	add	r1, sp, #16
	strb	r0, [r1]
	add	r0, sp, #12
	strb	r2, [r0]
.Ltmp10:
	.loc	4 117 61 prologue_end           @ ../Firmware/GD32E23x_standard_peripheral/Source/gd32e23x_syscfg.c:117:61
	ldrb	r2, [r0]
	lsls	r2, r2, #30
	lsrs	r3, r2, #28
	movs	r2, #15
	.loc	4 117 57 is_stmt 0              @ ../Firmware/GD32E23x_standard_peripheral/Source/gd32e23x_syscfg.c:117:57
	lsls	r2, r3
	.loc	4 117 32                        @ ../Firmware/GD32E23x_standard_peripheral/Source/gd32e23x_syscfg.c:117:32
	mvns	r2, r2
	.loc	4 117 14                        @ ../Firmware/GD32E23x_standard_peripheral/Source/gd32e23x_syscfg.c:117:14
	str	r2, [sp, #8]
	.loc	4 118 44 is_stmt 1              @ ../Firmware/GD32E23x_standard_peripheral/Source/gd32e23x_syscfg.c:118:44
	ldrb	r1, [r1]
	.loc	4 118 59 is_stmt 0              @ ../Firmware/GD32E23x_standard_peripheral/Source/gd32e23x_syscfg.c:118:59
	ldrb	r2, [r0]
	lsls	r2, r2, #30
	lsrs	r2, r2, #28
	.loc	4 118 55                        @ ../Firmware/GD32E23x_standard_peripheral/Source/gd32e23x_syscfg.c:118:55
	lsls	r1, r2
	.loc	4 118 14                        @ ../Firmware/GD32E23x_standard_peripheral/Source/gd32e23x_syscfg.c:118:14
	str	r1, [sp, #4]
	.loc	4 120 12 is_stmt 1              @ ../Firmware/GD32E23x_standard_peripheral/Source/gd32e23x_syscfg.c:120:12
	ldrb	r0, [r0]
	.loc	4 120 21 is_stmt 0              @ ../Firmware/GD32E23x_standard_peripheral/Source/gd32e23x_syscfg.c:120:21
	lsrs	r0, r0, #2
	.loc	4 120 5                         @ ../Firmware/GD32E23x_standard_peripheral/Source/gd32e23x_syscfg.c:120:5
	str	r0, [sp]                        @ 4-byte Spill
	cmp	r0, #3
	bhi	.LBB5_7
@ %bb.1:
	.loc	4 0 5                           @ ../Firmware/GD32E23x_standard_peripheral/Source/gd32e23x_syscfg.c:0:5
	ldr	r1, [sp]                        @ 4-byte Reload
	lsls	r2, r1, #2
	adr	r0, .LJTI5_0
	adds	r0, r0, r2
	mov	pc, r0
@ %bb.2:
	.p2align	2
.LJTI5_0:
	b.w	.LBB5_3
	b.w	.LBB5_4
	b.w	.LBB5_5
	b.w	.LBB5_6
.LBB5_3:
.Ltmp11:
	.loc	4 123 27 is_stmt 1              @ ../Firmware/GD32E23x_standard_peripheral/Source/gd32e23x_syscfg.c:123:27
	ldr	r2, [sp, #8]
	ldr	r1, __arm_cp.5_3
	.loc	4 123 24 is_stmt 0              @ ../Firmware/GD32E23x_standard_peripheral/Source/gd32e23x_syscfg.c:123:24
	ldr	r0, [r1]
	ands	r0, r2
	str	r0, [r1]
	.loc	4 125 27 is_stmt 1              @ ../Firmware/GD32E23x_standard_peripheral/Source/gd32e23x_syscfg.c:125:27
	ldr	r2, [sp, #4]
	.loc	4 125 24 is_stmt 0              @ ../Firmware/GD32E23x_standard_peripheral/Source/gd32e23x_syscfg.c:125:24
	ldr	r0, [r1]
	orrs	r0, r2
	str	r0, [r1]
	.loc	4 126 9 is_stmt 1               @ ../Firmware/GD32E23x_standard_peripheral/Source/gd32e23x_syscfg.c:126:9
	b	.LBB5_8
.LBB5_4:
	.loc	4 129 27                        @ ../Firmware/GD32E23x_standard_peripheral/Source/gd32e23x_syscfg.c:129:27
	ldr	r2, [sp, #8]
	ldr	r1, __arm_cp.5_2
	.loc	4 129 24 is_stmt 0              @ ../Firmware/GD32E23x_standard_peripheral/Source/gd32e23x_syscfg.c:129:24
	ldr	r0, [r1]
	ands	r0, r2
	str	r0, [r1]
	.loc	4 131 27 is_stmt 1              @ ../Firmware/GD32E23x_standard_peripheral/Source/gd32e23x_syscfg.c:131:27
	ldr	r2, [sp, #4]
	.loc	4 131 24 is_stmt 0              @ ../Firmware/GD32E23x_standard_peripheral/Source/gd32e23x_syscfg.c:131:24
	ldr	r0, [r1]
	orrs	r0, r2
	str	r0, [r1]
	.loc	4 132 9 is_stmt 1               @ ../Firmware/GD32E23x_standard_peripheral/Source/gd32e23x_syscfg.c:132:9
	b	.LBB5_8
.LBB5_5:
	.loc	4 135 27                        @ ../Firmware/GD32E23x_standard_peripheral/Source/gd32e23x_syscfg.c:135:27
	ldr	r2, [sp, #8]
	ldr	r1, __arm_cp.5_1
	.loc	4 135 24 is_stmt 0              @ ../Firmware/GD32E23x_standard_peripheral/Source/gd32e23x_syscfg.c:135:24
	ldr	r0, [r1]
	ands	r0, r2
	str	r0, [r1]
	.loc	4 137 27 is_stmt 1              @ ../Firmware/GD32E23x_standard_peripheral/Source/gd32e23x_syscfg.c:137:27
	ldr	r2, [sp, #4]
	.loc	4 137 24 is_stmt 0              @ ../Firmware/GD32E23x_standard_peripheral/Source/gd32e23x_syscfg.c:137:24
	ldr	r0, [r1]
	orrs	r0, r2
	str	r0, [r1]
	.loc	4 138 9 is_stmt 1               @ ../Firmware/GD32E23x_standard_peripheral/Source/gd32e23x_syscfg.c:138:9
	b	.LBB5_8
.LBB5_6:
	.loc	4 141 27                        @ ../Firmware/GD32E23x_standard_peripheral/Source/gd32e23x_syscfg.c:141:27
	ldr	r2, [sp, #8]
	ldr	r1, __arm_cp.5_0
	.loc	4 141 24 is_stmt 0              @ ../Firmware/GD32E23x_standard_peripheral/Source/gd32e23x_syscfg.c:141:24
	ldr	r0, [r1]
	ands	r0, r2
	str	r0, [r1]
	.loc	4 143 27 is_stmt 1              @ ../Firmware/GD32E23x_standard_peripheral/Source/gd32e23x_syscfg.c:143:27
	ldr	r2, [sp, #4]
	.loc	4 143 24 is_stmt 0              @ ../Firmware/GD32E23x_standard_peripheral/Source/gd32e23x_syscfg.c:143:24
	ldr	r0, [r1]
	orrs	r0, r2
	str	r0, [r1]
	.loc	4 144 9 is_stmt 1               @ ../Firmware/GD32E23x_standard_peripheral/Source/gd32e23x_syscfg.c:144:9
	b	.LBB5_8
.LBB5_7:
	.loc	4 146 9                         @ ../Firmware/GD32E23x_standard_peripheral/Source/gd32e23x_syscfg.c:146:9
	b	.LBB5_8
.Ltmp12:
.LBB5_8:
	.loc	4 148 1                         @ ../Firmware/GD32E23x_standard_peripheral/Source/gd32e23x_syscfg.c:148:1
	add	sp, #20
	bx	lr
.Ltmp13:
	.p2align	2
@ %bb.9:
	.loc	4 0 1 is_stmt 0                 @ ../Firmware/GD32E23x_standard_peripheral/Source/gd32e23x_syscfg.c:0:1
__arm_cp.5_0:
	.long	1073807380                      @ 0x40010014
.Lcpi_end4:
	.size	__arm_cp.5_0, .Lcpi_end4-__arm_cp.5_0
__arm_cp.5_1:
	.long	1073807376                      @ 0x40010010
.Lcpi_end5:
	.size	__arm_cp.5_1, .Lcpi_end5-__arm_cp.5_1
__arm_cp.5_2:
	.long	1073807372                      @ 0x4001000c
.Lcpi_end6:
	.size	__arm_cp.5_2, .Lcpi_end6-__arm_cp.5_2
__arm_cp.5_3:
	.long	1073807368                      @ 0x40010008
.Lcpi_end7:
	.size	__arm_cp.5_3, .Lcpi_end7-__arm_cp.5_3
.Lfunc_end5:
	.size	syscfg_exti_line_config, .Lfunc_end5-syscfg_exti_line_config
	.cfi_endproc
	.cantunwind
	.fnend
                                        @ -- End function
	.section	.text.syscfg_lock_config,"ax",%progbits
	.hidden	syscfg_lock_config              @ -- Begin function syscfg_lock_config
	.globl	syscfg_lock_config
	.p2align	2
	.type	syscfg_lock_config,%function
	.code	16                              @ @syscfg_lock_config
	.thumb_func
syscfg_lock_config:
.Lfunc_begin6:
	.loc	4 160 0 is_stmt 1               @ ../Firmware/GD32E23x_standard_peripheral/Source/gd32e23x_syscfg.c:160:0
	.fnstart
	.cfi_startproc
@ %bb.0:
	.pad	#4
	sub	sp, #4
	.cfi_def_cfa_offset 4
	str	r0, [sp]
.Ltmp14:
	.loc	4 161 20 prologue_end           @ ../Firmware/GD32E23x_standard_peripheral/Source/gd32e23x_syscfg.c:161:20
	ldr	r2, [sp]
	ldr	r1, __arm_cp.6_0
	.loc	4 161 17 is_stmt 0              @ ../Firmware/GD32E23x_standard_peripheral/Source/gd32e23x_syscfg.c:161:17
	ldr	r0, [r1]
	orrs	r0, r2
	str	r0, [r1]
	.loc	4 162 1 is_stmt 1               @ ../Firmware/GD32E23x_standard_peripheral/Source/gd32e23x_syscfg.c:162:1
	add	sp, #4
	bx	lr
.Ltmp15:
	.p2align	2
@ %bb.1:
	.loc	4 0 1 is_stmt 0                 @ ../Firmware/GD32E23x_standard_peripheral/Source/gd32e23x_syscfg.c:0:1
__arm_cp.6_0:
	.long	1073807384                      @ 0x40010018
.Lcpi_end8:
	.size	__arm_cp.6_0, .Lcpi_end8-__arm_cp.6_0
.Lfunc_end6:
	.size	syscfg_lock_config, .Lfunc_end6-syscfg_lock_config
	.cfi_endproc
	.cantunwind
	.fnend
                                        @ -- End function
	.section	.text.irq_latency_set,"ax",%progbits
	.hidden	irq_latency_set                 @ -- Begin function irq_latency_set
	.globl	irq_latency_set
	.p2align	2
	.type	irq_latency_set,%function
	.code	16                              @ @irq_latency_set
	.thumb_func
irq_latency_set:
.Lfunc_begin7:
	.loc	4 171 0 is_stmt 1               @ ../Firmware/GD32E23x_standard_peripheral/Source/gd32e23x_syscfg.c:171:0
	.fnstart
	.cfi_startproc
@ %bb.0:
	.pad	#8
	sub	sp, #8
	.cfi_def_cfa_offset 8
	mov	r1, r0
                                        @ kill: def $r0 killed $r1
	add	r0, sp, #4
	strb	r1, [r0]
	ldr	r1, __arm_cp.7_0
.Ltmp16:
	.loc	4 174 11 prologue_end           @ ../Firmware/GD32E23x_standard_peripheral/Source/gd32e23x_syscfg.c:174:11
	ldr	r2, [r1]
	movs	r3, #255
	.loc	4 174 30 is_stmt 0              @ ../Firmware/GD32E23x_standard_peripheral/Source/gd32e23x_syscfg.c:174:30
	bics	r2, r3
	.loc	4 174 9                         @ ../Firmware/GD32E23x_standard_peripheral/Source/gd32e23x_syscfg.c:174:9
	str	r2, [sp]
	.loc	4 175 23 is_stmt 1              @ ../Firmware/GD32E23x_standard_peripheral/Source/gd32e23x_syscfg.c:175:23
	ldrb	r2, [r0]
	.loc	4 175 9 is_stmt 0               @ ../Firmware/GD32E23x_standard_peripheral/Source/gd32e23x_syscfg.c:175:9
	ldr	r0, [sp]
	orrs	r0, r2
	str	r0, [sp]
	.loc	4 177 36 is_stmt 1              @ ../Firmware/GD32E23x_standard_peripheral/Source/gd32e23x_syscfg.c:177:36
	ldr	r0, [sp]
	.loc	4 177 24 is_stmt 0              @ ../Firmware/GD32E23x_standard_peripheral/Source/gd32e23x_syscfg.c:177:24
	str	r0, [r1]
	.loc	4 178 1 is_stmt 1               @ ../Firmware/GD32E23x_standard_peripheral/Source/gd32e23x_syscfg.c:178:1
	add	sp, #8
	bx	lr
.Ltmp17:
	.p2align	2
@ %bb.1:
	.loc	4 0 1 is_stmt 0                 @ ../Firmware/GD32E23x_standard_peripheral/Source/gd32e23x_syscfg.c:0:1
__arm_cp.7_0:
	.long	1073807616                      @ 0x40010100
.Lcpi_end9:
	.size	__arm_cp.7_0, .Lcpi_end9-__arm_cp.7_0
.Lfunc_end7:
	.size	irq_latency_set, .Lfunc_end7-irq_latency_set
	.cfi_endproc
	.cantunwind
	.fnend
                                        @ -- End function
	.section	.text.syscfg_flag_get,"ax",%progbits
	.hidden	syscfg_flag_get                 @ -- Begin function syscfg_flag_get
	.globl	syscfg_flag_get
	.p2align	2
	.type	syscfg_flag_get,%function
	.code	16                              @ @syscfg_flag_get
	.thumb_func
syscfg_flag_get:
.Lfunc_begin8:
	.loc	4 187 0 is_stmt 1               @ ../Firmware/GD32E23x_standard_peripheral/Source/gd32e23x_syscfg.c:187:0
	.fnstart
	.cfi_startproc
@ %bb.0:
	.pad	#8
	sub	sp, #8
	.cfi_def_cfa_offset 8
	str	r0, [sp]
	ldr	r0, __arm_cp.8_0
.Ltmp18:
	.loc	4 188 9 prologue_end            @ ../Firmware/GD32E23x_standard_peripheral/Source/gd32e23x_syscfg.c:188:9
	ldr	r0, [r0]
	.loc	4 188 23 is_stmt 0              @ ../Firmware/GD32E23x_standard_peripheral/Source/gd32e23x_syscfg.c:188:23
	ldr	r1, [sp]
.Ltmp19:
	.loc	4 188 8                         @ ../Firmware/GD32E23x_standard_peripheral/Source/gd32e23x_syscfg.c:188:8
	tst	r0, r1
	beq	.LBB8_2
	b	.LBB8_1
.LBB8_1:
	.loc	4 0 8                           @ ../Firmware/GD32E23x_standard_peripheral/Source/gd32e23x_syscfg.c:0:8
	add	r1, sp, #4
	movs	r0, #1
.Ltmp20:
	.loc	4 189 9 is_stmt 1               @ ../Firmware/GD32E23x_standard_peripheral/Source/gd32e23x_syscfg.c:189:9
	strb	r0, [r1]
	b	.LBB8_3
.Ltmp21:
.LBB8_2:
	.loc	4 0 9 is_stmt 0                 @ ../Firmware/GD32E23x_standard_peripheral/Source/gd32e23x_syscfg.c:0:9
	add	r1, sp, #4
	movs	r0, #0
.Ltmp22:
	.loc	4 191 9 is_stmt 1               @ ../Firmware/GD32E23x_standard_peripheral/Source/gd32e23x_syscfg.c:191:9
	strb	r0, [r1]
	b	.LBB8_3
.Ltmp23:
.LBB8_3:
	.loc	4 0 9 is_stmt 0                 @ ../Firmware/GD32E23x_standard_peripheral/Source/gd32e23x_syscfg.c:0:9
	add	r0, sp, #4
	.loc	4 193 1 is_stmt 1               @ ../Firmware/GD32E23x_standard_peripheral/Source/gd32e23x_syscfg.c:193:1
	ldrb	r0, [r0]
	add	sp, #8
	bx	lr
.Ltmp24:
	.p2align	2
@ %bb.4:
	.loc	4 0 1 is_stmt 0                 @ ../Firmware/GD32E23x_standard_peripheral/Source/gd32e23x_syscfg.c:0:1
__arm_cp.8_0:
	.long	1073807384                      @ 0x40010018
.Lcpi_end10:
	.size	__arm_cp.8_0, .Lcpi_end10-__arm_cp.8_0
.Lfunc_end8:
	.size	syscfg_flag_get, .Lfunc_end8-syscfg_flag_get
	.cfi_endproc
	.cantunwind
	.fnend
                                        @ -- End function
	.section	.text.syscfg_flag_clear,"ax",%progbits
	.hidden	syscfg_flag_clear               @ -- Begin function syscfg_flag_clear
	.globl	syscfg_flag_clear
	.p2align	2
	.type	syscfg_flag_clear,%function
	.code	16                              @ @syscfg_flag_clear
	.thumb_func
syscfg_flag_clear:
.Lfunc_begin9:
	.loc	4 203 0 is_stmt 1               @ ../Firmware/GD32E23x_standard_peripheral/Source/gd32e23x_syscfg.c:203:0
	.fnstart
	.cfi_startproc
@ %bb.0:
	.pad	#4
	sub	sp, #4
	.cfi_def_cfa_offset 4
	str	r0, [sp]
.Ltmp25:
	.loc	4 204 31 prologue_end           @ ../Firmware/GD32E23x_standard_peripheral/Source/gd32e23x_syscfg.c:204:31
	ldr	r2, [sp]
	ldr	r1, __arm_cp.9_0
	.loc	4 204 17 is_stmt 0              @ ../Firmware/GD32E23x_standard_peripheral/Source/gd32e23x_syscfg.c:204:17
	ldr	r0, [r1]
	orrs	r0, r2
	str	r0, [r1]
	.loc	4 205 1 is_stmt 1               @ ../Firmware/GD32E23x_standard_peripheral/Source/gd32e23x_syscfg.c:205:1
	add	sp, #4
	bx	lr
.Ltmp26:
	.p2align	2
@ %bb.1:
	.loc	4 0 1 is_stmt 0                 @ ../Firmware/GD32E23x_standard_peripheral/Source/gd32e23x_syscfg.c:0:1
__arm_cp.9_0:
	.long	1073807384                      @ 0x40010018
.Lcpi_end11:
	.size	__arm_cp.9_0, .Lcpi_end11-__arm_cp.9_0
.Lfunc_end9:
	.size	syscfg_flag_clear, .Lfunc_end9-syscfg_flag_clear
	.cfi_endproc
	.cantunwind
	.fnend
                                        @ -- End function
	.section	".note.GNU-stack","",%progbits
	.eabi_attribute	30, 6	@ Tag_ABI_optimization_goals
	.ARM_attribute	16, 1	@ Tag_AV_eba