	.text
	.syntax unified
	.eabi_attribute	67, "2.09"	@ Tag_conformance
	.cpu	cortex-m23
	.eabi_attribute	6, 16	@ Tag_CPU_arch
	.eabi_attribute	7, 77	@ Tag_CPU_arch_profile
	.eabi_attribute	8, 0	@ Tag_ARM_ISA_use
	.eabi_attribute	9, 3	@ Tag_THUMB_ISA_use
	.eabi_attribute	34, 0	@ Tag_CPU_unaligned_access
	.eabi_attribute	17, 1	@ Tag_ABI_PCS_GOT_use
	.eabi_attribute	20, 2	@ Tag_ABI_FP_denormal
	.eabi_attribute	21, 0	@ Tag_ABI_FP_exceptions
	.eabi_attribute	23, 1	@ Tag_ABI_FP_number_model
	.eabi_attribute	24, 1	@ Tag_ABI_align_needed
	.eabi_attribute	25, 1	@ Tag_ABI_align_preserved
	.eabi_attribute	38, 1	@ Tag_ABI_FP_16bit_format
	.eabi_attribute	18, 2	@ Tag_ABI_PCS_wchar_t
	.eabi_attribute	26, 1	@ Tag_ABI_enum_size
	.eabi_attribute	14, 0	@ Tag_ABI_PCS_R9_use
	.file	"gd32e23x_exti.c"
	.file	1 "D:\\GD32\\GD32E230\\Oscilloscope\\Project" "../Firmware/GD32E23x_standard_peripheral/Include\\gd32e23x_exti.h"
	.file	2 "D:\\GD32\\GD32E230\\Oscilloscope\\Project" "../Firmware/CMSIS/GD/GD32E23x/Include\\gd32e23x.h"
	.file	3 "D:\\Keil_arm\\ARM\\ARMCLANG\\Bin\\..\\include" "stdint.h"
	.section	.text.exti_deinit,"ax",%progbits
	.hidden	exti_deinit                     @ -- Begin function exti_deinit
	.globl	exti_deinit
	.p2align	2
	.type	exti_deinit,%function
	.code	16                              @ @exti_deinit
	.thumb_func
exti_deinit:
.Lfunc_begin0:
	.file	4 "D:\\GD32\\GD32E230\\Oscilloscope\\Project" "../Firmware/GD32E23x_standard_peripheral/Source/gd32e23x_exti.c"
	.loc	4 48 0                          @ ../Firmware/GD32E23x_standard_peripheral/Source/gd32e23x_exti.c:48:0
	.fnstart
	.cfi_sections .debug_frame
	.cfi_startproc
@ %bb.0:
	movs	r0, #249
	lsls	r0, r0, #20
	ldr	r1, __arm_cp.0_0
.Ltmp0:
	.loc	4 50 16 prologue_end            @ ../Firmware/GD32E23x_standard_peripheral/Source/gd32e23x_exti.c:50:16
	str	r0, [r1]
	ldr	r1, __arm_cp.0_1
	movs	r0, #0
	.loc	4 51 16                         @ ../Firmware/GD32E23x_standard_peripheral/Source/gd32e23x_exti.c:51:16
	str	r0, [r1]
	ldr	r1, __arm_cp.0_2
	.loc	4 52 16                         @ ../Firmware/GD32E23x_standard_peripheral/Source/gd32e23x_exti.c:52:16
	str	r0, [r1]
	ldr	r1, __arm_cp.0_3
	.loc	4 53 16                         @ ../Firmware/GD32E23x_standard_peripheral/Source/gd32e23x_exti.c:53:16
	str	r0, [r1]
	ldr	r1, __arm_cp.0_4
	.loc	4 54 16                         @ ../Firmware/GD32E23x_standard_peripheral/Source/gd32e23x_exti.c:54:16
	str	r0, [r1]
	.loc	4 55 1                          @ ../Firmware/GD32E23x_standard_peripheral/Source/gd32e23x_exti.c:55:1
	bx	lr
.Ltmp1:
	.p2align	2
@ %bb.1:
	.loc	4 0 1 is_stmt 0                 @ ../Firmware/GD32E23x_standard_peripheral/Source/gd32e23x_exti.c:0:1
__arm_cp.0_0:
	.long	1073808384                      @ 0x40010400
.Lcpi_end0:
	.size	__arm_cp.0_0, .Lcpi_end0-__arm_cp.0_0
__arm_cp.0_1:
	.long	1073808388                      @ 0x40010404
.Lcpi_end1:
	.size	__arm_cp.0_1, .Lcpi_end1-__arm_cp.0_1
__arm_cp.0_2:
	.long	1073808392                      @ 0x40010408
.Lcpi_end2:
	.size	__arm_cp.0_2, .Lcpi_end2-__arm_cp.0_2
__arm_cp.0_3:
	.long	1073808396                      @ 0x4001040c
.Lcpi_end3:
	.size	__arm_cp.0_3, .Lcpi_end3-__arm_cp.0_3
__arm_cp.0_4:
	.long	1073808400                      @ 0x40010410
.Lcpi_end4:
	.size	__arm_cp.0_4, .Lcpi_end4-__arm_cp.0_4
.Lfunc_end0:
	.size	exti_deinit, .Lfunc_end0-exti_deinit
	.cfi_endproc
	.cantunwind
	.fnend
                                        @ -- End function
	.section	.text.exti_init,"ax",%progbits
	.hidden	exti_init                       @ -- Begin function exti_init
	.globl	exti_init
	.p2align	2
	.type	exti_init,%function
	.code	16                              @ @exti_init
	.thumb_func
exti_init:
.Lfunc_begin1:
	.loc	4 76 0 is_stmt 1                @ ../Firmware/GD32E23x_standard_peripheral/Source/gd32e23x_exti.c:76:0
	.fnstart
	.cfi_startproc
@ %bb.0:
	.pad	#20
	sub	sp, #20
	.cfi_def_cfa_offset 20
                                        @ kill: def $r3 killed $r2
                                        @ kill: def $r3 killed $r1
	str	r0, [sp, #16]
	add	r0, sp, #12
	strb	r1, [r0]
	add	r1, sp, #8
	strb	r2, [r1]
.Ltmp2:
	.loc	4 78 30 prologue_end            @ ../Firmware/GD32E23x_standard_peripheral/Source/gd32e23x_exti.c:78:30
	ldr	r3, [sp, #16]
	ldr	r2, __arm_cp.1_0
	.loc	4 78 16 is_stmt 0               @ ../Firmware/GD32E23x_standard_peripheral/Source/gd32e23x_exti.c:78:16
	ldr	r1, [r2]
	bics	r1, r3
	str	r1, [r2]
	.loc	4 79 29 is_stmt 1               @ ../Firmware/GD32E23x_standard_peripheral/Source/gd32e23x_exti.c:79:29
	ldr	r3, [sp, #16]
	ldr	r2, __arm_cp.1_1
	.loc	4 79 15 is_stmt 0               @ ../Firmware/GD32E23x_standard_peripheral/Source/gd32e23x_exti.c:79:15
	ldr	r1, [r2]
	bics	r1, r3
	str	r1, [r2]
	.loc	4 80 29 is_stmt 1               @ ../Firmware/GD32E23x_standard_peripheral/Source/gd32e23x_exti.c:80:29
	ldr	r3, [sp, #16]
	ldr	r2, __arm_cp.1_2
	.loc	4 80 15 is_stmt 0               @ ../Firmware/GD32E23x_standard_peripheral/Source/gd32e23x_exti.c:80:15
	ldr	r1, [r2]
	bics	r1, r3
	str	r1, [r2]
	.loc	4 81 29 is_stmt 1               @ ../Firmware/GD32E23x_standard_peripheral/Source/gd32e23x_exti.c:81:29
	ldr	r3, [sp, #16]
	ldr	r2, __arm_cp.1_3
	.loc	4 81 15 is_stmt 0               @ ../Firmware/GD32E23x_standard_peripheral/Source/gd32e23x_exti.c:81:15
	ldr	r1, [r2]
	bics	r1, r3
	str	r1, [r2]
	.loc	4 84 12 is_stmt 1               @ ../Firmware/GD32E23x_standard_peripheral/Source/gd32e23x_exti.c:84:12
	ldrb	r0, [r0]
	.loc	4 84 5 is_stmt 0                @ ../Firmware/GD32E23x_standard_peripheral/Source/gd32e23x_exti.c:84:5
	str	r0, [sp, #4]                    @ 4-byte Spill
	cbz	r0, .LBB1_2
	b	.LBB1_1
.LBB1_1:
	ldr	r0, [sp, #4]                    @ 4-byte Reload
	cmp	r0, #1
	beq	.LBB1_3
	b	.LBB1_4
.LBB1_2:
.Ltmp3:
	.loc	4 86 33 is_stmt 1               @ ../Firmware/GD32E23x_standard_peripheral/Source/gd32e23x_exti.c:86:33
	ldr	r2, [sp, #16]
	ldr	r1, __arm_cp.1_0
	.loc	4 86 20 is_stmt 0               @ ../Firmware/GD32E23x_standard_peripheral/Source/gd32e23x_exti.c:86:20
	ldr	r0, [r1]
	orrs	r0, r2
	str	r0, [r1]
	.loc	4 87 9 is_stmt 1                @ ../Firmware/GD32E23x_standard_peripheral/Source/gd32e23x_exti.c:87:9
	b	.LBB1_5
.LBB1_3:
	.loc	4 89 32                         @ ../Firmware/GD32E23x_standard_peripheral/Source/gd32e23x_exti.c:89:32
	ldr	r2, [sp, #16]
	ldr	r1, __arm_cp.1_1
	.loc	4 89 19 is_stmt 0               @ ../Firmware/GD32E23x_standard_peripheral/Source/gd32e23x_exti.c:89:19
	ldr	r0, [r1]
	orrs	r0, r2
	str	r0, [r1]
	.loc	4 90 9 is_stmt 1                @ ../Firmware/GD32E23x_standard_peripheral/Source/gd32e23x_exti.c:90:9
	b	.LBB1_5
.LBB1_4:
	.loc	4 92 9                          @ ../Firmware/GD32E23x_standard_peripheral/Source/gd32e23x_exti.c:92:9
	b	.LBB1_5
.Ltmp4:
.LBB1_5:
	.loc	4 0 9 is_stmt 0                 @ ../Firmware/GD32E23x_standard_peripheral/Source/gd32e23x_exti.c:0:9
	add	r0, sp, #8
	.loc	4 96 12 is_stmt 1               @ ../Firmware/GD32E23x_standard_peripheral/Source/gd32e23x_exti.c:96:12
	ldrb	r0, [r0]
	.loc	4 96 5 is_stmt 0                @ ../Firmware/GD32E23x_standard_peripheral/Source/gd32e23x_exti.c:96:5
	str	r0, [sp]                        @ 4-byte Spill
	cmp	r0, #3
	bhi	.LBB1_12
@ %bb.6:
	.loc	4 0 5                           @ ../Firmware/GD32E23x_standard_peripheral/Source/gd32e23x_exti.c:0:5
	ldr	r1, [sp]                        @ 4-byte Reload
	lsls	r2, r1, #2
	adr	r0, .LJTI1_0
	adds	r0, r0, r2
	mov	pc, r0
@ %bb.7:
	.p2align	2
.LJTI1_0:
	b.w	.LBB1_8
	b.w	.LBB1_9
	b.w	.LBB1_10
	b.w	.LBB1_11
.LBB1_8:
.Ltmp5:
	.loc	4 98 32 is_stmt 1               @ ../Firmware/GD32E23x_standard_peripheral/Source/gd32e23x_exti.c:98:32
	ldr	r2, [sp, #16]
	ldr	r1, __arm_cp.1_2
	.loc	4 98 19 is_stmt 0               @ ../Firmware/GD32E23x_standard_peripheral/Source/gd32e23x_exti.c:98:19
	ldr	r0, [r1]
	orrs	r0, r2
	str	r0, [r1]
	.loc	4 99 33 is_stmt 1               @ ../Firmware/GD32E23x_standard_peripheral/Source/gd32e23x_exti.c:99:33
	ldr	r2, [sp, #16]
	ldr	r1, __arm_cp.1_3
	.loc	4 99 19 is_stmt 0               @ ../Firmware/GD32E23x_standard_peripheral/Source/gd32e23x_exti.c:99:19
	ldr	r0, [r1]
	bics	r0, r2
	str	r0, [r1]
	.loc	4 100 9 is_stmt 1               @ ../Firmware/GD32E23x_standard_peripheral/Source/gd32e23x_exti.c:100:9
	b	.LBB1_13
.LBB1_9:
	.loc	4 102 33                        @ ../Firmware/GD32E23x_standard_peripheral/Source/gd32e23x_exti.c:102:33
	ldr	r2, [sp, #16]
	ldr	r1, __arm_cp.1_2
	.loc	4 102 19 is_stmt 0              @ ../Firmware/GD32E23x_standard_peripheral/Source/gd32e23x_exti.c:102:19
	ldr	r0, [r1]
	bics	r0, r2
	str	r0, [r1]
	.loc	4 103 32 is_stmt 1              @ ../Firmware/GD32E23x_standard_peripheral/Source/gd32e23x_exti.c:103:32
	ldr	r2, [sp, #16]
	ldr	r1, __arm_cp.1_3
	.loc	4 103 19 is_stmt 0              @ ../Firmware/GD32E23x_standard_peripheral/Source/gd32e23x_exti.c:103:19
	ldr	r0, [r1]
	orrs	r0, r2
	str	r0, [r1]
	.loc	4 104 9 is_stmt 1               @ ../Firmware/GD32E23x_standard_peripheral/Source/gd32e23x_exti.c:104:9
	b	.LBB1_13
.LBB1_10:
	.loc	4 106 32                        @ ../Firmware/GD32E23x_standard_peripheral/Source/gd32e23x_exti.c:106:32
	ldr	r2, [sp, #16]
	ldr	r1, __arm_cp.1_2
	.loc	4 106 19 is_stmt 0              @ ../Firmware/GD32E23x_standard_peripheral/Source/gd32e23x_exti.c:106:19
	ldr	r0, [r1]
	orrs	r0, r2
	str	r0, [r1]
	.loc	4 107 32 is_stmt 1              @ ../Firmware/GD32E23x_standard_peripheral/Source/gd32e23x_exti.c:107:32
	ldr	r2, [sp, #16]
	ldr	r1, __arm_cp.1_3
	.loc	4 107 19 is_stmt 0              @ ../Firmware/GD32E23x_standard_peripheral/Source/gd32e23x_exti.c:107:19
	ldr	r0, [r1]
	orrs	r0, r2
	str	r0, [r1]
	.loc	4 108 9 is_stmt 1               @ ../Firmware/GD32E23x_standard_peripheral/Source/gd32e23x_exti.c:108:9
	b	.LBB1_13
.LBB1_11:
	.loc	4 109 5                         @ ../Firmware/GD32E23x_standard_peripheral/Source/gd32e23x_exti.c:109:5
	b	.LBB1_12
.LBB1_12:
	.loc	4 111 9                         @ ../Firmware/GD32E23x_standard_peripheral/Source/gd32e23x_exti.c:111:9
	b	.LBB1_13
.Ltmp6:
.LBB1_13:
	.loc	4 113 1                         @ ../Firmware/GD32E23x_standard_peripheral/Source/gd32e23x_exti.c:113:1
	add	sp, #20
	bx	lr
.Ltmp7:
	.p2align	2
@ %bb.14:
	.loc	4 0 1 is_stmt 0                 @ ../Firmware/GD32E23x_standard_peripheral/Source/gd32e23x_exti.c:0:1
__arm_cp.1_0:
	.long	1073808384                      @ 0x40010400
.Lcpi_end5:
	.size	__arm_cp.1_0, .Lcpi_end5-__arm_cp.1_0
__arm_cp.1_1:
	.long	1073808388                      @ 0x40010404
.Lcpi_end6:
	.size	__arm_cp.1_1, .Lcpi_end6-__arm_cp.1_1
__arm_cp.1_2:
	.long	1073808392                      @ 0x40010408
.Lcpi_end7:
	.size	__arm_cp.1_2, .Lcpi_end7-__arm_cp.1_2
__arm_cp.1_3:
	.long	1073808396                      @ 0x4001040c
.Lcpi_end8:
	.size	__arm_cp.1_3, .Lcpi_end8-__arm_cp.1_3
.Lfunc_end1:
	.size	exti_init, .Lfunc_end1-exti_init
	.cfi_endproc
	.cantunwind
	.fnend
                                        @ -- End function
	.section	.text.exti_interrupt_enable,"ax",%progbits
	.hidden	exti_interrupt_enable           @ -- Begin function exti_interrupt_enable
	.globl	exti_interrupt_enable
	.p2align	2
	.type	exti_interrupt_enable,%function
	.code	16                              @ @exti_interrupt_enable
	.thumb_func
exti_interrupt_enable:
.Lfunc_begin2:
	.loc	4 124 0 is_stmt 1               @ ../Firmware/GD32E23x_standard_peripheral/Source/gd32e23x_exti.c:124:0
	.fnstart
	.cfi_startproc
@ %bb.0:
	.pad	#4
	sub	sp, #4
	.cfi_def_cfa_offset 4
	str	r0, [sp]
.Ltmp8:
	.loc	4 125 29 prologue_end           @ ../Firmware/GD32E23x_standard_peripheral/Source/gd32e23x_exti.c:125:29
	ldr	r2, [sp]
	ldr	r1, __arm_cp.2_0
	.loc	4 125 16 is_stmt 0              @ ../Firmware/GD32E23x_standard_peripheral/Source/gd32e23x_exti.c:125:16
	ldr	r0, [r1]
	orrs	r0, r2
	str	r0, [r1]
	.loc	4 126 1 is_stmt 1               @ ../Firmware/GD32E23x_standard_peripheral/Source/gd32e23x_exti.c:126:1
	add	sp, #4
	bx	lr
.Ltmp9:
	.p2align	2
@ %bb.1:
	.loc	4 0 1 is_stmt 0                 @ ../Firmware/GD32E23x_standard_peripheral/Source/gd32e23x_exti.c:0:1
__arm_cp.2_0:
	.long	1073808384                      @ 0x40010400
.Lcpi_end9:
	.size	__arm_cp.2_0, .Lcpi_end9-__arm_cp.2_0
.Lfunc_end2:
	.size	exti_interrupt_enable, .Lfunc_end2-exti_interrupt_enable
	.cfi_endproc
	.cantunwind
	.fnend
                                        @ -- End function
	.section	.text.exti_interrupt_disable,"ax",%progbits
	.hidden	exti_interrupt_disable          @ -- Begin function exti_interrupt_disable
	.globl	exti_interrupt_disable
	.p2align	2
	.type	exti_interrupt_disable,%function
	.code	16                              @ @exti_interrupt_disable
	.thumb_func
exti_interrupt_disable:
.Lfunc_begin3:
	.loc	4 137 0 is_stmt 1               @ ../Firmware/GD32E23x_standard_peripheral/Source/gd32e23x_exti.c:137:0
	.fnstart
	.cfi_startproc
@ %bb.0:
	.pad	#4
	sub	sp, #4
	.cfi_def_cfa_offset 4
	str	r0, [sp]
.Ltmp10:
	.loc	4 138 30 prologue_end           @ ../Firmware/GD32E23x_standard_peripheral/Source/gd32e23x_exti.c:138:30
	ldr	r2, [sp]
	ldr	r1, __arm_cp.3_0
	.loc	4 138 16 is_stmt 0              @ ../Firmware/GD32E23x_standard_peripheral/Source/gd32e23x_exti.c:138:16
	ldr	r0, [r1]
	bics	r0, r2
	str	r0, [r1]
	.loc	4 139 1 is_stmt 1               @ ../Firmware/GD32E23x_standard_peripheral/Source/gd32e23x_exti.c:139:1
	add	sp, #4
	bx	lr
.Ltmp11:
	.p2align	2
@ %bb.1:
	.loc	4 0 1 is_stmt 0                 @ ../Firmware/GD32E23x_standard_peripheral/Source/gd32e23x_exti.c:0:1
__arm_cp.3_0:
	.long	1073808384                      @ 0x40010400
.Lcpi_end10:
	.size	__arm_cp.3_0, .Lcpi_end10-__arm_cp.3_0
.Lfunc_end3:
	.size	exti_interrupt_disable, .Lfunc_end3-exti_interrupt_disable
	.cfi_endproc
	.cantunwind
	.fnend
                                        @ -- End function
	.section	.text.exti_event_enable,"ax",%progbits
	.hidden	exti_event_enable               @ -- Begin function exti_event_enable
	.globl	exti_event_enable
	.p2align	2
	.type	exti_event_enable,%function
	.code	16                              @ @exti_event_enable
	.thumb_func
exti_event_enable:
.Lfunc_begin4:
	.loc	4 150 0 is_stmt 1               @ ../Firmware/GD32E23x_standard_peripheral/Source/gd32e23x_exti.c:150:0
	.fnstart
	.cfi_startproc
@ %bb.0:
	.pad	#4
	sub	sp, #4
	.cfi_def_cfa_offset 4
	str	r0, [sp]
.Ltmp12:
	.loc	4 151 28 prologue_end           @ ../Firmware/GD32E23x_standard_peripheral/Source/gd32e23x_exti.c:151:28
	ldr	r2, [sp]
	ldr	r1, __arm_cp.4_0
	.loc	4 151 15 is_stmt 0              @ ../Firmware/GD32E23x_standard_peripheral/Source/gd32e23x_exti.c:151:15
	ldr	r0, [r1]
	orrs	r0, r2
	str	r0, [r1]
	.loc	4 152 1 is_stmt 1               @ ../Firmware/GD32E23x_standard_peripheral/Source/gd32e23x_exti.c:152:1
	add	sp, #4
	bx	lr
.Ltmp13:
	.p2align	2
@ %bb.1:
	.loc	4 0 1 is_stmt 0                 @ ../Firmware/GD32E23x_standard_peripheral/Source/gd32e23x_exti.c:0:1
__arm_cp.4_0:
	.long	1073808388                      @ 0x40010404
.Lcpi_end11:
	.size	__arm_cp.4_0, .Lcpi_end11-__arm_cp.4_0
.Lfunc_end4:
	.size	exti_event_enable, .Lfunc_end4-exti_event_enable
	.cfi_endproc
	.cantunwind
	.fnend
                                        @ -- End function
	.section	.text.exti_event_disable,"ax",%progbits
	.hidden	exti_event_disable              @ -- Begin function exti_event_disable
	.globl	exti_event_disable
	.p2align	2
	.type	exti_event_disable,%function
	.code	16                              @ @exti_event_disable
	.thumb_func
exti_event_disable:
.Lfunc_begin5:
	.loc	4 163 0 is_stmt 1               @ ../Firmware/GD32E23x_standard_peripheral/Source/gd32e23x_exti.c:163:0
	.fnstart
	.cfi_startproc
@ %bb.0:
	.pad	#4
	sub	sp, #4
	.cfi_def_cfa_offset 4
	str	r0, [sp]
.Ltmp14:
	.loc	4 164 29 prologue_end           @ ../Firmware/GD32E23x_standard_peripheral/Source/gd32e23x_exti.c:164:29
	ldr	r2, [sp]
	ldr	r1, __arm_cp.5_0
	.loc	4 164 15 is_stmt 0              @ ../Firmware/GD32E23x_standard_peripheral/Source/gd32e23x_exti.c:164:15
	ldr	r0, [r1]
	bics	r0, r2
	str	r0, [r1]
	.loc	4 165 1 is_stmt 1               @ ../Firmware/GD32E23x_standard_peripheral/Source/gd32e23x_exti.c:165:1
	add	sp, #4
	bx	lr
.Ltmp15:
	.p2align	2
@ %bb.1:
	.loc	4 0 1 is_stmt 0                 @ ../Firmware/GD32E23x_standard_peripheral/Source/gd32e23x_exti.c:0:1
__arm_cp.5_0:
	.long	1073808388                      @ 0x40010404
.Lcpi_end12:
	.size	__arm_cp.5_0, .Lcpi_end12-__arm_cp.5_0
.Lfunc_end5:
	.size	exti_event_disable, .Lfunc_end5-exti_event_disable
	.cfi_endproc
	.cantunwind
	.fnend
                                        @ -- End function
	.section	.text.exti_software_interrupt_enable,"ax",%progbits
	.hidden	exti_software_interrupt_enable  @ -- Begin function exti_software_interrupt_enable
	.globl	exti_software_interrupt_enable
	.p2align	2
	.type	exti_software_interrupt_enable,%function
	.code	16                              @ @exti_software_interrupt_enable
	.thumb_func
exti_software_interrupt_enable:
.Lfunc_begin6:
	.loc	4 176 0 is_stmt 1               @ ../Firmware/GD32E23x_standard_peripheral/Source/gd32e23x_exti.c:176:0
	.fnstart
	.cfi_startproc
@ %bb.0:
	.pad	#4
	sub	sp, #4
	.cfi_def_cfa_offset 4
	str	r0, [sp]
.Ltmp16:
	.loc	4 177 29 prologue_end           @ ../Firmware/GD32E23x_standard_peripheral/Source/gd32e23x_exti.c:177:29
	ldr	r2, [sp]
	ldr	r1, __arm_cp.6_0
	.loc	4 177 16 is_stmt 0              @ ../Firmware/GD32E23x_standard_peripheral/Source/gd32e23x_exti.c:177:16
	ldr	r0, [r1]
	orrs	r0, r2
	str	r0, [r1]
	.loc	4 178 1 is_stmt 1               @ ../Firmware/GD32E23x_standard_peripheral/Source/gd32e23x_exti.c:178:1
	add	sp, #4
	bx	lr
.Ltmp17:
	.p2align	2
@ %bb.1:
	.loc	4 0 1 is_stmt 0                 @ ../Firmware/GD32E23x_standard_peripheral/Source/gd32e23x_exti.c:0:1
__arm_cp.6_0:
	.long	1073808400                      @ 0x40010410
.Lcpi_end13:
	.size	__arm_cp.6_0, .Lcpi_end13-__arm_cp.6_0
.Lfunc_end6:
	.size	exti_software_interrupt_enable, .Lfunc_end6-exti_software_interrupt_enable
	.cfi_endproc
	.cantunwind
	.fnend
                                        @ -- End function
	.section	.text.exti_software_interrupt_disable,"ax",%progbits
	.hidden	exti_software_interrupt_disable @ -- Begin function exti_software_interrupt_disable
	.globl	exti_software_interrupt_disable
	.p2align	2
	.type	exti_software_interrupt_disable,%function
	.code	16                              @ @exti_software_interrupt_disable
	.thumb_func
exti_software_interrupt_disable:
.Lfunc_begin7:
	.loc	4 189 0 is_stmt 1               @ ../Firmware/GD32E23x_standard_peripheral/Source/gd32e23x_exti.c:189:0
	.fnstart
	.cfi_startproc
@ %bb.0:
	.pad	#4
	sub	sp, #4
	.cfi_def_cfa_offset 4
	str	r0, [sp]
.Ltmp18:
	.loc	4 190 30 prologue_end           @ ../Firmware/GD32E23x_standard_peripheral/Source/gd32e23x_exti.c:190:30
	ldr	r2, [sp]
	ldr	r1, __arm_cp.7_0
	.loc	4 190 16 is_stmt 0              @ ../Firmware/GD32E23x_standard_peripheral/Source/gd32e23x_exti.c:190:16
	ldr	r0, [r1]
	bics	r0, r2
	str	r0, [r1]
	.loc	4 191 1 is_stmt 1               @ ../Firmware/GD32E23x_standard_peripheral/Source/gd32e23x_exti.c:191:1
	add	sp, #4
	bx	lr
.Ltmp19:
	.p2align	2
@ %bb.1:
	.loc	4 0 1 is_stmt 0                 @ ../Firmware/GD32E23x_standard_peripheral/Source/gd32e23x_exti.c:0:1
__arm_cp.7_0:
	.long	1073808400                      @ 0x40010410
.Lcpi_end14:
	.size	__arm_cp.7_0, .Lcpi_end14-__arm_cp.7_0
.Lfunc_end7:
	.size	exti_software_interrupt_disable, .Lfunc_end7-exti_software_interrupt_disable
	.cfi_endproc
	.cantunwind
	.fnend
                                        @ -- End function
	.section	.text.exti_flag_get,"ax",%progbits
	.hidden	exti_flag_get                   @ -- Begin function exti_flag_get
	.globl	exti_flag_get
	.p2align	2
	.type	exti_flag_get,%function
	.code	16                              @ @exti_flag_get
	.thumb_func
exti_flag_get:
.Lfunc_begin8:
	.loc	4 202 0 is_stmt 1               @ ../Firmware/GD32E23x_standard_peripheral/Source/gd32e23x_exti.c:202:0
	.fnstart
	.cfi_startproc
@ %bb.0:
	.pad	#8
	sub	sp, #8
	.cfi_def_cfa_offset 8
	str	r0, [sp]
	ldr	r0, __arm_cp.8_0
.Ltmp20:
	.loc	4 203 18 prologue_end           @ ../Firmware/GD32E23x_standard_peripheral/Source/gd32e23x_exti.c:203:18
	ldr	r0, [r0]
	.loc	4 203 38 is_stmt 0              @ ../Firmware/GD32E23x_standard_peripheral/Source/gd32e23x_exti.c:203:38
	ldr	r1, [sp]
.Ltmp21:
	.loc	4 203 8                         @ ../Firmware/GD32E23x_standard_peripheral/Source/gd32e23x_exti.c:203:8
	tst	r0, r1
	beq	.LBB8_2
	b	.LBB8_1
.LBB8_1:
	.loc	4 0 8                           @ ../Firmware/GD32E23x_standard_peripheral/Source/gd32e23x_exti.c:0:8
	add	r1, sp, #4
	movs	r0, #1
.Ltmp22:
	.loc	4 204 9 is_stmt 1               @ ../Firmware/GD32E23x_standard_peripheral/Source/gd32e23x_exti.c:204:9
	strb	r0, [r1]
	b	.LBB8_3
.Ltmp23:
.LBB8_2:
	.loc	4 0 9 is_stmt 0                 @ ../Firmware/GD32E23x_standard_peripheral/Source/gd32e23x_exti.c:0:9
	add	r1, sp, #4
	movs	r0, #0
.Ltmp24:
	.loc	4 206 9 is_stmt 1               @ ../Firmware/GD32E23x_standard_peripheral/Source/gd32e23x_exti.c:206:9
	strb	r0, [r1]
	b	.LBB8_3
.Ltmp25:
.LBB8_3:
	.loc	4 0 9 is_stmt 0                 @ ../Firmware/GD32E23x_standard_peripheral/Source/gd32e23x_exti.c:0:9
	add	r0, sp, #4
	.loc	4 208 1 is_stmt 1               @ ../Firmware/GD32E23x_standard_peripheral/Source/gd32e23x_exti.c:208:1
	ldrb	r0, [r0]
	add	sp, #8
	bx	lr
.Ltmp26:
	.p2align	2
@ %bb.4:
	.loc	4 0 1 is_stmt 0                 @ ../Firmware/GD32E23x_standard_peripheral/Source/gd32e23x_exti.c:0:1
__arm_cp.8_0:
	.long	1073808404                      @ 0x40010414
.Lcpi_end15:
	.size	__arm_cp.8_0, .Lcpi_end15-__arm_cp.8_0
.Lfunc_end8:
	.size	exti_flag_get, .Lfunc_end8-exti_flag_get
	.cfi_endproc
	.cantunwind
	.fnend
                                        @ -- End function
	.section	.text.exti_flag_clear,"ax",%progbits
	.hidden	exti_flag_clear                 @ -- Begin function exti_flag_clear
	.globl	exti_flag_clear
	.p2align	2
	.type	exti_flag_clear,%function
	.code	16                              @ @exti_flag_clear
	.thumb_func
exti_flag_clear:
.Lfunc_begin9:
	.loc	4 219 0 is_stmt 1               @ ../Firmware/GD32E23x_standard_peripheral/Source/gd32e23x_exti.c:219:0
	.fnstart
	.cfi_startproc
@ %bb.0:
	.pad	#4
	sub	sp, #4
	.cfi_def_cfa_offset 4
	str	r0, [sp]
.Ltmp27:
	.loc	4 220 25 prologue_end           @ ../Firmware/GD32E23x_standard_peripheral/Source/gd32e23x_exti.c:220:25
	ldr	r0, [sp]
	ldr	r1, __arm_cp.9_0
	.loc	4 220 13 is_stmt 0              @ ../Firmware/GD32E23x_standard_peripheral/Source/gd32e23x_exti.c:220:13
	str	r0, [r1]
	.loc	4 221 1 is_stmt 1               @ ../Firmware/GD32E23x_standard_peripheral/Source/gd32e23x_exti.c:221:1
	add	sp, #4
	bx	lr
.Ltmp28:
	.p2align	2
@ %bb.1:
	.loc	4 0 1 is_stmt 0                 @ ../Firmware/GD32E23x_standard_peripheral/Source/gd32e23x_exti.c:0:1
__arm_cp.9_0:
	.long	1073808404                      @ 0x40010414
.Lcpi_end16:
	.size	__arm_cp.9_0, .Lcpi_end16-__arm_cp.9_0
.Lfunc_end9:
	.size	exti_flag_clear, .Lfunc_end9-exti_flag_clear
	.cfi_endproc
	.cantunwind
	.fnend
                                        @ -- End function
	.section	.text.exti_interrupt_flag_get,"ax",%progbits
	.hidden	exti_interrupt_flag_get         @ -- Begin function exti_interrupt_flag_get
	.globl	exti_interrupt_flag_get
	.p2align	2
	.type	exti_interrupt_flag_get,%function
	.code	16                              @ @exti_interrupt_flag_get
	.thumb_func
exti_interrupt_flag_get:
.Lfunc_begin10:
	.loc	4 232 0 is_stmt 1               @ ../Firmware/GD32E23x_standard_peripheral/Source/gd32e23x_exti.c:232:0
	.fnstart
	.cfi_startproc
@ %bb.0:
	.pad	#8
	sub	sp, #8
	.cfi_def_cfa_offset 8
	str	r0, [sp]
	ldr	r0, __arm_cp.10_0
.Ltmp29:
	.loc	4 233 18 prologue_end           @ ../Firmware/GD32E23x_standard_peripheral/Source/gd32e23x_exti.c:233:18
	ldr	r0, [r0]
	.loc	4 233 38 is_stmt 0              @ ../Firmware/GD32E23x_standard_peripheral/Source/gd32e23x_exti.c:233:38
	ldr	r1, [sp]
.Ltmp30:
	.loc	4 233 8                         @ ../Firmware/GD32E23x_standard_peripheral/Source/gd32e23x_exti.c:233:8
	tst	r0, r1
	beq	.LBB10_2
	b	.LBB10_1
.LBB10_1:
	.loc	4 0 8                           @ ../Firmware/GD32E23x_standard_peripheral/Source/gd32e23x_exti.c:0:8
	add	r1, sp, #4
	movs	r0, #1
.Ltmp31:
	.loc	4 234 9 is_stmt 1               @ ../Firmware/GD32E23x_standard_peripheral/Source/gd32e23x_exti.c:234:9
	strb	r0, [r1]
	b	.LBB10_3
.Ltmp32:
.LBB10_2:
	.loc	4 0 9 is_stmt 0                 @ ../Firmware/GD32E23x_standard_peripheral/Source/gd32e23x_exti.c:0:9
	add	r1, sp, #4
	movs	r0, #0
.Ltmp33:
	.loc	4 236 9 is_stmt 1               @ ../Firmware/GD32E23x_standard_peripheral/Source/gd32e23x_exti.c:236:9
	strb	r0, [r1]
	b	.LBB10_3
.Ltmp34:
.LBB10_3:
	.loc	4 0 9 is_stmt 0                 @ ../Firmware/GD32E23x_standard_peripheral/Source/gd32e23x_exti.c:0:9
	add	r0, sp, #4
	.loc	4 238 1 is_stmt 1               @ ../Firmware/GD32E23x_standard_peripheral/Source/gd32e23x_exti.c:238:1
	ldrb	r0, [r0]
	add	sp, #8
	bx	lr
.Ltmp35:
	.p2align	2
@ %bb.4:
	.loc	4 0 1 is_stmt 0                 @ ../Firmware/GD32E23x_standard_peripheral/Source/gd32e23x_exti.c:0:1
__arm_cp.10_0:
	.long	1073808404                      @ 0x40010414
.Lcpi_end17:
	.size	__arm_cp.10_0, .Lcpi_end17-__arm_cp.10_0
.Lfunc_end10:
	.size	exti_interrupt_flag_get, .Lfunc_end10-exti_interrupt_flag_get
	.cfi_endproc
	.cantunwind
	.fnend
                                        @ -- End function
	.section	.text.exti_interrupt_flag_clear,"ax",%progbits
	.hidden	exti_interrupt_flag_clear       @ -- Begin function exti_interrupt_flag_clear
	.globl	exti_interrupt_flag_clear
	.p2align	2
	.type	exti_interrupt_flag_clear,%function
	.code	16                              @ @exti_interrupt_flag_clear
	.thumb_func
exti_interrupt_flag_clear:
.Lfunc_begin11:
	.loc	4 249 0 is_stmt 1               @ ../Firmware/GD32E23x_standard_peripheral/Source/gd32e23x_exti.c:249:0
	.fnstart
	.cfi_startproc
@ %bb.0:
	.pad	#4
	sub	sp, #4
	.cfi_def_cfa_offset 4
	str	r0, [sp]
.Ltmp36:
	.loc	4 250 25 prologue_end           @ ../Firmware/GD32E23x_standard_peripheral/Source/gd32e23x_exti.c:250:25
	ldr	r0, [sp]
	ldr	r1, __arm_cp.11_0
	.loc	4 250 13 is_stmt 0              @ ../Firmware/GD32E23x_standard_peripheral/Source/gd32e23x_exti.c:250:13
	str	r0, [r1]
	.loc	4 251 1 is_stmt 1               @ ../Firmware/GD32E23x_standard_peripheral/Source/gd32e23x_exti.c:251:1
	add	sp, #4
	bx	lr
.Ltmp37:
	.p2align	2
@ %bb.1:
	.loc	4 0 1 is_stmt 0                 @ ../Firmware/GD32E23x_standard_peripheral/Source/gd32e23x_exti.c:0:1
__arm_cp.11_0:
	.long	1073808404                      @ 0x40010414
.Lcpi_end18:
	.size	__arm_cp.11_0, .Lcpi_end18-__arm_cp.11_0
.Lfunc_end11:
	.size	exti_interrupt_flag_clear, .Lfunc_end11-exti_interrupt_flag_clear
	.cfi_endproc
	.cantunwind
	.fnend
                                        @ -- End function
	.section	".note.GNU-stack","",%progbits
	.eabi_attribute	30, 6	@ Tag_ABI_optimization_goals
	.ARM_attribute	16, 1	@ Tag_AV_eba