	.text
	.syntax unified
	.eabi_attribute	67, "2.09"	@ Tag_conformance
	.cpu	cortex-m23
	.eabi_attribute	6, 16	@ Tag_CPU_arch
	.eabi_attribute	7, 77	@ Tag_CPU_arch_profile
	.eabi_attribute	8, 0	@ Tag_ARM_ISA_use
	.eabi_attribute	9, 3	@ Tag_THUMB_ISA_use
	.eabi_attribute	34, 0	@ Tag_CPU_unaligned_access
	.eabi_attribute	17, 1	@ Tag_ABI_PCS_GOT_use
	.eabi_attribute	20, 2	@ Tag_ABI_FP_denormal
	.eabi_attribute	21, 0	@ Tag_ABI_FP_exceptions
	.eabi_attribute	23, 1	@ Tag_ABI_FP_number_model
	.eabi_attribute	24, 1	@ Tag_ABI_align_needed
	.eabi_attribute	25, 1	@ Tag_ABI_align_preserved
	.eabi_attribute	38, 1	@ Tag_ABI_FP_16bit_format
	.eabi_attribute	18, 2	@ Tag_ABI_PCS_wchar_t
	.eabi_attribute	26, 1	@ Tag_ABI_enum_size
	.eabi_attribute	14, 0	@ Tag_ABI_PCS_R9_use
	.file	"gd32e23x_i2c.c"
	.file	1 "D:\\GD32\\GD32E230\\Oscilloscope\\Project" "../Firmware/GD32E23x_standard_peripheral/Include\\gd32e23x_rcu.h"
	.file	2 "D:\\GD32\\GD32E230\\Oscilloscope\\Project" "../Firmware/CMSIS/GD/GD32E23x/Include\\gd32e23x.h"
	.file	3 "D:\\GD32\\GD32E230\\Oscilloscope\\Project" "../Firmware/GD32E23x_standard_peripheral/Include\\gd32e23x_i2c.h"
	.file	4 "D:\\Keil_arm\\ARM\\ARMCLANG\\Bin\\..\\include" "stdint.h"
	.section	.text.i2c_deinit,"ax",%progbits
	.hidden	i2c_deinit                      @ -- Begin function i2c_deinit
	.globl	i2c_deinit
	.p2align	2
	.type	i2c_deinit,%function
	.code	16                              @ @i2c_deinit
	.thumb_func
i2c_deinit:
.Lfunc_begin0:
	.file	5 "D:\\GD32\\GD32E230\\Oscilloscope\\Project" "../Firmware/GD32E23x_standard_peripheral/Source/gd32e23x_i2c.c"
	.loc	5 54 0                          @ ../Firmware/GD32E23x_standard_peripheral/Source/gd32e23x_i2c.c:54:0
	.fnstart
	.cfi_sections .debug_frame
	.cfi_startproc
@ %bb.0:
	.save	{r7, lr}
	push	{r7, lr}
	.cfi_def_cfa_offset 8
	.cfi_offset lr, -4
	.cfi_offset r7, -8
	.pad	#16
	sub	sp, #16
	.cfi_def_cfa_offset 24
	str	r0, [sp, #12]
.Ltmp0:
	.loc	5 55 12 prologue_end            @ ../Firmware/GD32E23x_standard_peripheral/Source/gd32e23x_i2c.c:55:12
	ldr	r0, [sp, #12]
	str	r0, [sp, #8]                    @ 4-byte Spill
	ldr	r1, __arm_cp.0_0
	.loc	5 55 5 is_stmt 0                @ ../Firmware/GD32E23x_standard_peripheral/Source/gd32e23x_i2c.c:55:5
	cmp	r0, r1
	beq	.LBB0_2
	b	.LBB0_1
.LBB0_1:
	.loc	5 0 5                           @ ../Firmware/GD32E23x_standard_peripheral/Source/gd32e23x_i2c.c:0:5
	ldr	r0, [sp, #8]                    @ 4-byte Reload
	ldr	r1, __arm_cp.0_1
	.loc	5 55 5                          @ ../Firmware/GD32E23x_standard_peripheral/Source/gd32e23x_i2c.c:55:5
	cmp	r0, r1
	beq	.LBB0_3
	b	.LBB0_4
.LBB0_2:
	.loc	5 0 5                           @ ../Firmware/GD32E23x_standard_peripheral/Source/gd32e23x_i2c.c:0:5
	ldr	r0, __arm_cp.0_3
.Ltmp1:
	.loc	5 58 9 is_stmt 1                @ ../Firmware/GD32E23x_standard_peripheral/Source/gd32e23x_i2c.c:58:9
	str	r0, [sp, #4]                    @ 4-byte Spill
	bl	rcu_periph_reset_enable
	ldr	r0, [sp, #4]                    @ 4-byte Reload
	.loc	5 59 9                          @ ../Firmware/GD32E23x_standard_peripheral/Source/gd32e23x_i2c.c:59:9
	bl	rcu_periph_reset_disable
	.loc	5 60 9                          @ ../Firmware/GD32E23x_standard_peripheral/Source/gd32e23x_i2c.c:60:9
	b	.LBB0_5
.LBB0_3:
	.loc	5 0 9 is_stmt 0                 @ ../Firmware/GD32E23x_standard_peripheral/Source/gd32e23x_i2c.c:0:9
	ldr	r0, __arm_cp.0_2
	.loc	5 63 9 is_stmt 1                @ ../Firmware/GD32E23x_standard_peripheral/Source/gd32e23x_i2c.c:63:9
	str	r0, [sp]                        @ 4-byte Spill
	bl	rcu_periph_reset_enable
	ldr	r0, [sp]                        @ 4-byte Reload
	.loc	5 64 9                          @ ../Firmware/GD32E23x_standard_peripheral/Source/gd32e23x_i2c.c:64:9
	bl	rcu_periph_reset_disable
	.loc	5 65 9                          @ ../Firmware/GD32E23x_standard_peripheral/Source/gd32e23x_i2c.c:65:9
	b	.LBB0_5
.LBB0_4:
	.loc	5 67 9                          @ ../Firmware/GD32E23x_standard_peripheral/Source/gd32e23x_i2c.c:67:9
	b	.LBB0_5
.Ltmp2:
.LBB0_5:
	.loc	5 69 1                          @ ../Firmware/GD32E23x_standard_peripheral/Source/gd32e23x_i2c.c:69:1
	add	sp, #16
	pop	{r7, pc}
.Ltmp3:
	.p2align	2
@ %bb.6:
	.loc	5 0 1 is_stmt 0                 @ ../Firmware/GD32E23x_standard_peripheral/Source/gd32e23x_i2c.c:0:1
__arm_cp.0_0:
	.long	1073763328                      @ 0x40005400
.Lcpi_end0:
	.size	__arm_cp.0_0, .Lcpi_end0-__arm_cp.0_0
__arm_cp.0_1:
	.long	1073764352                      @ 0x40005800
.Lcpi_end1:
	.size	__arm_cp.0_1, .Lcpi_end1-__arm_cp.0_1
__arm_cp.0_2:
	.long	1046                            @ 0x416
.Lcpi_end2:
	.size	__arm_cp.0_2, .Lcpi_end2-__arm_cp.0_2
__arm_cp.0_3:
	.long	1045                            @ 0x415
.Lcpi_end3:
	.size	__arm_cp.0_3, .Lcpi_end3-__arm_cp.0_3
.Lfunc_end0:
	.size	i2c_deinit, .Lfunc_end0-i2c_deinit
	.cfi_endproc
	.cantunwind
	.fnend
                                        @ -- End function
	.section	.text.i2c_clock_config,"ax",%progbits
	.hidden	i2c_clock_config                @ -- Begin function i2c_clock_config
	.globl	i2c_clock_config
	.p2align	2
	.type	i2c_clock_config,%function
	.code	16                              @ @i2c_clock_config
	.thumb_func
i2c_clock_config:
.Lfunc_begin1:
	.loc	5 84 0 is_stmt 1                @ ../Firmware/GD32E23x_standard_peripheral/Source/gd32e23x_i2c.c:84:0
	.fnstart
	.cfi_startproc
@ %bb.0:
	.save	{r7, lr}
	push	{r7, lr}
	.cfi_def_cfa_offset 8
	.cfi_offset lr, -4
	.cfi_offset r7, -8
	.pad	#32
	sub	sp, #32
	.cfi_def_cfa_offset 40
	str	r0, [sp, #28]
	str	r1, [sp, #24]
	str	r2, [sp, #20]
	movs	r0, #2
.Ltmp4:
	.loc	5 88 13 prologue_end            @ ../Firmware/GD32E23x_standard_peripheral/Source/gd32e23x_i2c.c:88:13
	bl	rcu_clock_freq_get
	.loc	5 88 11 is_stmt 0               @ ../Firmware/GD32E23x_standard_peripheral/Source/gd32e23x_i2c.c:88:11
	str	r0, [sp, #16]
	.loc	5 90 23 is_stmt 1               @ ../Firmware/GD32E23x_standard_peripheral/Source/gd32e23x_i2c.c:90:23
	ldr	r0, [sp, #16]
	ldr	r1, __arm_cp.1_0
	.loc	5 90 29 is_stmt 0               @ ../Firmware/GD32E23x_standard_peripheral/Source/gd32e23x_i2c.c:90:29
	udiv	r0, r0, r1
	.loc	5 90 10                         @ ../Firmware/GD32E23x_standard_peripheral/Source/gd32e23x_i2c.c:90:10
	str	r0, [sp, #8]
.Ltmp5:
	.loc	5 91 8 is_stmt 1                @ ../Firmware/GD32E23x_standard_peripheral/Source/gd32e23x_i2c.c:91:8
	ldr	r0, [sp, #8]
.Ltmp6:
	.loc	5 91 8 is_stmt 0                @ ../Firmware/GD32E23x_standard_peripheral/Source/gd32e23x_i2c.c:91:8
	cmp	r0, #127
	blo	.LBB1_2
	b	.LBB1_1
.LBB1_1:
	.loc	5 0 8                           @ ../Firmware/GD32E23x_standard_peripheral/Source/gd32e23x_i2c.c:0:8
	movs	r0, #127
.Ltmp7:
	.loc	5 92 14 is_stmt 1               @ ../Firmware/GD32E23x_standard_peripheral/Source/gd32e23x_i2c.c:92:14
	str	r0, [sp, #8]
	.loc	5 93 5                          @ ../Firmware/GD32E23x_standard_peripheral/Source/gd32e23x_i2c.c:93:5
	b	.LBB1_2
.Ltmp8:
.LBB1_2:
	.loc	5 94 12                         @ ../Firmware/GD32E23x_standard_peripheral/Source/gd32e23x_i2c.c:94:12
	ldr	r0, [sp, #28]
	ldr	r0, [r0, #4]
	.loc	5 94 10 is_stmt 0               @ ../Firmware/GD32E23x_standard_peripheral/Source/gd32e23x_i2c.c:94:10
	str	r0, [sp]
	.loc	5 95 10 is_stmt 1               @ ../Firmware/GD32E23x_standard_peripheral/Source/gd32e23x_i2c.c:95:10
	ldr	r0, [sp]
	movs	r1, #127
	bics	r0, r1
	str	r0, [sp]
	.loc	5 96 13                         @ ../Firmware/GD32E23x_standard_peripheral/Source/gd32e23x_i2c.c:96:13
	ldr	r1, [sp, #8]
	.loc	5 96 10 is_stmt 0               @ ../Firmware/GD32E23x_standard_peripheral/Source/gd32e23x_i2c.c:96:10
	ldr	r0, [sp]
	orrs	r0, r1
	str	r0, [sp]
	.loc	5 98 28 is_stmt 1               @ ../Firmware/GD32E23x_standard_peripheral/Source/gd32e23x_i2c.c:98:28
	ldr	r0, [sp]
	.loc	5 98 5 is_stmt 0                @ ../Firmware/GD32E23x_standard_peripheral/Source/gd32e23x_i2c.c:98:5
	ldr	r1, [sp, #28]
	.loc	5 98 26                         @ ../Firmware/GD32E23x_standard_peripheral/Source/gd32e23x_i2c.c:98:26
	str	r0, [r1, #4]
.Ltmp9:
	.loc	5 100 19 is_stmt 1              @ ../Firmware/GD32E23x_standard_peripheral/Source/gd32e23x_i2c.c:100:19
	ldr	r0, [sp, #24]
	ldr	r1, __arm_cp.1_1
.Ltmp10:
	.loc	5 100 8 is_stmt 0               @ ../Firmware/GD32E23x_standard_peripheral/Source/gd32e23x_i2c.c:100:8
	cmp	r0, r1
	bhi	.LBB1_12
	b	.LBB1_3
.LBB1_3:
.Ltmp11:
	.loc	5 102 32 is_stmt 1              @ ../Firmware/GD32E23x_standard_peripheral/Source/gd32e23x_i2c.c:102:32
	ldr	r0, [sp, #16]
	ldr	r1, __arm_cp.1_0
	.loc	5 102 38 is_stmt 0              @ ../Firmware/GD32E23x_standard_peripheral/Source/gd32e23x_i2c.c:102:38
	udiv	r0, r0, r1
	.loc	5 102 50                        @ ../Firmware/GD32E23x_standard_peripheral/Source/gd32e23x_i2c.c:102:50
	adds	r0, r0, #1
	.loc	5 102 18                        @ ../Firmware/GD32E23x_standard_peripheral/Source/gd32e23x_i2c.c:102:18
	str	r0, [sp, #4]
.Ltmp12:
	.loc	5 103 12 is_stmt 1              @ ../Firmware/GD32E23x_standard_peripheral/Source/gd32e23x_i2c.c:103:12
	ldr	r0, [sp, #4]
.Ltmp13:
	.loc	5 103 12 is_stmt 0              @ ../Firmware/GD32E23x_standard_peripheral/Source/gd32e23x_i2c.c:103:12
	cmp	r0, #127
	blo	.LBB1_5
	b	.LBB1_4
.LBB1_4:
.Ltmp14:
	.loc	5 104 13 is_stmt 1              @ ../Firmware/GD32E23x_standard_peripheral/Source/gd32e23x_i2c.c:104:13
	ldr	r1, [sp, #28]
	movs	r0, #127
	.loc	5 104 32 is_stmt 0              @ ../Firmware/GD32E23x_standard_peripheral/Source/gd32e23x_i2c.c:104:32
	str	r0, [r1, #32]
	.loc	5 105 9 is_stmt 1               @ ../Firmware/GD32E23x_standard_peripheral/Source/gd32e23x_i2c.c:105:9
	b	.LBB1_9
.Ltmp15:
.LBB1_5:
	.loc	5 105 19 is_stmt 0              @ ../Firmware/GD32E23x_standard_peripheral/Source/gd32e23x_i2c.c:105:19
	ldr	r0, [sp, #4]
.Ltmp16:
	.loc	5 105 19                        @ ../Firmware/GD32E23x_standard_peripheral/Source/gd32e23x_i2c.c:105:19
	cmp	r0, #2
	bhi	.LBB1_7
	b	.LBB1_6
.LBB1_6:
.Ltmp17:
	.loc	5 106 13 is_stmt 1              @ ../Firmware/GD32E23x_standard_peripheral/Source/gd32e23x_i2c.c:106:13
	ldr	r1, [sp, #28]
	movs	r0, #2
	.loc	5 106 32 is_stmt 0              @ ../Firmware/GD32E23x_standard_peripheral/Source/gd32e23x_i2c.c:106:32
	str	r0, [r1, #32]
	.loc	5 107 9 is_stmt 1               @ ../Firmware/GD32E23x_standard_peripheral/Source/gd32e23x_i2c.c:107:9
	b	.LBB1_8
.Ltmp18:
.LBB1_7:
	.loc	5 108 34                        @ ../Firmware/GD32E23x_standard_peripheral/Source/gd32e23x_i2c.c:108:34
	ldr	r0, [sp, #4]
	.loc	5 108 13 is_stmt 0              @ ../Firmware/GD32E23x_standard_peripheral/Source/gd32e23x_i2c.c:108:13
	ldr	r1, [sp, #28]
	.loc	5 108 32                        @ ../Firmware/GD32E23x_standard_peripheral/Source/gd32e23x_i2c.c:108:32
	str	r0, [r1, #32]
	b	.LBB1_8
.Ltmp19:
.LBB1_8:
	.loc	5 0 32                          @ ../Firmware/GD32E23x_standard_peripheral/Source/gd32e23x_i2c.c:0:32
	b	.LBB1_9
.LBB1_9:
	.loc	5 110 27 is_stmt 1              @ ../Firmware/GD32E23x_standard_peripheral/Source/gd32e23x_i2c.c:110:27
	ldr	r0, [sp, #16]
	.loc	5 110 36 is_stmt 0              @ ../Firmware/GD32E23x_standard_peripheral/Source/gd32e23x_i2c.c:110:36
	ldr	r1, [sp, #24]
	.loc	5 110 45                        @ ../Firmware/GD32E23x_standard_peripheral/Source/gd32e23x_i2c.c:110:45
	lsls	r1, r1, #1
	.loc	5 110 33                        @ ../Firmware/GD32E23x_standard_peripheral/Source/gd32e23x_i2c.c:110:33
	udiv	r0, r0, r1
	.loc	5 110 14                        @ ../Firmware/GD32E23x_standard_peripheral/Source/gd32e23x_i2c.c:110:14
	str	r0, [sp, #12]
.Ltmp20:
	.loc	5 111 12 is_stmt 1              @ ../Firmware/GD32E23x_standard_peripheral/Source/gd32e23x_i2c.c:111:12
	ldr	r0, [sp, #12]
.Ltmp21:
	.loc	5 111 12 is_stmt 0              @ ../Firmware/GD32E23x_standard_peripheral/Source/gd32e23x_i2c.c:111:12
	cmp	r0, #3
	bhi	.LBB1_11
	b	.LBB1_10
.LBB1_10:
	.loc	5 0 12                          @ ../Firmware/GD32E23x_standard_peripheral/Source/gd32e23x_i2c.c:0:12
	movs	r0, #4
.Ltmp22:
	.loc	5 113 18 is_stmt 1              @ ../Firmware/GD32E23x_standard_peripheral/Source/gd32e23x_i2c.c:113:18
	str	r0, [sp, #12]
	.loc	5 114 9                         @ ../Firmware/GD32E23x_standard_peripheral/Source/gd32e23x_i2c.c:114:9
	b	.LBB1_11
.Ltmp23:
.LBB1_11:
	.loc	5 116 52                        @ ../Firmware/GD32E23x_standard_peripheral/Source/gd32e23x_i2c.c:116:52
	ldr	r2, [sp, #12]
	ldr	r0, __arm_cp.1_3
	.loc	5 116 50 is_stmt 0              @ ../Firmware/GD32E23x_standard_peripheral/Source/gd32e23x_i2c.c:116:50
	ands	r2, r0
	.loc	5 116 9                         @ ../Firmware/GD32E23x_standard_peripheral/Source/gd32e23x_i2c.c:116:9
	ldr	r1, [sp, #28]
	.loc	5 116 31                        @ ../Firmware/GD32E23x_standard_peripheral/Source/gd32e23x_i2c.c:116:31
	ldr	r0, [r1, #28]
	orrs	r0, r2
	str	r0, [r1, #28]
	.loc	5 118 5 is_stmt 1               @ ../Firmware/GD32E23x_standard_peripheral/Source/gd32e23x_i2c.c:118:5
	b	.LBB1_24
.Ltmp24:
.LBB1_12:
	.loc	5 118 26 is_stmt 0              @ ../Firmware/GD32E23x_standard_peripheral/Source/gd32e23x_i2c.c:118:26
	ldr	r0, [sp, #24]
	ldr	r1, __arm_cp.1_2
.Ltmp25:
	.loc	5 118 15                        @ ../Firmware/GD32E23x_standard_peripheral/Source/gd32e23x_i2c.c:118:15
	cmp	r0, r1
	bhi	.LBB1_19
	b	.LBB1_13
.LBB1_13:
.Ltmp26:
	.loc	5 120 43 is_stmt 1              @ ../Firmware/GD32E23x_standard_peripheral/Source/gd32e23x_i2c.c:120:43
	ldr	r1, [sp, #8]
	movw	r0, #300
	.loc	5 120 48 is_stmt 0              @ ../Firmware/GD32E23x_standard_peripheral/Source/gd32e23x_i2c.c:120:48
	muls	r0, r1, r0
	movw	r1, #1000
	.loc	5 120 66                        @ ../Firmware/GD32E23x_standard_peripheral/Source/gd32e23x_i2c.c:120:66
	udiv	r0, r0, r1
	.loc	5 120 85                        @ ../Firmware/GD32E23x_standard_peripheral/Source/gd32e23x_i2c.c:120:85
	adds	r0, r0, #1
	.loc	5 120 9                         @ ../Firmware/GD32E23x_standard_peripheral/Source/gd32e23x_i2c.c:120:9
	ldr	r1, [sp, #28]
	.loc	5 120 28                        @ ../Firmware/GD32E23x_standard_peripheral/Source/gd32e23x_i2c.c:120:28
	str	r0, [r1, #32]
.Ltmp27:
	.loc	5 121 26 is_stmt 1              @ ../Firmware/GD32E23x_standard_peripheral/Source/gd32e23x_i2c.c:121:26
	ldr	r0, [sp, #20]
.Ltmp28:
	.loc	5 121 12 is_stmt 0              @ ../Firmware/GD32E23x_standard_peripheral/Source/gd32e23x_i2c.c:121:12
	cbnz	r0, .LBB1_15
	b	.LBB1_14
.LBB1_14:
.Ltmp29:
	.loc	5 123 31 is_stmt 1              @ ../Firmware/GD32E23x_standard_peripheral/Source/gd32e23x_i2c.c:123:31
	ldr	r0, [sp, #16]
	.loc	5 123 40 is_stmt 0              @ ../Firmware/GD32E23x_standard_peripheral/Source/gd32e23x_i2c.c:123:40
	ldr	r2, [sp, #24]
	movs	r1, #3
	.loc	5 123 49                        @ ../Firmware/GD32E23x_standard_peripheral/Source/gd32e23x_i2c.c:123:49
	muls	r1, r2, r1
	.loc	5 123 37                        @ ../Firmware/GD32E23x_standard_peripheral/Source/gd32e23x_i2c.c:123:37
	udiv	r0, r0, r1
	.loc	5 123 18                        @ ../Firmware/GD32E23x_standard_peripheral/Source/gd32e23x_i2c.c:123:18
	str	r0, [sp, #12]
	.loc	5 124 13 is_stmt 1              @ ../Firmware/GD32E23x_standard_peripheral/Source/gd32e23x_i2c.c:124:13
	ldr	r1, [sp, #28]
	.loc	5 124 35 is_stmt 0              @ ../Firmware/GD32E23x_standard_peripheral/Source/gd32e23x_i2c.c:124:35
	ldr	r0, [r1, #28]
	movw	r2, #16384
	bics	r0, r2
	str	r0, [r1, #28]
	.loc	5 125 9 is_stmt 1               @ ../Firmware/GD32E23x_standard_peripheral/Source/gd32e23x_i2c.c:125:9
	b	.LBB1_16
.Ltmp30:
.LBB1_15:
	.loc	5 127 31                        @ ../Firmware/GD32E23x_standard_peripheral/Source/gd32e23x_i2c.c:127:31
	ldr	r0, [sp, #16]
	.loc	5 127 40 is_stmt 0              @ ../Firmware/GD32E23x_standard_peripheral/Source/gd32e23x_i2c.c:127:40
	ldr	r2, [sp, #24]
	movs	r1, #25
	.loc	5 127 49                        @ ../Firmware/GD32E23x_standard_peripheral/Source/gd32e23x_i2c.c:127:49
	muls	r1, r2, r1
	.loc	5 127 37                        @ ../Firmware/GD32E23x_standard_peripheral/Source/gd32e23x_i2c.c:127:37
	udiv	r0, r0, r1
	.loc	5 127 18                        @ ../Firmware/GD32E23x_standard_peripheral/Source/gd32e23x_i2c.c:127:18
	str	r0, [sp, #12]
	.loc	5 128 13 is_stmt 1              @ ../Firmware/GD32E23x_standard_peripheral/Source/gd32e23x_i2c.c:128:13
	ldr	r1, [sp, #28]
	.loc	5 128 35 is_stmt 0              @ ../Firmware/GD32E23x_standard_peripheral/Source/gd32e23x_i2c.c:128:35
	ldr	r0, [r1, #28]
	movw	r2, #16384
	orrs	r0, r2
	str	r0, [r1, #28]
	b	.LBB1_16
.Ltmp31:
.LBB1_16:
	.loc	5 0 35                          @ ../Firmware/GD32E23x_standard_peripheral/Source/gd32e23x_i2c.c:0:35
	add	r0, sp, #12
	.loc	5 130 12 is_stmt 1              @ ../Firmware/GD32E23x_standard_peripheral/Source/gd32e23x_i2c.c:130:12
	ldrh	r0, [r0]
	lsls	r0, r0, #20
	cbnz	r0, .LBB1_18
	b	.LBB1_17
.LBB1_17:
.Ltmp32:
	.loc	5 132 18                        @ ../Firmware/GD32E23x_standard_peripheral/Source/gd32e23x_i2c.c:132:18
	ldr	r0, [sp, #12]
	movs	r1, #1
	orrs	r0, r1
	str	r0, [sp, #12]
	.loc	5 133 9                         @ ../Firmware/GD32E23x_standard_peripheral/Source/gd32e23x_i2c.c:133:9
	b	.LBB1_18
.Ltmp33:
.LBB1_18:
	.loc	5 134 9                         @ ../Firmware/GD32E23x_standard_peripheral/Source/gd32e23x_i2c.c:134:9
	ldr	r1, [sp, #28]
	.loc	5 134 31 is_stmt 0              @ ../Firmware/GD32E23x_standard_peripheral/Source/gd32e23x_i2c.c:134:31
	ldr	r0, [r1, #28]
	movw	r2, #32768
	orrs	r0, r2
	str	r0, [r1, #28]
	.loc	5 135 34 is_stmt 1              @ ../Firmware/GD32E23x_standard_peripheral/Source/gd32e23x_i2c.c:135:34
	ldr	r2, [sp, #12]
	.loc	5 135 9 is_stmt 0               @ ../Firmware/GD32E23x_standard_peripheral/Source/gd32e23x_i2c.c:135:9
	ldr	r1, [sp, #28]
	.loc	5 135 31                        @ ../Firmware/GD32E23x_standard_peripheral/Source/gd32e23x_i2c.c:135:31
	ldr	r0, [r1, #28]
	orrs	r0, r2
	str	r0, [r1, #28]
	.loc	5 136 5 is_stmt 1               @ ../Firmware/GD32E23x_standard_peripheral/Source/gd32e23x_i2c.c:136:5
	b	.LBB1_23
.Ltmp34:
.LBB1_19:
	.loc	5 138 43                        @ ../Firmware/GD32E23x_standard_peripheral/Source/gd32e23x_i2c.c:138:43
	ldr	r1, [sp, #8]
	movs	r0, #120
	.loc	5 138 48 is_stmt 0              @ ../Firmware/GD32E23x_standard_peripheral/Source/gd32e23x_i2c.c:138:48
	muls	r0, r1, r0
	movw	r1, #1000
	.loc	5 138 66                        @ ../Firmware/GD32E23x_standard_peripheral/Source/gd32e23x_i2c.c:138:66
	udiv	r0, r0, r1
	.loc	5 138 85                        @ ../Firmware/GD32E23x_standard_peripheral/Source/gd32e23x_i2c.c:138:85
	adds	r0, r0, #1
	.loc	5 138 9                         @ ../Firmware/GD32E23x_standard_peripheral/Source/gd32e23x_i2c.c:138:9
	ldr	r1, [sp, #28]
	.loc	5 138 28                        @ ../Firmware/GD32E23x_standard_peripheral/Source/gd32e23x_i2c.c:138:28
	str	r0, [r1, #32]
.Ltmp35:
	.loc	5 139 26 is_stmt 1              @ ../Firmware/GD32E23x_standard_peripheral/Source/gd32e23x_i2c.c:139:26
	ldr	r0, [sp, #20]
.Ltmp36:
	.loc	5 139 12 is_stmt 0              @ ../Firmware/GD32E23x_standard_peripheral/Source/gd32e23x_i2c.c:139:12
	cbnz	r0, .LBB1_21
	b	.LBB1_20
.LBB1_20:
.Ltmp37:
	.loc	5 141 31 is_stmt 1              @ ../Firmware/GD32E23x_standard_peripheral/Source/gd32e23x_i2c.c:141:31
	ldr	r0, [sp, #16]
	.loc	5 141 40 is_stmt 0              @ ../Firmware/GD32E23x_standard_peripheral/Source/gd32e23x_i2c.c:141:40
	ldr	r2, [sp, #24]
	movs	r1, #3
	.loc	5 141 49                        @ ../Firmware/GD32E23x_standard_peripheral/Source/gd32e23x_i2c.c:141:49
	muls	r1, r2, r1
	.loc	5 141 37                        @ ../Firmware/GD32E23x_standard_peripheral/Source/gd32e23x_i2c.c:141:37
	udiv	r0, r0, r1
	.loc	5 141 18                        @ ../Firmware/GD32E23x_standard_peripheral/Source/gd32e23x_i2c.c:141:18
	str	r0, [sp, #12]
	.loc	5 142 13 is_stmt 1              @ ../Firmware/GD32E23x_standard_peripheral/Source/gd32e23x_i2c.c:142:13
	ldr	r1, [sp, #28]
	.loc	5 142 35 is_stmt 0              @ ../Firmware/GD32E23x_standard_peripheral/Source/gd32e23x_i2c.c:142:35
	ldr	r0, [r1, #28]
	movw	r2, #16384
	bics	r0, r2
	str	r0, [r1, #28]
	.loc	5 143 9 is_stmt 1               @ ../Firmware/GD32E23x_standard_peripheral/Source/gd32e23x_i2c.c:143:9
	b	.LBB1_22
.Ltmp38:
.LBB1_21:
	.loc	5 145 31                        @ ../Firmware/GD32E23x_standard_peripheral/Source/gd32e23x_i2c.c:145:31
	ldr	r0, [sp, #16]
	.loc	5 145 40 is_stmt 0              @ ../Firmware/GD32E23x_standard_peripheral/Source/gd32e23x_i2c.c:145:40
	ldr	r2, [sp, #24]
	movs	r1, #25
	.loc	5 145 49                        @ ../Firmware/GD32E23x_standard_peripheral/Source/gd32e23x_i2c.c:145:49
	muls	r1, r2, r1
	.loc	5 145 37                        @ ../Firmware/GD32E23x_standard_peripheral/Source/gd32e23x_i2c.c:145:37
	udiv	r0, r0, r1
	.loc	5 145 18                        @ ../Firmware/GD32E23x_standard_peripheral/Source/gd32e23x_i2c.c:145:18
	str	r0, [sp, #12]
	.loc	5 146 13 is_stmt 1              @ ../Firmware/GD32E23x_standard_peripheral/Source/gd32e23x_i2c.c:146:13
	ldr	r1, [sp, #28]
	.loc	5 146 35 is_stmt 0              @ ../Firmware/GD32E23x_standard_peripheral/Source/gd32e23x_i2c.c:146:35
	ldr	r0, [r1, #28]
	movw	r2, #16384
	orrs	r0, r2
	str	r0, [r1, #28]
	b	.LBB1_22
.Ltmp39:
.LBB1_22:
	.loc	5 149 9 is_stmt 1               @ ../Firmware/GD32E23x_standard_peripheral/Source/gd32e23x_i2c.c:149:9
	ldr	r1, [sp, #28]
	.loc	5 149 31 is_stmt 0              @ ../Firmware/GD32E23x_standard_peripheral/Source/gd32e23x_i2c.c:149:31
	ldr	r0, [r1, #28]
	movw	r2, #32768
	orrs	r0, r2
	str	r0, [r1, #28]
	.loc	5 150 34 is_stmt 1              @ ../Firmware/GD32E23x_standard_peripheral/Source/gd32e23x_i2c.c:150:34
	ldr	r2, [sp, #12]
	.loc	5 150 9 is_stmt 0               @ ../Firmware/GD32E23x_standard_peripheral/Source/gd32e23x_i2c.c:150:9
	ldr	r1, [sp, #28]
	.loc	5 150 31                        @ ../Firmware/GD32E23x_standard_peripheral/Source/gd32e23x_i2c.c:150:31
	ldr	r0, [r1, #28]
	orrs	r0, r2
	str	r0, [r1, #28]
	.loc	5 152 9 is_stmt 1               @ ../Firmware/GD32E23x_standard_peripheral/Source/gd32e23x_i2c.c:152:9
	ldr	r1, [sp, #28]
	movs	r2, #144
	movs	r0, #1
	.loc	5 152 32 is_stmt 0              @ ../Firmware/GD32E23x_standard_peripheral/Source/gd32e23x_i2c.c:152:32
	str	r0, [r1, r2]
	b	.LBB1_23
.Ltmp40:
.LBB1_23:
	.loc	5 0 32                          @ ../Firmware/GD32E23x_standard_peripheral/Source/gd32e23x_i2c.c:0:32
	b	.LBB1_24
.LBB1_24:
	.loc	5 154 1 is_stmt 1               @ ../Firmware/GD32E23x_standard_peripheral/Source/gd32e23x_i2c.c:154:1
	add	sp, #32
	pop	{r7, pc}
.Ltmp41:
	.p2align	2
@ %bb.25:
	.loc	5 0 1 is_stmt 0                 @ ../Firmware/GD32E23x_standard_peripheral/Source/gd32e23x_i2c.c:0:1
__arm_cp.1_0:
	.long	1000000                         @ 0xf4240
.Lcpi_end4:
	.size	__arm_cp.1_0, .Lcpi_end4-__arm_cp.1_0
__arm_cp.1_1:
	.long	100000                          @ 0x186a0
.Lcpi_end5:
	.size	__arm_cp.1_1, .Lcpi_end5-__arm_cp.1_1
__arm_cp.1_2:
	.long	400000                          @ 0x61a80
.Lcpi_end6:
	.size	__arm_cp.1_2, .Lcpi_end6-__arm_cp.1_2
__arm_cp.1_3:
	.long	4095                            @ 0xfff
.Lcpi_end7:
	.size	__arm_cp.1_3, .Lcpi_end7-__arm_cp.1_3
.Lfunc_end1:
	.size	i2c_clock_config, .Lfunc_end1-i2c_clock_config
	.cfi_endproc
	.cantunwind
	.fnend
                                        @ -- End function
	.section	.text.i2c_mode_addr_config,"ax",%progbits
	.hidden	i2c_mode_addr_config            @ -- Begin function i2c_mode_addr_config
	.globl	i2c_mode_addr_config
	.p2align	2
	.type	i2c_mode_addr_config,%function
	.code	16                              @ @i2c_mode_addr_config
	.thumb_func
i2c_mode_addr_config:
.Lfunc_begin2:
	.loc	5 172 0 is_stmt 1               @ ../Firmware/GD32E23x_standard_peripheral/Source/gd32e23x_i2c.c:172:0
	.fnstart
	.cfi_startproc
@ %bb.0:
	.pad	#20
	sub	sp, #20
	.cfi_def_cfa_offset 20
	str	r0, [sp, #16]
	str	r1, [sp, #12]
	str	r2, [sp, #8]
	str	r3, [sp, #4]
	movs	r0, #0
.Ltmp42:
	.loc	5 174 14 prologue_end           @ ../Firmware/GD32E23x_standard_peripheral/Source/gd32e23x_i2c.c:174:14
	str	r0, [sp]
	.loc	5 176 11                        @ ../Firmware/GD32E23x_standard_peripheral/Source/gd32e23x_i2c.c:176:11
	ldr	r0, [sp, #16]
	ldr	r0, [r0]
	.loc	5 176 9 is_stmt 0               @ ../Firmware/GD32E23x_standard_peripheral/Source/gd32e23x_i2c.c:176:9
	str	r0, [sp]
	.loc	5 177 9 is_stmt 1               @ ../Firmware/GD32E23x_standard_peripheral/Source/gd32e23x_i2c.c:177:9
	ldr	r0, [sp]
	movs	r1, #2
	bics	r0, r1
	str	r0, [sp]
	.loc	5 178 12                        @ ../Firmware/GD32E23x_standard_peripheral/Source/gd32e23x_i2c.c:178:12
	ldr	r1, [sp, #12]
	.loc	5 178 9 is_stmt 0               @ ../Firmware/GD32E23x_standard_peripheral/Source/gd32e23x_i2c.c:178:9
	ldr	r0, [sp]
	orrs	r0, r1
	str	r0, [sp]
	.loc	5 179 28 is_stmt 1              @ ../Firmware/GD32E23x_standard_peripheral/Source/gd32e23x_i2c.c:179:28
	ldr	r0, [sp]
	.loc	5 179 5 is_stmt 0               @ ../Firmware/GD32E23x_standard_peripheral/Source/gd32e23x_i2c.c:179:5
	ldr	r1, [sp, #16]
	.loc	5 179 26                        @ ../Firmware/GD32E23x_standard_peripheral/Source/gd32e23x_i2c.c:179:26
	str	r0, [r1]
	.loc	5 181 12 is_stmt 1              @ ../Firmware/GD32E23x_standard_peripheral/Source/gd32e23x_i2c.c:181:12
	ldr	r0, [sp, #4]
	ldr	r1, __arm_cp.2_0
	.loc	5 181 17 is_stmt 0              @ ../Firmware/GD32E23x_standard_peripheral/Source/gd32e23x_i2c.c:181:17
	ands	r0, r1
	.loc	5 181 10                        @ ../Firmware/GD32E23x_standard_peripheral/Source/gd32e23x_i2c.c:181:10
	str	r0, [sp, #4]
	.loc	5 182 31 is_stmt 1              @ ../Firmware/GD32E23x_standard_peripheral/Source/gd32e23x_i2c.c:182:31
	ldr	r0, [sp, #8]
	.loc	5 182 43 is_stmt 0              @ ../Firmware/GD32E23x_standard_peripheral/Source/gd32e23x_i2c.c:182:43
	ldr	r1, [sp, #4]
	.loc	5 182 41                        @ ../Firmware/GD32E23x_standard_peripheral/Source/gd32e23x_i2c.c:182:41
	orrs	r0, r1
	.loc	5 182 5                         @ ../Firmware/GD32E23x_standard_peripheral/Source/gd32e23x_i2c.c:182:5
	ldr	r1, [sp, #16]
	.loc	5 182 28                        @ ../Firmware/GD32E23x_standard_peripheral/Source/gd32e23x_i2c.c:182:28
	str	r0, [r1, #8]
	.loc	5 183 1 is_stmt 1               @ ../Firmware/GD32E23x_standard_peripheral/Source/gd32e23x_i2c.c:183:1
	add	sp, #20
	bx	lr
.Ltmp43:
	.p2align	2
@ %bb.1:
	.loc	5 0 1 is_stmt 0                 @ ../Firmware/GD32E23x_standard_peripheral/Source/gd32e23x_i2c.c:0:1
__arm_cp.2_0:
	.long	1023                            @ 0x3ff
.Lcpi_end8:
	.size	__arm_cp.2_0, .Lcpi_end8-__arm_cp.2_0
.Lfunc_end2:
	.size	i2c_mode_addr_config, .Lfunc_end2-i2c_mode_addr_config
	.cfi_endproc
	.cantunwind
	.fnend
                                        @ -- End function
	.section	.text.i2c_smbus_type_config,"ax",%progbits
	.hidden	i2c_smbus_type_config           @ -- Begin function i2c_smbus_type_config
	.globl	i2c_smbus_type_config
	.p2align	1
	.type	i2c_smbus_type_config,%function
	.code	16                              @ @i2c_smbus_type_config
	.thumb_func
i2c_smbus_type_config:
.Lfunc_begin3:
	.loc	5 196 0 is_stmt 1               @ ../Firmware/GD32E23x_standard_peripheral/Source/gd32e23x_i2c.c:196:0
	.fnstart
	.cfi_startproc
@ %bb.0:
	.pad	#8
	sub	sp, #8
	.cfi_def_cfa_offset 8
	str	r0, [sp, #4]
	str	r1, [sp]
.Ltmp44:
	.loc	5 197 26 prologue_end           @ ../Firmware/GD32E23x_standard_peripheral/Source/gd32e23x_i2c.c:197:26
	ldr	r0, [sp]
.Ltmp45:
	.loc	5 197 8 is_stmt 0               @ ../Firmware/GD32E23x_standard_peripheral/Source/gd32e23x_i2c.c:197:8
	cmp	r0, #8
	bne	.LBB3_2
	b	.LBB3_1
.LBB3_1:
.Ltmp46:
	.loc	5 198 9 is_stmt 1               @ ../Firmware/GD32E23x_standard_peripheral/Source/gd32e23x_i2c.c:198:9
	ldr	r1, [sp, #4]
	.loc	5 198 30 is_stmt 0              @ ../Firmware/GD32E23x_standard_peripheral/Source/gd32e23x_i2c.c:198:30
	ldr	r0, [r1]
	movs	r2, #8
	orrs	r0, r2
	str	r0, [r1]
	.loc	5 199 5 is_stmt 1               @ ../Firmware/GD32E23x_standard_peripheral/Source/gd32e23x_i2c.c:199:5
	b	.LBB3_3
.Ltmp47:
.LBB3_2:
	.loc	5 200 9                         @ ../Firmware/GD32E23x_standard_peripheral/Source/gd32e23x_i2c.c:200:9
	ldr	r1, [sp, #4]
	.loc	5 200 30 is_stmt 0              @ ../Firmware/GD32E23x_standard_peripheral/Source/gd32e23x_i2c.c:200:30
	ldr	r0, [r1]
	movs	r2, #8
	bics	r0, r2
	str	r0, [r1]
	b	.LBB3_3
.Ltmp48:
.LBB3_3:
	.loc	5 202 1 is_stmt 1               @ ../Firmware/GD32E23x_standard_peripheral/Source/gd32e23x_i2c.c:202:1
	add	sp, #8
	bx	lr
.Ltmp49:
.Lfunc_end3:
	.size	i2c_smbus_type_config, .Lfunc_end3-i2c_smbus_type_config
	.cfi_endproc
	.cantunwind
	.fnend
                                        @ -- End function
	.section	.text.i2c_ack_config,"ax",%progbits
	.hidden	i2c_ack_config                  @ -- Begin function i2c_ack_config
	.globl	i2c_ack_config
	.p2align	1
	.type	i2c_ack_config,%function
	.code	16                              @ @i2c_ack_config
	.thumb_func
i2c_ack_config:
.Lfunc_begin4:
	.loc	5 215 0                         @ ../Firmware/GD32E23x_standard_peripheral/Source/gd32e23x_i2c.c:215:0
	.fnstart
	.cfi_startproc
@ %bb.0:
	.pad	#12
	sub	sp, #12
	.cfi_def_cfa_offset 12
	str	r0, [sp, #8]
	str	r1, [sp, #4]
	movs	r0, #0
.Ltmp50:
	.loc	5 216 14 prologue_end           @ ../Firmware/GD32E23x_standard_peripheral/Source/gd32e23x_i2c.c:216:14
	str	r0, [sp]
	.loc	5 218 11                        @ ../Firmware/GD32E23x_standard_peripheral/Source/gd32e23x_i2c.c:218:11
	ldr	r0, [sp, #8]
	ldr	r0, [r0]
	.loc	5 218 9 is_stmt 0               @ ../Firmware/GD32E23x_standard_peripheral/Source/gd32e23x_i2c.c:218:9
	str	r0, [sp]
	.loc	5 219 9 is_stmt 1               @ ../Firmware/GD32E23x_standard_peripheral/Source/gd32e23x_i2c.c:219:9
	ldr	r0, [sp]
	movw	r1, #1024
	bics	r0, r1
	str	r0, [sp]
	.loc	5 220 12                        @ ../Firmware/GD32E23x_standard_peripheral/Source/gd32e23x_i2c.c:220:12
	ldr	r1, [sp, #4]
	.loc	5 220 9 is_stmt 0               @ ../Firmware/GD32E23x_standard_peripheral/Source/gd32e23x_i2c.c:220:9
	ldr	r0, [sp]
	orrs	r0, r1
	str	r0, [sp]
	.loc	5 221 28 is_stmt 1              @ ../Firmware/GD32E23x_standard_peripheral/Source/gd32e23x_i2c.c:221:28
	ldr	r0, [sp]
	.loc	5 221 5 is_stmt 0               @ ../Firmware/GD32E23x_standard_peripheral/Source/gd32e23x_i2c.c:221:5
	ldr	r1, [sp, #8]
	.loc	5 221 26                        @ ../Firmware/GD32E23x_standard_peripheral/Source/gd32e23x_i2c.c:221:26
	str	r0, [r1]
	.loc	5 222 1 is_stmt 1               @ ../Firmware/GD32E23x_standard_peripheral/Source/gd32e23x_i2c.c:222:1
	add	sp, #12
	bx	lr
.Ltmp51:
.Lfunc_end4:
	.size	i2c_ack_config, .Lfunc_end4-i2c_ack_config
	.cfi_endproc
	.cantunwind
	.fnend
                                        @ -- End function
	.section	.text.i2c_ackpos_config,"ax",%progbits
	.hidden	i2c_ackpos_config               @ -- Begin function i2c_ackpos_config
	.globl	i2c_ackpos_config
	.p2align	1
	.type	i2c_ackpos_config,%function
	.code	16                              @ @i2c_ackpos_config
	.thumb_func
i2c_ackpos_config:
.Lfunc_begin5:
	.loc	5 235 0                         @ ../Firmware/GD32E23x_standard_peripheral/Source/gd32e23x_i2c.c:235:0
	.fnstart
	.cfi_startproc
@ %bb.0:
	.pad	#12
	sub	sp, #12
	.cfi_def_cfa_offset 12
	str	r0, [sp, #8]
	str	r1, [sp, #4]
	movs	r0, #0
.Ltmp52:
	.loc	5 236 14 prologue_end           @ ../Firmware/GD32E23x_standard_peripheral/Source/gd32e23x_i2c.c:236:14
	str	r0, [sp]
	.loc	5 238 11                        @ ../Firmware/GD32E23x_standard_peripheral/Source/gd32e23x_i2c.c:238:11
	ldr	r0, [sp, #8]
	ldr	r0, [r0]
	.loc	5 238 9 is_stmt 0               @ ../Firmware/GD32E23x_standard_peripheral/Source/gd32e23x_i2c.c:238:9
	str	r0, [sp]
	.loc	5 239 9 is_stmt 1               @ ../Firmware/GD32E23x_standard_peripheral/Source/gd32e23x_i2c.c:239:9
	ldr	r0, [sp]
	movw	r1, #2048
	bics	r0, r1
	str	r0, [sp]
	.loc	5 240 12                        @ ../Firmware/GD32E23x_standard_peripheral/Source/gd32e23x_i2c.c:240:12
	ldr	r1, [sp, #4]
	.loc	5 240 9 is_stmt 0               @ ../Firmware/GD32E23x_standard_peripheral/Source/gd32e23x_i2c.c:240:9
	ldr	r0, [sp]
	orrs	r0, r1
	str	r0, [sp]
	.loc	5 241 28 is_stmt 1              @ ../Firmware/GD32E23x_standard_peripheral/Source/gd32e23x_i2c.c:241:28
	ldr	r0, [sp]
	.loc	5 241 5 is_stmt 0               @ ../Firmware/GD32E23x_standard_peripheral/Source/gd32e23x_i2c.c:241:5
	ldr	r1, [sp, #8]
	.loc	5 241 26                        @ ../Firmware/GD32E23x_standard_peripheral/Source/gd32e23x_i2c.c:241:26
	str	r0, [r1]
	.loc	5 242 1 is_stmt 1               @ ../Firmware/GD32E23x_standard_peripheral/Source/gd32e23x_i2c.c:242:1
	add	sp, #12
	bx	lr
.Ltmp53:
.Lfunc_end5:
	.size	i2c_ackpos_config, .Lfunc_end5-i2c_ackpos_config
	.cfi_endproc
	.cantunwind
	.fnend
                                        @ -- End function
	.section	.text.i2c_master_addressing,"ax",%progbits
	.hidden	i2c_master_addressing           @ -- Begin function i2c_master_addressing
	.globl	i2c_master_addressing
	.p2align	1
	.type	i2c_master_addressing,%function
	.code	16                              @ @i2c_master_addressing
	.thumb_func
i2c_master_addressing:
.Lfunc_begin6:
	.loc	5 256 0                         @ ../Firmware/GD32E23x_standard_peripheral/Source/gd32e23x_i2c.c:256:0
	.fnstart
	.cfi_startproc
@ %bb.0:
	.pad	#12
	sub	sp, #12
	.cfi_def_cfa_offset 12
	str	r0, [sp, #8]
	str	r1, [sp, #4]
	str	r2, [sp]
.Ltmp54:
	.loc	5 258 27 prologue_end           @ ../Firmware/GD32E23x_standard_peripheral/Source/gd32e23x_i2c.c:258:27
	ldr	r0, [sp]
.Ltmp55:
	.loc	5 258 8 is_stmt 0               @ ../Firmware/GD32E23x_standard_peripheral/Source/gd32e23x_i2c.c:258:8
	adds	r0, r0, #2
	cbnz	r0, .LBB6_2
	b	.LBB6_1
.LBB6_1:
.Ltmp56:
	.loc	5 259 16 is_stmt 1              @ ../Firmware/GD32E23x_standard_peripheral/Source/gd32e23x_i2c.c:259:16
	ldr	r0, [sp, #4]
	movs	r1, #1
	.loc	5 259 21 is_stmt 0              @ ../Firmware/GD32E23x_standard_peripheral/Source/gd32e23x_i2c.c:259:21
	bics	r0, r1
	.loc	5 259 14                        @ ../Firmware/GD32E23x_standard_peripheral/Source/gd32e23x_i2c.c:259:14
	str	r0, [sp, #4]
	.loc	5 260 5 is_stmt 1               @ ../Firmware/GD32E23x_standard_peripheral/Source/gd32e23x_i2c.c:260:5
	b	.LBB6_3
.Ltmp57:
.LBB6_2:
	.loc	5 261 16                        @ ../Firmware/GD32E23x_standard_peripheral/Source/gd32e23x_i2c.c:261:16
	ldr	r0, [sp, #4]
	movs	r1, #1
	.loc	5 261 21 is_stmt 0              @ ../Firmware/GD32E23x_standard_peripheral/Source/gd32e23x_i2c.c:261:21
	orrs	r0, r1
	.loc	5 261 14                        @ ../Firmware/GD32E23x_standard_peripheral/Source/gd32e23x_i2c.c:261:14
	str	r0, [sp, #4]
	b	.LBB6_3
.Ltmp58:
.LBB6_3:
	.loc	5 264 28 is_stmt 1              @ ../Firmware/GD32E23x_standard_peripheral/Source/gd32e23x_i2c.c:264:28
	ldr	r0, [sp, #4]
	.loc	5 264 5 is_stmt 0               @ ../Firmware/GD32E23x_standard_peripheral/Source/gd32e23x_i2c.c:264:5
	ldr	r1, [sp, #8]
	.loc	5 264 26                        @ ../Firmware/GD32E23x_standard_peripheral/Source/gd32e23x_i2c.c:264:26
	str	r0, [r1, #16]
	.loc	5 265 1 is_stmt 1               @ ../Firmware/GD32E23x_standard_peripheral/Source/gd32e23x_i2c.c:265:1
	add	sp, #12
	bx	lr
.Ltmp59:
.Lfunc_end6:
	.size	i2c_master_addressing, .Lfunc_end6-i2c_master_addressing
	.cfi_endproc
	.cantunwind
	.fnend
                                        @ -- End function
	.section	.text.i2c_dualaddr_enable,"ax",%progbits
	.hidden	i2c_dualaddr_enable             @ -- Begin function i2c_dualaddr_enable
	.globl	i2c_dualaddr_enable
	.p2align	1
	.type	i2c_dualaddr_enable,%function
	.code	16                              @ @i2c_dualaddr_enable
	.thumb_func
i2c_dualaddr_enable:
.Lfunc_begin7:
	.loc	5 275 0                         @ ../Firmware/GD32E23x_standard_peripheral/Source/gd32e23x_i2c.c:275:0
	.fnstart
	.cfi_startproc
@ %bb.0:
	.pad	#8
	sub	sp, #8
	.cfi_def_cfa_offset 8
	str	r0, [sp, #4]
	str	r1, [sp]
.Ltmp60:
	.loc	5 277 12 prologue_end           @ ../Firmware/GD32E23x_standard_peripheral/Source/gd32e23x_i2c.c:277:12
	ldr	r0, [sp]
	movs	r1, #254
	.loc	5 277 17 is_stmt 0              @ ../Firmware/GD32E23x_standard_peripheral/Source/gd32e23x_i2c.c:277:17
	ands	r0, r1
	.loc	5 277 10                        @ ../Firmware/GD32E23x_standard_peripheral/Source/gd32e23x_i2c.c:277:10
	str	r0, [sp]
	.loc	5 278 51 is_stmt 1              @ ../Firmware/GD32E23x_standard_peripheral/Source/gd32e23x_i2c.c:278:51
	ldr	r0, [sp]
	movs	r1, #1
	.loc	5 278 49 is_stmt 0              @ ../Firmware/GD32E23x_standard_peripheral/Source/gd32e23x_i2c.c:278:49
	orrs	r0, r1
	.loc	5 278 5                         @ ../Firmware/GD32E23x_standard_peripheral/Source/gd32e23x_i2c.c:278:5
	ldr	r1, [sp, #4]
	.loc	5 278 28                        @ ../Firmware/GD32E23x_standard_peripheral/Source/gd32e23x_i2c.c:278:28
	str	r0, [r1, #12]
	.loc	5 279 1 is_stmt 1               @ ../Firmware/GD32E23x_standard_peripheral/Source/gd32e23x_i2c.c:279:1
	add	sp, #8
	bx	lr
.Ltmp61:
.Lfunc_end7:
	.size	i2c_dualaddr_enable, .Lfunc_end7-i2c_dualaddr_enable
	.cfi_endproc
	.cantunwind
	.fnend
                                        @ -- End function
	.section	.text.i2c_dualaddr_disable,"ax",%progbits
	.hidden	i2c_dualaddr_disable            @ -- Begin function i2c_dualaddr_disable
	.globl	i2c_dualaddr_disable
	.p2align	1
	.type	i2c_dualaddr_disable,%function
	.code	16                              @ @i2c_dualaddr_disable
	.thumb_func
i2c_dualaddr_disable:
.Lfunc_begin8:
	.loc	5 288 0                         @ ../Firmware/GD32E23x_standard_peripheral/Source/gd32e23x_i2c.c:288:0
	.fnstart
	.cfi_startproc
@ %bb.0:
	.pad	#4
	sub	sp, #4
	.cfi_def_cfa_offset 4
	str	r0, [sp]
.Ltmp62:
	.loc	5 289 5 prologue_end            @ ../Firmware/GD32E23x_standard_peripheral/Source/gd32e23x_i2c.c:289:5
	ldr	r1, [sp]
	.loc	5 289 28 is_stmt 0              @ ../Firmware/GD32E23x_standard_peripheral/Source/gd32e23x_i2c.c:289:28
	ldr	r0, [r1, #12]
	movs	r2, #1
	bics	r0, r2
	str	r0, [r1, #12]
	.loc	5 290 1 is_stmt 1               @ ../Firmware/GD32E23x_standard_peripheral/Source/gd32e23x_i2c.c:290:1
	add	sp, #4
	bx	lr
.Ltmp63:
.Lfunc_end8:
	.size	i2c_dualaddr_disable, .Lfunc_end8-i2c_dualaddr_disable
	.cfi_endproc
	.cantunwind
	.fnend
                                        @ -- End function
	.section	.text.i2c_enable,"ax",%progbits
	.hidden	i2c_enable                      @ -- Begin function i2c_enable
	.globl	i2c_enable
	.p2align	1
	.type	i2c_enable,%function
	.code	16                              @ @i2c_enable
	.thumb_func
i2c_enable:
.Lfunc_begin9:
	.loc	5 299 0                         @ ../Firmware/GD32E23x_standard_peripheral/Source/gd32e23x_i2c.c:299:0
	.fnstart
	.cfi_startproc
@ %bb.0:
	.pad	#4
	sub	sp, #4
	.cfi_def_cfa_offset 4
	str	r0, [sp]
.Ltmp64:
	.loc	5 300 5 prologue_end            @ ../Firmware/GD32E23x_standard_peripheral/Source/gd32e23x_i2c.c:300:5
	ldr	r1, [sp]
	.loc	5 300 26 is_stmt 0              @ ../Firmware/GD32E23x_standard_peripheral/Source/gd32e23x_i2c.c:300:26
	ldr	r0, [r1]
	movs	r2, #1
	orrs	r0, r2
	str	r0, [r1]
	.loc	5 301 1 is_stmt 1               @ ../Firmware/GD32E23x_standard_peripheral/Source/gd32e23x_i2c.c:301:1
	add	sp, #4
	bx	lr
.Ltmp65:
.Lfunc_end9:
	.size	i2c_enable, .Lfunc_end9-i2c_enable
	.cfi_endproc
	.cantunwind
	.fnend
                                        @ -- End function
	.section	.text.i2c_disable,"ax",%progbits
	.hidden	i2c_disable                     @ -- Begin function i2c_disable
	.globl	i2c_disable
	.p2align	1
	.type	i2c_disable,%function
	.code	16                              @ @i2c_disable
	.thumb_func
i2c_disable:
.Lfunc_begin10:
	.loc	5 310 0                         @ ../Firmware/GD32E23x_standard_peripheral/Source/gd32e23x_i2c.c:310:0
	.fnstart
	.cfi_startproc
@ %bb.0:
	.pad	#4
	sub	sp, #4
	.cfi_def_cfa_offset 4
	str	r0, [sp]
.Ltmp66:
	.loc	5 311 5 prologue_end            @ ../Firmware/GD32E23x_standard_peripheral/Source/gd32e23x_i2c.c:311:5
	ldr	r1, [sp]
	.loc	5 311 26 is_stmt 0              @ ../Firmware/GD32E23x_standard_peripheral/Source/gd32e23x_i2c.c:311:26
	ldr	r0, [r1]
	movs	r2, #1
	bics	r0, r2
	str	r0, [r1]
	.loc	5 312 1 is_stmt 1               @ ../Firmware/GD32E23x_standard_peripheral/Source/gd32e23x_i2c.c:312:1
	add	sp, #4
	bx	lr
.Ltmp67:
.Lfunc_end10:
	.size	i2c_disable, .Lfunc_end10-i2c_disable
	.cfi_endproc
	.cantunwind
	.fnend
                                        @ -- End function
	.section	.text.i2c_start_on_bus,"ax",%progbits
	.hidden	i2c_start_on_bus                @ -- Begin function i2c_start_on_bus
	.globl	i2c_start_on_bus
	.p2align	1
	.type	i2c_start_on_bus,%function
	.code	16                              @ @i2c_start_on_bus
	.thumb_func
i2c_start_on_bus:
.Lfunc_begin11:
	.loc	5 321 0                         @ ../Firmware/GD32E23x_standard_peripheral/Source/gd32e23x_i2c.c:321:0
	.fnstart
	.cfi_startproc
@ %bb.0:
	.pad	#4
	sub	sp, #4
	.cfi_def_cfa_offset 4
	str	r0, [sp]
.Ltmp68:
	.loc	5 322 5 prologue_end            @ ../Firmware/GD32E23x_standard_peripheral/Source/gd32e23x_i2c.c:322:5
	ldr	r1, [sp]
	.loc	5 322 26 is_stmt 0              @ ../Firmware/GD32E23x_standard_peripheral/Source/gd32e23x_i2c.c:322:26
	ldr	r0, [r1]
	movw	r2, #256
	orrs	r0, r2
	str	r0, [r1]
	.loc	5 323 1 is_stmt 1               @ ../Firmware/GD32E23x_standard_peripheral/Source/gd32e23x_i2c.c:323:1
	add	sp, #4
	bx	lr
.Ltmp69:
.Lfunc_end11:
	.size	i2c_start_on_bus, .Lfunc_end11-i2c_start_on_bus
	.cfi_endproc
	.cantunwind
	.fnend
                                        @ -- End function
	.section	.text.i2c_stop_on_bus,"ax",%progbits
	.hidden	i2c_stop_on_bus                 @ -- Begin function i2c_stop_on_bus
	.globl	i2c_stop_on_bus
	.p2align	1
	.type	i2c_stop_on_bus,%function
	.code	16                              @ @i2c_stop_on_bus
	.thumb_func
i2c_stop_on_bus:
.Lfunc_begin12:
	.loc	5 332 0                         @ ../Firmware/GD32E23x_standard_peripheral/Source/gd32e23x_i2c.c:332:0
	.fnstart
	.cfi_startproc
@ %bb.0:
	.pad	#4
	sub	sp, #4
	.cfi_def_cfa_offset 4
	str	r0, [sp]
.Ltmp70:
	.loc	5 333 5 prologue_end            @ ../Firmware/GD32E23x_standard_peripheral/Source/gd32e23x_i2c.c:333:5
	ldr	r1, [sp]
	.loc	5 333 26 is_stmt 0              @ ../Firmware/GD32E23x_standard_peripheral/Source/gd32e23x_i2c.c:333:26
	ldr	r0, [r1]
	movw	r2, #512
	orrs	r0, r2
	str	r0, [r1]
	.loc	5 334 1 is_stmt 1               @ ../Firmware/GD32E23x_standard_peripheral/Source/gd32e23x_i2c.c:334:1
	add	sp, #4
	bx	lr
.Ltmp71:
.Lfunc_end12:
	.size	i2c_stop_on_bus, .Lfunc_end12-i2c_stop_on_bus
	.cfi_endproc
	.cantunwind
	.fnend
                                        @ -- End function
	.section	.text.i2c_data_transmit,"ax",%progbits
	.hidden	i2c_data_transmit               @ -- Begin function i2c_data_transmit
	.globl	i2c_data_transmit
	.p2align	1
	.type	i2c_data_transmit,%function
	.code	16                              @ @i2c_data_transmit
	.thumb_func
i2c_data_transmit:
.Lfunc_begin13:
	.loc	5 344 0                         @ ../Firmware/GD32E23x_standard_peripheral/Source/gd32e23x_i2c.c:344:0
	.fnstart
	.cfi_startproc
@ %bb.0:
	.pad	#8
	sub	sp, #8
	.cfi_def_cfa_offset 8
                                        @ kill: def $r2 killed $r1
	str	r0, [sp, #4]
	mov	r0, sp
	strb	r1, [r0]
.Ltmp72:
	.loc	5 345 28 prologue_end           @ ../Firmware/GD32E23x_standard_peripheral/Source/gd32e23x_i2c.c:345:28
	ldrb	r0, [r0]
	.loc	5 345 5 is_stmt 0               @ ../Firmware/GD32E23x_standard_peripheral/Source/gd32e23x_i2c.c:345:5
	ldr	r1, [sp, #4]
	.loc	5 345 26                        @ ../Firmware/GD32E23x_standard_peripheral/Source/gd32e23x_i2c.c:345:26
	str	r0, [r1, #16]
	.loc	5 346 1 is_stmt 1               @ ../Firmware/GD32E23x_standard_peripheral/Source/gd32e23x_i2c.c:346:1
	add	sp, #8
	bx	lr
.Ltmp73:
.Lfunc_end13:
	.size	i2c_data_transmit, .Lfunc_end13-i2c_data_transmit
	.cfi_endproc
	.cantunwind
	.fnend
                                        @ -- End function
	.section	.text.i2c_data_receive,"ax",%progbits
	.hidden	i2c_data_receive                @ -- Begin function i2c_data_receive
	.globl	i2c_data_receive
	.p2align	1
	.type	i2c_data_receive,%function
	.code	16                              @ @i2c_data_receive
	.thumb_func
i2c_data_receive:
.Lfunc_begin14:
	.loc	5 355 0                         @ ../Firmware/GD32E23x_standard_peripheral/Source/gd32e23x_i2c.c:355:0
	.fnstart
	.cfi_startproc
@ %bb.0:
	.pad	#4
	sub	sp, #4
	.cfi_def_cfa_offset 4
	str	r0, [sp]
.Ltmp74:
	.loc	5 356 21 prologue_end           @ ../Firmware/GD32E23x_standard_peripheral/Source/gd32e23x_i2c.c:356:21
	ldr	r0, [sp]
	ldr	r0, [r0, #16]
	uxtb	r0, r0
	.loc	5 356 5 is_stmt 0               @ ../Firmware/GD32E23x_standard_peripheral/Source/gd32e23x_i2c.c:356:5
	add	sp, #4
	bx	lr
.Ltmp75:
.Lfunc_end14:
	.size	i2c_data_receive, .Lfunc_end14-i2c_data_receive
	.cfi_endproc
	.cantunwind
	.fnend
                                        @ -- End function
	.section	.text.i2c_dma_config,"ax",%progbits
	.hidden	i2c_dma_config                  @ -- Begin function i2c_dma_config
	.globl	i2c_dma_config
	.p2align	1
	.type	i2c_dma_config,%function
	.code	16                              @ @i2c_dma_config
	.thumb_func
i2c_dma_config:
.Lfunc_begin15:
	.loc	5 370 0 is_stmt 1               @ ../Firmware/GD32E23x_standard_peripheral/Source/gd32e23x_i2c.c:370:0
	.fnstart
	.cfi_startproc
@ %bb.0:
	.pad	#12
	sub	sp, #12
	.cfi_def_cfa_offset 12
	str	r0, [sp, #8]
	str	r1, [sp, #4]
	movs	r0, #0
.Ltmp76:
	.loc	5 372 14 prologue_end           @ ../Firmware/GD32E23x_standard_peripheral/Source/gd32e23x_i2c.c:372:14
	str	r0, [sp]
	.loc	5 374 11                        @ ../Firmware/GD32E23x_standard_peripheral/Source/gd32e23x_i2c.c:374:11
	ldr	r0, [sp, #8]
	ldr	r0, [r0, #4]
	.loc	5 374 9 is_stmt 0               @ ../Firmware/GD32E23x_standard_peripheral/Source/gd32e23x_i2c.c:374:9
	str	r0, [sp]
	.loc	5 375 9 is_stmt 1               @ ../Firmware/GD32E23x_standard_peripheral/Source/gd32e23x_i2c.c:375:9
	ldr	r0, [sp]
	movw	r1, #2048
	bics	r0, r1
	str	r0, [sp]
	.loc	5 376 12                        @ ../Firmware/GD32E23x_standard_peripheral/Source/gd32e23x_i2c.c:376:12
	ldr	r1, [sp, #4]
	.loc	5 376 9 is_stmt 0               @ ../Firmware/GD32E23x_standard_peripheral/Source/gd32e23x_i2c.c:376:9
	ldr	r0, [sp]
	orrs	r0, r1
	str	r0, [sp]
	.loc	5 377 28 is_stmt 1              @ ../Firmware/GD32E23x_standard_peripheral/Source/gd32e23x_i2c.c:377:28
	ldr	r0, [sp]
	.loc	5 377 5 is_stmt 0               @ ../Firmware/GD32E23x_standard_peripheral/Source/gd32e23x_i2c.c:377:5
	ldr	r1, [sp, #8]
	.loc	5 377 26                        @ ../Firmware/GD32E23x_standard_peripheral/Source/gd32e23x_i2c.c:377:26
	str	r0, [r1, #4]
	.loc	5 378 1 is_stmt 1               @ ../Firmware/GD32E23x_standard_peripheral/Source/gd32e23x_i2c.c:378:1
	add	sp, #12
	bx	lr
.Ltmp77:
.Lfunc_end15:
	.size	i2c_dma_config, .Lfunc_end15-i2c_dma_config
	.cfi_endproc
	.cantunwind
	.fnend
                                        @ -- End function
	.section	.text.i2c_dma_last_transfer_config,"ax",%progbits
	.hidden	i2c_dma_last_transfer_config    @ -- Begin function i2c_dma_last_transfer_config
	.globl	i2c_dma_last_transfer_config
	.p2align	1
	.type	i2c_dma_last_transfer_config,%function
	.code	16                              @ @i2c_dma_last_transfer_config
	.thumb_func
i2c_dma_last_transfer_config:
.Lfunc_begin16:
	.loc	5 391 0                         @ ../Firmware/GD32E23x_standard_peripheral/Source/gd32e23x_i2c.c:391:0
	.fnstart
	.cfi_startproc
@ %bb.0:
	.pad	#12
	sub	sp, #12
	.cfi_def_cfa_offset 12
	str	r0, [sp, #8]
	str	r1, [sp, #4]
	movs	r0, #0
.Ltmp78:
	.loc	5 393 14 prologue_end           @ ../Firmware/GD32E23x_standard_peripheral/Source/gd32e23x_i2c.c:393:14
	str	r0, [sp]
	.loc	5 395 11                        @ ../Firmware/GD32E23x_standard_peripheral/Source/gd32e23x_i2c.c:395:11
	ldr	r0, [sp, #8]
	ldr	r0, [r0, #4]
	.loc	5 395 9 is_stmt 0               @ ../Firmware/GD32E23x_standard_peripheral/Source/gd32e23x_i2c.c:395:9
	str	r0, [sp]
	.loc	5 396 9 is_stmt 1               @ ../Firmware/GD32E23x_standard_peripheral/Source/gd32e23x_i2c.c:396:9
	ldr	r0, [sp]
	movw	r1, #4096
	bics	r0, r1
	str	r0, [sp]
	.loc	5 397 12                        @ ../Firmware/GD32E23x_standard_peripheral/Source/gd32e23x_i2c.c:397:12
	ldr	r1, [sp, #4]
	.loc	5 397 9 is_stmt 0               @ ../Firmware/GD32E23x_standard_peripheral/Source/gd32e23x_i2c.c:397:9
	ldr	r0, [sp]
	orrs	r0, r1
	str	r0, [sp]
	.loc	5 398 28 is_stmt 1              @ ../Firmware/GD32E23x_standard_peripheral/Source/gd32e23x_i2c.c:398:28
	ldr	r0, [sp]
	.loc	5 398 5 is_stmt 0               @ ../Firmware/GD32E23x_standard_peripheral/Source/gd32e23x_i2c.c:398:5
	ldr	r1, [sp, #8]
	.loc	5 398 26                        @ ../Firmware/GD32E23x_standard_peripheral/Source/gd32e23x_i2c.c:398:26
	str	r0, [r1, #4]
	.loc	5 399 1 is_stmt 1               @ ../Firmware/GD32E23x_standard_peripheral/Source/gd32e23x_i2c.c:399:1
	add	sp, #12
	bx	lr
.Ltmp79:
.Lfunc_end16:
	.size	i2c_dma_last_transfer_config, .Lfunc_end16-i2c_dma_last_transfer_config
	.cfi_endproc
	.cantunwind
	.fnend
                                        @ -- End function
	.section	.text.i2c_stretch_scl_low_config,"ax",%progbits
	.hidden	i2c_stretch_scl_low_config      @ -- Begin function i2c_stretch_scl_low_config
	.globl	i2c_stretch_scl_low_config
	.p2align	1
	.type	i2c_stretch_scl_low_config,%function
	.code	16                              @ @i2c_stretch_scl_low_config
	.thumb_func
i2c_stretch_scl_low_config:
.Lfunc_begin17:
	.loc	5 412 0                         @ ../Firmware/GD32E23x_standard_peripheral/Source/gd32e23x_i2c.c:412:0
	.fnstart
	.cfi_startproc
@ %bb.0:
	.pad	#12
	sub	sp, #12
	.cfi_def_cfa_offset 12
	str	r0, [sp, #8]
	str	r1, [sp, #4]
	movs	r0, #0
.Ltmp80:
	.loc	5 414 14 prologue_end           @ ../Firmware/GD32E23x_standard_peripheral/Source/gd32e23x_i2c.c:414:14
	str	r0, [sp]
	.loc	5 416 11                        @ ../Firmware/GD32E23x_standard_peripheral/Source/gd32e23x_i2c.c:416:11
	ldr	r0, [sp, #8]
	ldr	r0, [r0]
	.loc	5 416 9 is_stmt 0               @ ../Firmware/GD32E23x_standard_peripheral/Source/gd32e23x_i2c.c:416:9
	str	r0, [sp]
	.loc	5 417 9 is_stmt 1               @ ../Firmware/GD32E23x_standard_peripheral/Source/gd32e23x_i2c.c:417:9
	ldr	r0, [sp]
	movs	r1, #128
	bics	r0, r1
	str	r0, [sp]
	.loc	5 418 12                        @ ../Firmware/GD32E23x_standard_peripheral/Source/gd32e23x_i2c.c:418:12
	ldr	r1, [sp, #4]
	.loc	5 418 9 is_stmt 0               @ ../Firmware/GD32E23x_standard_peripheral/Source/gd32e23x_i2c.c:418:9
	ldr	r0, [sp]
	orrs	r0, r1
	str	r0, [sp]
	.loc	5 419 28 is_stmt 1              @ ../Firmware/GD32E23x_standard_peripheral/Source/gd32e23x_i2c.c:419:28
	ldr	r0, [sp]
	.loc	5 419 5 is_stmt 0               @ ../Firmware/GD32E23x_standard_peripheral/Source/gd32e23x_i2c.c:419:5
	ldr	r1, [sp, #8]
	.loc	5 419 26                        @ ../Firmware/GD32E23x_standard_peripheral/Source/gd32e23x_i2c.c:419:26
	str	r0, [r1]
	.loc	5 420 1 is_stmt 1               @ ../Firmware/GD32E23x_standard_peripheral/Source/gd32e23x_i2c.c:420:1
	add	sp, #12
	bx	lr
.Ltmp81:
.Lfunc_end17:
	.size	i2c_stretch_scl_low_config, .Lfunc_end17-i2c_stretch_scl_low_config
	.cfi_endproc
	.cantunwind
	.fnend
                                        @ -- End function
	.section	.text.i2c_slave_response_to_gcall_config,"ax",%progbits
	.hidden	i2c_slave_response_to_gcall_config @ -- Begin function i2c_slave_response_to_gcall_config
	.globl	i2c_slave_response_to_gcall_config
	.p2align	1
	.type	i2c_slave_response_to_gcall_config,%function
	.code	16                              @ @i2c_slave_response_to_gcall_config
	.thumb_func
i2c_slave_response_to_gcall_config:
.Lfunc_begin18:
	.loc	5 433 0                         @ ../Firmware/GD32E23x_standard_peripheral/Source/gd32e23x_i2c.c:433:0
	.fnstart
	.cfi_startproc
@ %bb.0:
	.pad	#12
	sub	sp, #12
	.cfi_def_cfa_offset 12
	str	r0, [sp, #8]
	str	r1, [sp, #4]
	movs	r0, #0
.Ltmp82:
	.loc	5 435 14 prologue_end           @ ../Firmware/GD32E23x_standard_peripheral/Source/gd32e23x_i2c.c:435:14
	str	r0, [sp]
	.loc	5 437 11                        @ ../Firmware/GD32E23x_standard_peripheral/Source/gd32e23x_i2c.c:437:11
	ldr	r0, [sp, #8]
	ldr	r0, [r0]
	.loc	5 437 9 is_stmt 0               @ ../Firmware/GD32E23x_standard_peripheral/Source/gd32e23x_i2c.c:437:9
	str	r0, [sp]
	.loc	5 438 9 is_stmt 1               @ ../Firmware/GD32E23x_standard_peripheral/Source/gd32e23x_i2c.c:438:9
	ldr	r0, [sp]
	movs	r1, #64
	bics	r0, r1
	str	r0, [sp]
	.loc	5 439 12                        @ ../Firmware/GD32E23x_standard_peripheral/Source/gd32e23x_i2c.c:439:12
	ldr	r1, [sp, #4]
	.loc	5 439 9 is_stmt 0               @ ../Firmware/GD32E23x_standard_peripheral/Source/gd32e23x_i2c.c:439:9
	ldr	r0, [sp]
	orrs	r0, r1
	str	r0, [sp]
	.loc	5 440 28 is_stmt 1              @ ../Firmware/GD32E23x_standard_peripheral/Source/gd32e23x_i2c.c:440:28
	ldr	r0, [sp]
	.loc	5 440 5 is_stmt 0               @ ../Firmware/GD32E23x_standard_peripheral/Source/gd32e23x_i2c.c:440:5
	ldr	r1, [sp, #8]
	.loc	5 440 26                        @ ../Firmware/GD32E23x_standard_peripheral/Source/gd32e23x_i2c.c:440:26
	str	r0, [r1]
	.loc	5 441 1 is_stmt 1               @ ../Firmware/GD32E23x_standard_peripheral/Source/gd32e23x_i2c.c:441:1
	add	sp, #12
	bx	lr
.Ltmp83:
.Lfunc_end18:
	.size	i2c_slave_response_to_gcall_config, .Lfunc_end18-i2c_slave_response_to_gcall_config
	.cfi_endproc
	.cantunwind
	.fnend
                                        @ -- End function
	.section	.text.i2c_software_reset_config,"ax",%progbits
	.hidden	i2c_software_reset_config       @ -- Begin function i2c_software_reset_config
	.globl	i2c_software_reset_config
	.p2align	1
	.type	i2c_software_reset_config,%function
	.code	16                              @ @i2c_software_reset_config
	.thumb_func
i2c_software_reset_config:
.Lfunc_begin19:
	.loc	5 454 0                         @ ../Firmware/GD32E23x_standard_peripheral/Source/gd32e23x_i2c.c:454:0
	.fnstart
	.cfi_startproc
@ %bb.0:
	.pad	#12
	sub	sp, #12
	.cfi_def_cfa_offset 12
	str	r0, [sp, #8]
	str	r1, [sp, #4]
	movs	r0, #0
.Ltmp84:
	.loc	5 456 14 prologue_end           @ ../Firmware/GD32E23x_standard_peripheral/Source/gd32e23x_i2c.c:456:14
	str	r0, [sp]
	.loc	5 458 11                        @ ../Firmware/GD32E23x_standard_peripheral/Source/gd32e23x_i2c.c:458:11
	ldr	r0, [sp, #8]
	ldr	r0, [r0]
	.loc	5 458 9 is_stmt 0               @ ../Firmware/GD32E23x_standard_peripheral/Source/gd32e23x_i2c.c:458:9
	str	r0, [sp]
	.loc	5 459 9 is_stmt 1               @ ../Firmware/GD32E23x_standard_peripheral/Source/gd32e23x_i2c.c:459:9
	ldr	r0, [sp]
	movw	r1, #32768
	bics	r0, r1
	str	r0, [sp]
	.loc	5 460 12                        @ ../Firmware/GD32E23x_standard_peripheral/Source/gd32e23x_i2c.c:460:12
	ldr	r1, [sp, #4]
	.loc	5 460 9 is_stmt 0               @ ../Firmware/GD32E23x_standard_peripheral/Source/gd32e23x_i2c.c:460:9
	ldr	r0, [sp]
	orrs	r0, r1
	str	r0, [sp]
	.loc	5 461 28 is_stmt 1              @ ../Firmware/GD32E23x_standard_peripheral/Source/gd32e23x_i2c.c:461:28
	ldr	r0, [sp]
	.loc	5 461 5 is_stmt 0               @ ../Firmware/GD32E23x_standard_peripheral/Source/gd32e23x_i2c.c:461:5
	ldr	r1, [sp, #8]
	.loc	5 461 26                        @ ../Firmware/GD32E23x_standard_peripheral/Source/gd32e23x_i2c.c:461:26
	str	r0, [r1]
	.loc	5 462 1 is_stmt 1               @ ../Firmware/GD32E23x_standard_peripheral/Source/gd32e23x_i2c.c:462:1
	add	sp, #12
	bx	lr
.Ltmp85:
.Lfunc_end19:
	.size	i2c_software_reset_config, .Lfunc_end19-i2c_software_reset_config
	.cfi_endproc
	.cantunwind
	.fnend
                                        @ -- End function
	.section	.text.i2c_pec_config,"ax",%progbits
	.hidden	i2c_pec_config                  @ -- Begin function i2c_pec_config
	.globl	i2c_pec_config
	.p2align	1
	.type	i2c_pec_config,%function
	.code	16                              @ @i2c_pec_config
	.thumb_func
i2c_pec_config:
.Lfunc_begin20:
	.loc	5 475 0                         @ ../Firmware/GD32E23x_standard_peripheral/Source/gd32e23x_i2c.c:475:0
	.fnstart
	.cfi_startproc
@ %bb.0:
	.pad	#12
	sub	sp, #12
	.cfi_def_cfa_offset 12
	str	r0, [sp, #8]
	str	r1, [sp, #4]
	movs	r0, #0
.Ltmp86:
	.loc	5 477 14 prologue_end           @ ../Firmware/GD32E23x_standard_peripheral/Source/gd32e23x_i2c.c:477:14
	str	r0, [sp]
	.loc	5 479 11                        @ ../Firmware/GD32E23x_standard_peripheral/Source/gd32e23x_i2c.c:479:11
	ldr	r0, [sp, #8]
	ldr	r0, [r0]
	.loc	5 479 9 is_stmt 0               @ ../Firmware/GD32E23x_standard_peripheral/Source/gd32e23x_i2c.c:479:9
	str	r0, [sp]
	.loc	5 480 9 is_stmt 1               @ ../Firmware/GD32E23x_standard_peripheral/Source/gd32e23x_i2c.c:480:9
	ldr	r0, [sp]
	movs	r1, #32
	bics	r0, r1
	str	r0, [sp]
	.loc	5 481 12                        @ ../Firmware/GD32E23x_standard_peripheral/Source/gd32e23x_i2c.c:481:12
	ldr	r1, [sp, #4]
	.loc	5 481 9 is_stmt 0               @ ../Firmware/GD32E23x_standard_peripheral/Source/gd32e23x_i2c.c:481:9
	ldr	r0, [sp]
	orrs	r0, r1
	str	r0, [sp]
	.loc	5 482 28 is_stmt 1              @ ../Firmware/GD32E23x_standard_peripheral/Source/gd32e23x_i2c.c:482:28
	ldr	r0, [sp]
	.loc	5 482 5 is_stmt 0               @ ../Firmware/GD32E23x_standard_peripheral/Source/gd32e23x_i2c.c:482:5
	ldr	r1, [sp, #8]
	.loc	5 482 26                        @ ../Firmware/GD32E23x_standard_peripheral/Source/gd32e23x_i2c.c:482:26
	str	r0, [r1]
	.loc	5 483 1 is_stmt 1               @ ../Firmware/GD32E23x_standard_peripheral/Source/gd32e23x_i2c.c:483:1
	add	sp, #12
	bx	lr
.Ltmp87:
.Lfunc_end20:
	.size	i2c_pec_config, .Lfunc_end20-i2c_pec_config
	.cfi_endproc
	.cantunwind
	.fnend
                                        @ -- End function
	.section	.text.i2c_pec_transfer_config,"ax",%progbits
	.hidden	i2c_pec_transfer_config         @ -- Begin function i2c_pec_transfer_config
	.globl	i2c_pec_transfer_config
	.p2align	1
	.type	i2c_pec_transfer_config,%function
	.code	16                              @ @i2c_pec_transfer_config
	.thumb_func
i2c_pec_transfer_config:
.Lfunc_begin21:
	.loc	5 496 0                         @ ../Firmware/GD32E23x_standard_peripheral/Source/gd32e23x_i2c.c:496:0
	.fnstart
	.cfi_startproc
@ %bb.0:
	.pad	#12
	sub	sp, #12
	.cfi_def_cfa_offset 12
	str	r0, [sp, #8]
	str	r1, [sp, #4]
	movs	r0, #0
.Ltmp88:
	.loc	5 498 14 prologue_end           @ ../Firmware/GD32E23x_standard_peripheral/Source/gd32e23x_i2c.c:498:14
	str	r0, [sp]
	.loc	5 500 11                        @ ../Firmware/GD32E23x_standard_peripheral/Source/gd32e23x_i2c.c:500:11
	ldr	r0, [sp, #8]
	ldr	r0, [r0]
	.loc	5 500 9 is_stmt 0               @ ../Firmware/GD32E23x_standard_peripheral/Source/gd32e23x_i2c.c:500:9
	str	r0, [sp]
	.loc	5 501 9 is_stmt 1               @ ../Firmware/GD32E23x_standard_peripheral/Source/gd32e23x_i2c.c:501:9
	ldr	r0, [sp]
	movw	r1, #4096
	bics	r0, r1
	str	r0, [sp]
	.loc	5 502 12                        @ ../Firmware/GD32E23x_standard_peripheral/Source/gd32e23x_i2c.c:502:12
	ldr	r1, [sp, #4]
	.loc	5 502 9 is_stmt 0               @ ../Firmware/GD32E23x_standard_peripheral/Source/gd32e23x_i2c.c:502:9
	ldr	r0, [sp]
	orrs	r0, r1
	str	r0, [sp]
	.loc	5 503 28 is_stmt 1              @ ../Firmware/GD32E23x_standard_peripheral/Source/gd32e23x_i2c.c:503:28
	ldr	r0, [sp]
	.loc	5 503 5 is_stmt 0               @ ../Firmware/GD32E23x_standard_peripheral/Source/gd32e23x_i2c.c:503:5
	ldr	r1, [sp, #8]
	.loc	5 503 26                        @ ../Firmware/GD32E23x_standard_peripheral/Source/gd32e23x_i2c.c:503:26
	str	r0, [r1]
	.loc	5 504 1 is_stmt 1               @ ../Firmware/GD32E23x_standard_peripheral/Source/gd32e23x_i2c.c:504:1
	add	sp, #12
	bx	lr
.Ltmp89:
.Lfunc_end21:
	.size	i2c_pec_transfer_config, .Lfunc_end21-i2c_pec_transfer_config
	.cfi_endproc
	.cantunwind
	.fnend
                                        @ -- End function
	.section	.text.i2c_pec_value_get,"ax",%progbits
	.hidden	i2c_pec_value_get               @ -- Begin function i2c_pec_value_get
	.globl	i2c_pec_value_get
	.p2align	1
	.type	i2c_pec_value_get,%function
	.code	16                              @ @i2c_pec_value_get
	.thumb_func
i2c_pec_value_get:
.Lfunc_begin22:
	.loc	5 513 0                         @ ../Firmware/GD32E23x_standard_peripheral/Source/gd32e23x_i2c.c:513:0
	.fnstart
	.cfi_startproc
@ %bb.0:
	.pad	#4
	sub	sp, #4
	.cfi_def_cfa_offset 4
	str	r0, [sp]
.Ltmp90:
	.loc	5 514 23 prologue_end           @ ../Firmware/GD32E23x_standard_peripheral/Source/gd32e23x_i2c.c:514:23
	ldr	r0, [sp]
	ldr	r0, [r0, #24]
	.loc	5 514 45 is_stmt 0              @ ../Firmware/GD32E23x_standard_peripheral/Source/gd32e23x_i2c.c:514:45
	uxth	r0, r0
	.loc	5 514 63                        @ ../Firmware/GD32E23x_standard_peripheral/Source/gd32e23x_i2c.c:514:63
	lsrs	r0, r0, #8
	.loc	5 514 5                         @ ../Firmware/GD32E23x_standard_peripheral/Source/gd32e23x_i2c.c:514:5
	add	sp, #4
	bx	lr
.Ltmp91:
.Lfunc_end22:
	.size	i2c_pec_value_get, .Lfunc_end22-i2c_pec_value_get
	.cfi_endproc
	.cantunwind
	.fnend
                                        @ -- End function
	.section	.text.i2c_smbus_alert_config,"ax",%progbits
	.hidden	i2c_smbus_alert_config          @ -- Begin function i2c_smbus_alert_config
	.globl	i2c_smbus_alert_config
	.p2align	1
	.type	i2c_smbus_alert_config,%function
	.code	16                              @ @i2c_smbus_alert_config
	.thumb_func
i2c_smbus_alert_config:
.Lfunc_begin23:
	.loc	5 528 0 is_stmt 1               @ ../Firmware/GD32E23x_standard_peripheral/Source/gd32e23x_i2c.c:528:0
	.fnstart
	.cfi_startproc
@ %bb.0:
	.pad	#12
	sub	sp, #12
	.cfi_def_cfa_offset 12
	str	r0, [sp, #8]
	str	r1, [sp, #4]
	movs	r0, #0
.Ltmp92:
	.loc	5 530 14 prologue_end           @ ../Firmware/GD32E23x_standard_peripheral/Source/gd32e23x_i2c.c:530:14
	str	r0, [sp]
	.loc	5 532 11                        @ ../Firmware/GD32E23x_standard_peripheral/Source/gd32e23x_i2c.c:532:11
	ldr	r0, [sp, #8]
	ldr	r0, [r0]
	.loc	5 532 9 is_stmt 0               @ ../Firmware/GD32E23x_standard_peripheral/Source/gd32e23x_i2c.c:532:9
	str	r0, [sp]
	.loc	5 533 9 is_stmt 1               @ ../Firmware/GD32E23x_standard_peripheral/Source/gd32e23x_i2c.c:533:9
	ldr	r0, [sp]
	movw	r1, #8192
	bics	r0, r1
	str	r0, [sp]
	.loc	5 534 12                        @ ../Firmware/GD32E23x_standard_peripheral/Source/gd32e23x_i2c.c:534:12
	ldr	r1, [sp, #4]
	.loc	5 534 9 is_stmt 0               @ ../Firmware/GD32E23x_standard_peripheral/Source/gd32e23x_i2c.c:534:9
	ldr	r0, [sp]
	orrs	r0, r1
	str	r0, [sp]
	.loc	5 535 28 is_stmt 1              @ ../Firmware/GD32E23x_standard_peripheral/Source/gd32e23x_i2c.c:535:28
	ldr	r0, [sp]
	.loc	5 535 5 is_stmt 0               @ ../Firmware/GD32E23x_standard_peripheral/Source/gd32e23x_i2c.c:535:5
	ldr	r1, [sp, #8]
	.loc	5 535 26                        @ ../Firmware/GD32E23x_standard_peripheral/Source/gd32e23x_i2c.c:535:26
	str	r0, [r1]
	.loc	5 536 1 is_stmt 1               @ ../Firmware/GD32E23x_standard_peripheral/Source/gd32e23x_i2c.c:536:1
	add	sp, #12
	bx	lr
.Ltmp93:
.Lfunc_end23:
	.size	i2c_smbus_alert_config, .Lfunc_end23-i2c_smbus_alert_config
	.cfi_endproc
	.cantunwind
	.fnend
                                        @ -- End function
	.section	.text.i2c_smbus_arp_config,"ax",%progbits
	.hidden	i2c_smbus_arp_config            @ -- Begin function i2c_smbus_arp_config
	.globl	i2c_smbus_arp_config
	.p2align	1
	.type	i2c_smbus_arp_config,%function
	.code	16                              @ @i2c_smbus_arp_config
	.thumb_func
i2c_smbus_arp_config:
.Lfunc_begin24:
	.loc	5 549 0                         @ ../Firmware/GD32E23x_standard_peripheral/Source/gd32e23x_i2c.c:549:0
	.fnstart
	.cfi_startproc
@ %bb.0:
	.pad	#12
	sub	sp, #12
	.cfi_def_cfa_offset 12
	str	r0, [sp, #8]
	str	r1, [sp, #4]
	movs	r0, #0
.Ltmp94:
	.loc	5 551 14 prologue_end           @ ../Firmware/GD32E23x_standard_peripheral/Source/gd32e23x_i2c.c:551:14
	str	r0, [sp]
	.loc	5 553 11                        @ ../Firmware/GD32E23x_standard_peripheral/Source/gd32e23x_i2c.c:553:11
	ldr	r0, [sp, #8]
	ldr	r0, [r0]
	.loc	5 553 9 is_stmt 0               @ ../Firmware/GD32E23x_standard_peripheral/Source/gd32e23x_i2c.c:553:9
	str	r0, [sp]
	.loc	5 554 9 is_stmt 1               @ ../Firmware/GD32E23x_standard_peripheral/Source/gd32e23x_i2c.c:554:9
	ldr	r0, [sp]
	movs	r1, #16
	bics	r0, r1
	str	r0, [sp]
	.loc	5 555 12                        @ ../Firmware/GD32E23x_standard_peripheral/Source/gd32e23x_i2c.c:555:12
	ldr	r1, [sp, #4]
	.loc	5 555 9 is_stmt 0               @ ../Firmware/GD32E23x_standard_peripheral/Source/gd32e23x_i2c.c:555:9
	ldr	r0, [sp]
	orrs	r0, r1
	str	r0, [sp]
	.loc	5 556 28 is_stmt 1              @ ../Firmware/GD32E23x_standard_peripheral/Source/gd32e23x_i2c.c:556:28
	ldr	r0, [sp]
	.loc	5 556 5 is_stmt 0               @ ../Firmware/GD32E23x_standard_peripheral/Source/gd32e23x_i2c.c:556:5
	ldr	r1, [sp, #8]
	.loc	5 556 26                        @ ../Firmware/GD32E23x_standard_peripheral/Source/gd32e23x_i2c.c:556:26
	str	r0, [r1]
	.loc	5 557 1 is_stmt 1               @ ../Firmware/GD32E23x_standard_peripheral/Source/gd32e23x_i2c.c:557:1
	add	sp, #12
	bx	lr
.Ltmp95:
.Lfunc_end24:
	.size	i2c_smbus_arp_config, .Lfunc_end24-i2c_smbus_arp_config
	.cfi_endproc
	.cantunwind
	.fnend
                                        @ -- End function
	.section	.text.i2c_sam_enable,"ax",%progbits
	.hidden	i2c_sam_enable                  @ -- Begin function i2c_sam_enable
	.globl	i2c_sam_enable
	.p2align	1
	.type	i2c_sam_enable,%function
	.code	16                              @ @i2c_sam_enable
	.thumb_func
i2c_sam_enable:
.Lfunc_begin25:
	.loc	5 566 0                         @ ../Firmware/GD32E23x_standard_peripheral/Source/gd32e23x_i2c.c:566:0
	.fnstart
	.cfi_startproc
@ %bb.0:
	.pad	#4
	sub	sp, #4
	.cfi_def_cfa_offset 4
	str	r0, [sp]
.Ltmp96:
	.loc	5 567 5 prologue_end            @ ../Firmware/GD32E23x_standard_peripheral/Source/gd32e23x_i2c.c:567:5
	ldr	r1, [sp]
	movs	r2, #128
	.loc	5 567 27 is_stmt 0              @ ../Firmware/GD32E23x_standard_peripheral/Source/gd32e23x_i2c.c:567:27
	ldr	r0, [r1, r2]
	movs	r3, #1
	orrs	r0, r3
	str	r0, [r1, r2]
	.loc	5 568 1 is_stmt 1               @ ../Firmware/GD32E23x_standard_peripheral/Source/gd32e23x_i2c.c:568:1
	add	sp, #4
	bx	lr
.Ltmp97:
.Lfunc_end25:
	.size	i2c_sam_enable, .Lfunc_end25-i2c_sam_enable
	.cfi_endproc
	.cantunwind
	.fnend
                                        @ -- End function
	.section	.text.i2c_sam_disable,"ax",%progbits
	.hidden	i2c_sam_disable                 @ -- Begin function i2c_sam_disable
	.globl	i2c_sam_disable
	.p2align	1
	.type	i2c_sam_disable,%function
	.code	16                              @ @i2c_sam_disable
	.thumb_func
i2c_sam_disable:
.Lfunc_begin26:
	.loc	5 577 0                         @ ../Firmware/GD32E23x_standard_peripheral/Source/gd32e23x_i2c.c:577:0
	.fnstart
	.cfi_startproc
@ %bb.0:
	.pad	#4
	sub	sp, #4
	.cfi_def_cfa_offset 4
	str	r0, [sp]
.Ltmp98:
	.loc	5 578 5 prologue_end            @ ../Firmware/GD32E23x_standard_peripheral/Source/gd32e23x_i2c.c:578:5
	ldr	r1, [sp]
	movs	r2, #128
	.loc	5 578 27 is_stmt 0              @ ../Firmware/GD32E23x_standard_peripheral/Source/gd32e23x_i2c.c:578:27
	ldr	r0, [r1, r2]
	movs	r3, #1
	bics	r0, r3
	str	r0, [r1, r2]
	.loc	5 579 1 is_stmt 1               @ ../Firmware/GD32E23x_standard_peripheral/Source/gd32e23x_i2c.c:579:1
	add	sp, #4
	bx	lr
.Ltmp99:
.Lfunc_end26:
	.size	i2c_sam_disable, .Lfunc_end26-i2c_sam_disable
	.cfi_endproc
	.cantunwind
	.fnend
                                        @ -- End function
	.section	.text.i2c_sam_timeout_enable,"ax",%progbits
	.hidden	i2c_sam_timeout_enable          @ -- Begin function i2c_sam_timeout_enable
	.globl	i2c_sam_timeout_enable
	.p2align	1
	.type	i2c_sam_timeout_enable,%function
	.code	16                              @ @i2c_sam_timeout_enable
	.thumb_func
i2c_sam_timeout_enable:
.Lfunc_begin27:
	.loc	5 588 0                         @ ../Firmware/GD32E23x_standard_peripheral/Source/gd32e23x_i2c.c:588:0
	.fnstart
	.cfi_startproc
@ %bb.0:
	.pad	#4
	sub	sp, #4
	.cfi_def_cfa_offset 4
	str	r0, [sp]
.Ltmp100:
	.loc	5 589 5 prologue_end            @ ../Firmware/GD32E23x_standard_peripheral/Source/gd32e23x_i2c.c:589:5
	ldr	r1, [sp]
	movs	r2, #128
	.loc	5 589 27 is_stmt 0              @ ../Firmware/GD32E23x_standard_peripheral/Source/gd32e23x_i2c.c:589:27
	ldr	r0, [r1, r2]
	movs	r3, #2
	orrs	r0, r3
	str	r0, [r1, r2]
	.loc	5 590 1 is_stmt 1               @ ../Firmware/GD32E23x_standard_peripheral/Source/gd32e23x_i2c.c:590:1
	add	sp, #4
	bx	lr
.Ltmp101:
.Lfunc_end27:
	.size	i2c_sam_timeout_enable, .Lfunc_end27-i2c_sam_timeout_enable
	.cfi_endproc
	.cantunwind
	.fnend
                                        @ -- End function
	.section	.text.i2c_sam_timeout_disable,"ax",%progbits
	.hidden	i2c_sam_timeout_disable         @ -- Begin function i2c_sam_timeout_disable
	.globl	i2c_sam_timeout_disable
	.p2align	1
	.type	i2c_sam_timeout_disable,%function
	.code	16                              @ @i2c_sam_timeout_disable
	.thumb_func
i2c_sam_timeout_disable:
.Lfunc_begin28:
	.loc	5 599 0                         @ ../Firmware/GD32E23x_standard_peripheral/Source/gd32e23x_i2c.c:599:0
	.fnstart
	.cfi_startproc
@ %bb.0:
	.pad	#4
	sub	sp, #4
	.cfi_def_cfa_offset 4
	str	r0, [sp]
.Ltmp102:
	.loc	5 600 5 prologue_end            @ ../Firmware/GD32E23x_standard_peripheral/Source/gd32e23x_i2c.c:600:5
	ldr	r1, [sp]
	movs	r2, #128
	.loc	5 600 27 is_stmt 0              @ ../Firmware/GD32E23x_standard_peripheral/Source/gd32e23x_i2c.c:600:27
	ldr	r0, [r1, r2]
	movs	r3, #2
	bics	r0, r3
	str	r0, [r1, r2]
	.loc	5 601 1 is_stmt 1               @ ../Firmware/GD32E23x_standard_peripheral/Source/gd32e23x_i2c.c:601:1
	add	sp, #4
	bx	lr
.Ltmp103:
.Lfunc_end28:
	.size	i2c_sam_timeout_disable, .Lfunc_end28-i2c_sam_timeout_disable
	.cfi_endproc
	.cantunwind
	.fnend
                                        @ -- End function
	.section	.text.i2c_flag_get,"ax",%progbits
	.hidden	i2c_flag_get                    @ -- Begin function i2c_flag_get
	.globl	i2c_flag_get
	.p2align	1
	.type	i2c_flag_get,%function
	.code	16                              @ @i2c_flag_get
	.thumb_func
i2c_flag_get:
.Lfunc_begin29:
	.loc	5 637 0                         @ ../Firmware/GD32E23x_standard_peripheral/Source/gd32e23x_i2c.c:637:0
	.fnstart
	.cfi_startproc
@ %bb.0:
	.pad	#16
	sub	sp, #16
	.cfi_def_cfa_offset 16
	str	r1, [sp]                        @ 4-byte Spill
	mov	r1, r0
	ldr	r0, [sp]                        @ 4-byte Reload
                                        @ kill: def $r2 killed $r0
	str	r1, [sp, #8]
	add	r1, sp, #4
	strh	r0, [r1]
.Ltmp104:
	.loc	5 638 18 prologue_end           @ ../Firmware/GD32E23x_standard_peripheral/Source/gd32e23x_i2c.c:638:18
	ldr	r0, [sp, #8]
	ldrh	r2, [r1]
	lsrs	r2, r2, #6
	ldr	r0, [r0, r2]
	.loc	5 638 50 is_stmt 0              @ ../Firmware/GD32E23x_standard_peripheral/Source/gd32e23x_i2c.c:638:50
	ldrh	r1, [r1]
	movs	r2, #31
	ands	r1, r2
.Ltmp105:
	.loc	5 638 8                         @ ../Firmware/GD32E23x_standard_peripheral/Source/gd32e23x_i2c.c:638:8
	lsrs	r0, r1
	lsls	r0, r0, #31
	cbz	r0, .LBB29_2
	b	.LBB29_1
.LBB29_1:
	.loc	5 0 8                           @ ../Firmware/GD32E23x_standard_peripheral/Source/gd32e23x_i2c.c:0:8
	add	r1, sp, #12
	movs	r0, #1
.Ltmp106:
	.loc	5 639 9 is_stmt 1               @ ../Firmware/GD32E23x_standard_peripheral/Source/gd32e23x_i2c.c:639:9
	strb	r0, [r1]
	b	.LBB29_3
.Ltmp107:
.LBB29_2:
	.loc	5 0 9 is_stmt 0                 @ ../Firmware/GD32E23x_standard_peripheral/Source/gd32e23x_i2c.c:0:9
	add	r1, sp, #12
	movs	r0, #0
.Ltmp108:
	.loc	5 641 9 is_stmt 1               @ ../Firmware/GD32E23x_standard_peripheral/Source/gd32e23x_i2c.c:641:9
	strb	r0, [r1]
	b	.LBB29_3
.Ltmp109:
.LBB29_3:
	.loc	5 0 9 is_stmt 0                 @ ../Firmware/GD32E23x_standard_peripheral/Source/gd32e23x_i2c.c:0:9
	add	r0, sp, #12
	.loc	5 643 1 is_stmt 1               @ ../Firmware/GD32E23x_standard_peripheral/Source/gd32e23x_i2c.c:643:1
	ldrb	r0, [r0]
	add	sp, #16
	bx	lr
.Ltmp110:
.Lfunc_end29:
	.size	i2c_flag_get, .Lfunc_end29-i2c_flag_get
	.cfi_endproc
	.cantunwind
	.fnend
                                        @ -- End function
	.section	.text.i2c_flag_clear,"ax",%progbits
	.hidden	i2c_flag_clear                  @ -- Begin function i2c_flag_clear
	.globl	i2c_flag_clear
	.p2align	2
	.type	i2c_flag_clear,%function
	.code	16                              @ @i2c_flag_clear
	.thumb_func
i2c_flag_clear:
.Lfunc_begin30:
	.loc	5 666 0                         @ ../Firmware/GD32E23x_standard_peripheral/Source/gd32e23x_i2c.c:666:0
	.fnstart
	.cfi_startproc
@ %bb.0:
	.pad	#8
	sub	sp, #8
	.cfi_def_cfa_offset 8
                                        @ kill: def $r2 killed $r1
	str	r0, [sp, #4]
	mov	r0, sp
	strh	r1, [r0]
.Ltmp111:
	.loc	5 667 28 prologue_end           @ ../Firmware/GD32E23x_standard_peripheral/Source/gd32e23x_i2c.c:667:28
	ldrh	r0, [r0]
	ldr	r1, __arm_cp.30_0
.Ltmp112:
	.loc	5 667 8 is_stmt 0               @ ../Firmware/GD32E23x_standard_peripheral/Source/gd32e23x_i2c.c:667:8
	cmp	r0, r1
	bne	.LBB30_2
	b	.LBB30_1
.LBB30_1:
.Ltmp113:
	.loc	5 669 9 is_stmt 1               @ ../Firmware/GD32E23x_standard_peripheral/Source/gd32e23x_i2c.c:669:9
	ldr	r0, [sp, #4]
	ldr	r0, [r0, #20]
	.loc	5 670 9                         @ ../Firmware/GD32E23x_standard_peripheral/Source/gd32e23x_i2c.c:670:9
	ldr	r0, [sp, #4]
	ldr	r0, [r0, #24]
	.loc	5 671 5                         @ ../Firmware/GD32E23x_standard_peripheral/Source/gd32e23x_i2c.c:671:5
	b	.LBB30_3
.Ltmp114:
.LBB30_2:
	.loc	5 0 5 is_stmt 0                 @ ../Firmware/GD32E23x_standard_peripheral/Source/gd32e23x_i2c.c:0:5
	mov	r0, sp
.Ltmp115:
	.loc	5 672 43 is_stmt 1              @ ../Firmware/GD32E23x_standard_peripheral/Source/gd32e23x_i2c.c:672:43
	ldrh	r0, [r0]
	movs	r2, #31
	mov	r1, r0
	ands	r1, r2
	movs	r3, #1
	lsls	r3, r1
	.loc	5 672 9 is_stmt 0               @ ../Firmware/GD32E23x_standard_peripheral/Source/gd32e23x_i2c.c:672:9
	ldr	r1, [sp, #4]
	lsrs	r2, r0, #6
	.loc	5 672 39                        @ ../Firmware/GD32E23x_standard_peripheral/Source/gd32e23x_i2c.c:672:39
	ldr	r0, [r1, r2]
	bics	r0, r3
	str	r0, [r1, r2]
	b	.LBB30_3
.Ltmp116:
.LBB30_3:
	.loc	5 674 1 is_stmt 1               @ ../Firmware/GD32E23x_standard_peripheral/Source/gd32e23x_i2c.c:674:1
	add	sp, #8
	bx	lr
.Ltmp117:
	.p2align	2
@ %bb.4:
	.loc	5 0 1 is_stmt 0                 @ ../Firmware/GD32E23x_standard_peripheral/Source/gd32e23x_i2c.c:0:1
__arm_cp.30_0:
	.long	1281                            @ 0x501
.Lcpi_end9:
	.size	__arm_cp.30_0, .Lcpi_end9-__arm_cp.30_0
.Lfunc_end30:
	.size	i2c_flag_clear, .Lfunc_end30-i2c_flag_clear
	.cfi_endproc
	.cantunwind
	.fnend
                                        @ -- End function
	.section	.text.i2c_interrupt_enable,"ax",%progbits
	.hidden	i2c_interrupt_enable            @ -- Begin function i2c_interrupt_enable
	.globl	i2c_interrupt_enable
	.p2align	1
	.type	i2c_interrupt_enable,%function
	.code	16                              @ @i2c_interrupt_enable
	.thumb_func
i2c_interrupt_enable:
.Lfunc_begin31:
	.loc	5 692 0 is_stmt 1               @ ../Firmware/GD32E23x_standard_peripheral/Source/gd32e23x_i2c.c:692:0
	.fnstart
	.cfi_startproc
@ %bb.0:
	.pad	#8
	sub	sp, #8
	.cfi_def_cfa_offset 8
                                        @ kill: def $r2 killed $r1
	str	r0, [sp, #4]
	mov	r0, sp
	strh	r1, [r0]
.Ltmp118:
	.loc	5 693 43 prologue_end           @ ../Firmware/GD32E23x_standard_peripheral/Source/gd32e23x_i2c.c:693:43
	ldrh	r0, [r0]
	movs	r2, #31
	mov	r1, r0
	ands	r1, r2
	movs	r3, #1
	lsls	r3, r1
	.loc	5 693 5 is_stmt 0               @ ../Firmware/GD32E23x_standard_peripheral/Source/gd32e23x_i2c.c:693:5
	ldr	r1, [sp, #4]
	lsrs	r2, r0, #6
	.loc	5 693 40                        @ ../Firmware/GD32E23x_standard_peripheral/Source/gd32e23x_i2c.c:693:40
	ldr	r0, [r1, r2]
	orrs	r0, r3
	str	r0, [r1, r2]
	.loc	5 694 1 is_stmt 1               @ ../Firmware/GD32E23x_standard_peripheral/Source/gd32e23x_i2c.c:694:1
	add	sp, #8
	bx	lr
.Ltmp119:
.Lfunc_end31:
	.size	i2c_interrupt_enable, .Lfunc_end31-i2c_interrupt_enable
	.cfi_endproc
	.cantunwind
	.fnend
                                        @ -- End function
	.section	.text.i2c_interrupt_disable,"ax",%progbits
	.hidden	i2c_interrupt_disable           @ -- Begin function i2c_interrupt_disable
	.globl	i2c_interrupt_disable
	.p2align	1
	.type	i2c_interrupt_disable,%function
	.code	16                              @ @i2c_interrupt_disable
	.thumb_func
i2c_interrupt_disable:
.Lfunc_begin32:
	.loc	5 712 0                         @ ../Firmware/GD32E23x_standard_peripheral/Source/gd32e23x_i2c.c:712:0
	.fnstart
	.cfi_startproc
@ %bb.0:
	.pad	#8
	sub	sp, #8
	.cfi_def_cfa_offset 8
                                        @ kill: def $r2 killed $r1
	str	r0, [sp, #4]
	mov	r0, sp
	strh	r1, [r0]
.Ltmp120:
	.loc	5 713 44 prologue_end           @ ../Firmware/GD32E23x_standard_peripheral/Source/gd32e23x_i2c.c:713:44
	ldrh	r0, [r0]
	movs	r2, #31
	mov	r1, r0
	ands	r1, r2
	movs	r3, #1
	lsls	r3, r1
	.loc	5 713 5 is_stmt 0               @ ../Firmware/GD32E23x_standard_peripheral/Source/gd32e23x_i2c.c:713:5
	ldr	r1, [sp, #4]
	lsrs	r2, r0, #6
	.loc	5 713 40                        @ ../Firmware/GD32E23x_standard_peripheral/Source/gd32e23x_i2c.c:713:40
	ldr	r0, [r1, r2]
	bics	r0, r3
	str	r0, [r1, r2]
	.loc	5 714 1 is_stmt 1               @ ../Firmware/GD32E23x_standard_peripheral/Source/gd32e23x_i2c.c:714:1
	add	sp, #8
	bx	lr
.Ltmp121:
.Lfunc_end32:
	.size	i2c_interrupt_disable, .Lfunc_end32-i2c_interrupt_disable
	.cfi_endproc
	.cantunwind
	.fnend
                                        @ -- End function
	.section	.text.i2c_interrupt_flag_get,"ax",%progbits
	.hidden	i2c_interrupt_flag_get          @ -- Begin function i2c_interrupt_flag_get
	.globl	i2c_interrupt_flag_get
	.p2align	2
	.type	i2c_interrupt_flag_get,%function
	.code	16                              @ @i2c_interrupt_flag_get
	.thumb_func
i2c_interrupt_flag_get:
.Lfunc_begin33:
	.loc	5 743 0                         @ ../Firmware/GD32E23x_standard_peripheral/Source/gd32e23x_i2c.c:743:0
	.fnstart
	.cfi_startproc
@ %bb.0:
	.save	{r4, lr}
	push	{r4, lr}
	.cfi_def_cfa_offset 8
	.cfi_offset lr, -4
	.cfi_offset r4, -8
	.pad	#24
	sub	sp, #24
	.cfi_def_cfa_offset 32
	str	r0, [sp, #16]
	str	r1, [sp, #12]
	movs	r0, #0
.Ltmp122:
	.loc	5 744 14 prologue_end           @ ../Firmware/GD32E23x_standard_peripheral/Source/gd32e23x_i2c.c:744:14
	str	r0, [sp, #8]
	.loc	5 744 30 is_stmt 0              @ ../Firmware/GD32E23x_standard_peripheral/Source/gd32e23x_i2c.c:744:30
	str	r0, [sp, #4]
	.loc	5 747 13 is_stmt 1              @ ../Firmware/GD32E23x_standard_peripheral/Source/gd32e23x_i2c.c:747:13
	ldr	r0, [sp, #16]
	ldr	r0, [r0, #4]
	movw	r1, #1024
	.loc	5 747 33 is_stmt 0              @ ../Firmware/GD32E23x_standard_peripheral/Source/gd32e23x_i2c.c:747:33
	ands	r0, r1
	.loc	5 747 11                        @ ../Firmware/GD32E23x_standard_peripheral/Source/gd32e23x_i2c.c:747:11
	str	r0, [sp]
	.loc	5 750 18 is_stmt 1              @ ../Firmware/GD32E23x_standard_peripheral/Source/gd32e23x_i2c.c:750:18
	ldr	r0, [sp, #16]
	add	r1, sp, #12
	ldrh	r1, [r1]
	lsrs	r1, r1, #6
	ldr	r0, [r0, r1]
	.loc	5 750 54 is_stmt 0              @ ../Firmware/GD32E23x_standard_peripheral/Source/gd32e23x_i2c.c:750:54
	ldr	r4, [sp, #12]
	movs	r3, #31
	ands	r4, r3
	movs	r1, #1
	mov	r2, r1
	lsls	r2, r4
	.loc	5 750 52                        @ ../Firmware/GD32E23x_standard_peripheral/Source/gd32e23x_i2c.c:750:52
	ands	r0, r2
	.loc	5 750 15                        @ ../Firmware/GD32E23x_standard_peripheral/Source/gd32e23x_i2c.c:750:15
	str	r0, [sp, #8]
	.loc	5 752 19 is_stmt 1              @ ../Firmware/GD32E23x_standard_peripheral/Source/gd32e23x_i2c.c:752:19
	ldr	r0, [sp, #16]
	ldr	r2, [sp, #12]
	lsrs	r2, r2, #22
	ldr	r0, [r0, r2]
	.loc	5 752 56 is_stmt 0              @ ../Firmware/GD32E23x_standard_peripheral/Source/gd32e23x_i2c.c:752:56
	ldr	r2, [sp, #12]
	lsls	r3, r3, #16
	ands	r2, r3
	lsrs	r2, r2, #16
	lsls	r1, r2
	.loc	5 752 54                        @ ../Firmware/GD32E23x_standard_peripheral/Source/gd32e23x_i2c.c:752:54
	ands	r0, r1
	.loc	5 752 16                        @ ../Firmware/GD32E23x_standard_peripheral/Source/gd32e23x_i2c.c:752:16
	str	r0, [sp, #4]
.Ltmp123:
	.loc	5 754 30 is_stmt 1              @ ../Firmware/GD32E23x_standard_peripheral/Source/gd32e23x_i2c.c:754:30
	ldr	r0, [sp, #12]
	ldr	r1, __arm_cp.33_0
	.loc	5 754 40 is_stmt 0              @ ../Firmware/GD32E23x_standard_peripheral/Source/gd32e23x_i2c.c:754:40
	cmp	r0, r1
	beq	.LBB33_2
	b	.LBB33_1
.LBB33_1:
	.loc	5 754 64                        @ ../Firmware/GD32E23x_standard_peripheral/Source/gd32e23x_i2c.c:754:64
	ldr	r0, [sp, #12]
	ldr	r1, __arm_cp.33_1
.Ltmp124:
	.loc	5 754 8                         @ ../Firmware/GD32E23x_standard_peripheral/Source/gd32e23x_i2c.c:754:8
	cmp	r0, r1
	bne	.LBB33_7
	b	.LBB33_2
.LBB33_2:
.Ltmp125:
	.loc	5 755 12 is_stmt 1              @ ../Firmware/GD32E23x_standard_peripheral/Source/gd32e23x_i2c.c:755:12
	ldr	r0, [sp, #8]
	.loc	5 755 22 is_stmt 0              @ ../Firmware/GD32E23x_standard_peripheral/Source/gd32e23x_i2c.c:755:22
	cbz	r0, .LBB33_5
	b	.LBB33_3
.LBB33_3:
	.loc	5 755 25                        @ ../Firmware/GD32E23x_standard_peripheral/Source/gd32e23x_i2c.c:755:25
	ldr	r0, [sp]
.Ltmp126:
	.loc	5 755 12                        @ ../Firmware/GD32E23x_standard_peripheral/Source/gd32e23x_i2c.c:755:12
	cbz	r0, .LBB33_5
	b	.LBB33_4
.LBB33_4:
	.loc	5 0 12                          @ ../Firmware/GD32E23x_standard_peripheral/Source/gd32e23x_i2c.c:0:12
	movs	r0, #1
.Ltmp127:
	.loc	5 756 23 is_stmt 1              @ ../Firmware/GD32E23x_standard_peripheral/Source/gd32e23x_i2c.c:756:23
	str	r0, [sp, #8]
	.loc	5 757 9                         @ ../Firmware/GD32E23x_standard_peripheral/Source/gd32e23x_i2c.c:757:9
	b	.LBB33_6
.Ltmp128:
.LBB33_5:
	.loc	5 0 9 is_stmt 0                 @ ../Firmware/GD32E23x_standard_peripheral/Source/gd32e23x_i2c.c:0:9
	movs	r0, #0
.Ltmp129:
	.loc	5 758 23 is_stmt 1              @ ../Firmware/GD32E23x_standard_peripheral/Source/gd32e23x_i2c.c:758:23
	str	r0, [sp, #8]
	b	.LBB33_6
.Ltmp130:
.LBB33_6:
	.loc	5 760 5                         @ ../Firmware/GD32E23x_standard_peripheral/Source/gd32e23x_i2c.c:760:5
	b	.LBB33_7
.Ltmp131:
.LBB33_7:
	.loc	5 761 15                        @ ../Firmware/GD32E23x_standard_peripheral/Source/gd32e23x_i2c.c:761:15
	ldr	r0, [sp, #4]
	.loc	5 761 27 is_stmt 0              @ ../Firmware/GD32E23x_standard_peripheral/Source/gd32e23x_i2c.c:761:27
	cbz	r0, .LBB33_10
	b	.LBB33_8
.LBB33_8:
	.loc	5 761 37                        @ ../Firmware/GD32E23x_standard_peripheral/Source/gd32e23x_i2c.c:761:37
	ldr	r0, [sp, #8]
.Ltmp132:
	.loc	5 761 8                         @ ../Firmware/GD32E23x_standard_peripheral/Source/gd32e23x_i2c.c:761:8
	cbz	r0, .LBB33_10
	b	.LBB33_9
.LBB33_9:
	.loc	5 0 8                           @ ../Firmware/GD32E23x_standard_peripheral/Source/gd32e23x_i2c.c:0:8
	add	r1, sp, #20
	movs	r0, #1
.Ltmp133:
	.loc	5 762 9 is_stmt 1               @ ../Firmware/GD32E23x_standard_peripheral/Source/gd32e23x_i2c.c:762:9
	strb	r0, [r1]
	b	.LBB33_11
.Ltmp134:
.LBB33_10:
	.loc	5 0 9 is_stmt 0                 @ ../Firmware/GD32E23x_standard_peripheral/Source/gd32e23x_i2c.c:0:9
	add	r1, sp, #20
	movs	r0, #0
.Ltmp135:
	.loc	5 764 9 is_stmt 1               @ ../Firmware/GD32E23x_standard_peripheral/Source/gd32e23x_i2c.c:764:9
	strb	r0, [r1]
	b	.LBB33_11
.Ltmp136:
.LBB33_11:
	.loc	5 0 9 is_stmt 0                 @ ../Firmware/GD32E23x_standard_peripheral/Source/gd32e23x_i2c.c:0:9
	add	r0, sp, #20
	.loc	5 766 1 is_stmt 1               @ ../Firmware/GD32E23x_standard_peripheral/Source/gd32e23x_i2c.c:766:1
	ldrb	r0, [r0]
	add	sp, #24
	pop	{r4, pc}
.Ltmp137:
	.p2align	2
@ %bb.12:
	.loc	5 0 1 is_stmt 0                 @ ../Firmware/GD32E23x_standard_peripheral/Source/gd32e23x_i2c.c:0:1
__arm_cp.33_0:
	.long	84279561                        @ 0x5060109
.Lcpi_end10:
	.size	__arm_cp.33_0, .Lcpi_end10-__arm_cp.33_0
__arm_cp.33_1:
	.long	84345097                        @ 0x5070109
.Lcpi_end11:
	.size	__arm_cp.33_1, .Lcpi_end11-__arm_cp.33_1
.Lfunc_end33:
	.size	i2c_interrupt_flag_get, .Lfunc_end33-i2c_interrupt_flag_get
	.cfi_endproc
	.cantunwind
	.fnend
                                        @ -- End function
	.section	.text.i2c_interrupt_flag_clear,"ax",%progbits
	.hidden	i2c_interrupt_flag_clear        @ -- Begin function i2c_interrupt_flag_clear
	.globl	i2c_interrupt_flag_clear
	.p2align	2
	.type	i2c_interrupt_flag_clear,%function
	.code	16                              @ @i2c_interrupt_flag_clear
	.thumb_func
i2c_interrupt_flag_clear:
.Lfunc_begin34:
	.loc	5 789 0 is_stmt 1               @ ../Firmware/GD32E23x_standard_peripheral/Source/gd32e23x_i2c.c:789:0
	.fnstart
	.cfi_startproc
@ %bb.0:
	.pad	#8
	sub	sp, #8
	.cfi_def_cfa_offset 8
	str	r0, [sp, #4]
	str	r1, [sp]
.Ltmp138:
	.loc	5 790 32 prologue_end           @ ../Firmware/GD32E23x_standard_peripheral/Source/gd32e23x_i2c.c:790:32
	ldr	r0, [sp]
	ldr	r1, __arm_cp.34_0
.Ltmp139:
	.loc	5 790 8 is_stmt 0               @ ../Firmware/GD32E23x_standard_peripheral/Source/gd32e23x_i2c.c:790:8
	cmp	r0, r1
	bne	.LBB34_2
	b	.LBB34_1
.LBB34_1:
.Ltmp140:
	.loc	5 792 9 is_stmt 1               @ ../Firmware/GD32E23x_standard_peripheral/Source/gd32e23x_i2c.c:792:9
	ldr	r0, [sp, #4]
	ldr	r0, [r0, #20]
	.loc	5 793 9                         @ ../Firmware/GD32E23x_standard_peripheral/Source/gd32e23x_i2c.c:793:9
	ldr	r0, [sp, #4]
	ldr	r0, [r0, #24]
	.loc	5 794 5                         @ ../Firmware/GD32E23x_standard_peripheral/Source/gd32e23x_i2c.c:794:5
	b	.LBB34_3
.Ltmp141:
.LBB34_2:
	.loc	5 795 48                        @ ../Firmware/GD32E23x_standard_peripheral/Source/gd32e23x_i2c.c:795:48
	ldr	r0, [sp]
	movs	r1, #31
	lsls	r2, r1, #16
	mov	r1, r0
	ands	r1, r2
	lsrs	r1, r1, #16
	movs	r3, #1
	lsls	r3, r1
	.loc	5 795 9 is_stmt 0               @ ../Firmware/GD32E23x_standard_peripheral/Source/gd32e23x_i2c.c:795:9
	ldr	r1, [sp, #4]
	lsrs	r2, r0, #22
	.loc	5 795 44                        @ ../Firmware/GD32E23x_standard_peripheral/Source/gd32e23x_i2c.c:795:44
	ldr	r0, [r1, r2]
	bics	r0, r3
	str	r0, [r1, r2]
	b	.LBB34_3
.Ltmp142:
.LBB34_3:
	.loc	5 797 1 is_stmt 1               @ ../Firmware/GD32E23x_standard_peripheral/Source/gd32e23x_i2c.c:797:1
	add	sp, #8
	bx	lr
.Ltmp143:
	.p2align	2
@ %bb.4:
	.loc	5 0 1 is_stmt 0                 @ ../Firmware/GD32E23x_standard_peripheral/Source/gd32e23x_i2c.c:0:1
__arm_cp.34_0:
	.long	83951881                        @ 0x5010109
.Lcpi_end12:
	.size	__arm_cp.34_0, .Lcpi_end12-__arm_cp.34_0
.Lfunc_end34:
	.size	i2c_interrupt_flag_clear, .Lfunc_end34-i2c_interrupt_flag_clear
	.cfi_endproc
	.cantunwind
	.fnend
                                        @ -- End function
	.section	".note.GNU-stack","",%progbits
	.eabi_attribute	30, 6	@ Tag_ABI_optimization_goals
	.ARM_attribute	16, 1	@ Tag_AV_eba