	.text
	.syntax unified
	.eabi_attribute	67, "2.09"	@ Tag_conformance
	.cpu	cortex-m23
	.eabi_attribute	6, 16	@ Tag_CPU_arch
	.eabi_attribute	7, 77	@ Tag_CPU_arch_profile
	.eabi_attribute	8, 0	@ Tag_ARM_ISA_use
	.eabi_attribute	9, 3	@ Tag_THUMB_ISA_use
	.eabi_attribute	34, 0	@ Tag_CPU_unaligned_access
	.eabi_attribute	17, 1	@ Tag_ABI_PCS_GOT_use
	.eabi_attribute	20, 2	@ Tag_ABI_FP_denormal
	.eabi_attribute	21, 0	@ Tag_ABI_FP_exceptions
	.eabi_attribute	23, 1	@ Tag_ABI_FP_number_model
	.eabi_attribute	24, 1	@ Tag_ABI_align_needed
	.eabi_attribute	25, 1	@ Tag_ABI_align_preserved
	.eabi_attribute	38, 1	@ Tag_ABI_FP_16bit_format
	.eabi_attribute	18, 2	@ Tag_ABI_PCS_wchar_t
	.eabi_attribute	26, 1	@ Tag_ABI_enum_size
	.eabi_attribute	14, 0	@ Tag_ABI_PCS_R9_use
	.file	"gd32e23x_rcu.c"
	.file	1 "D:\\GD32\\GD32E230\\Oscilloscope\\Project" "../Firmware/GD32E23x_standard_peripheral/Include\\gd32e23x_rcu.h"
	.file	2 "D:\\GD32\\GD32E230\\Oscilloscope\\Project" "../Firmware/CMSIS/GD/GD32E23x/Include\\gd32e23x.h"
	.file	3 "D:\\Keil_arm\\ARM\\ARMCLANG\\Bin\\..\\include" "stdint.h"
	.section	.text.rcu_deinit,"ax",%progbits
	.hidden	rcu_deinit                      @ -- Begin function rcu_deinit
	.globl	rcu_deinit
	.p2align	2
	.type	rcu_deinit,%function
	.code	16                              @ @rcu_deinit
	.thumb_func
rcu_deinit:
.Lfunc_begin0:
	.file	4 "D:\\GD32\\GD32E230\\Oscilloscope\\Project" "../Firmware/GD32E23x_standard_peripheral/Source/gd32e23x_rcu.c"
	.loc	4 53 0                          @ ../Firmware/GD32E23x_standard_peripheral/Source/gd32e23x_rcu.c:53:0
	.fnstart
	.cfi_sections .debug_frame
	.cfi_startproc
@ %bb.0:
	ldr	r1, __arm_cp.0_0
.Ltmp0:
	.loc	4 55 14 prologue_end            @ ../Firmware/GD32E23x_standard_peripheral/Source/gd32e23x_rcu.c:55:14
	ldr	r0, [r1]
	movs	r2, #1
	orrs	r0, r2
	str	r0, [r1]
	.loc	4 56 5                          @ ../Firmware/GD32E23x_standard_peripheral/Source/gd32e23x_rcu.c:56:5
	b	.LBB0_1
.LBB0_1:                                @ =>This Inner Loop Header: Depth=1
	.loc	4 0 5 is_stmt 0                 @ ../Firmware/GD32E23x_standard_peripheral/Source/gd32e23x_rcu.c:0:5
	ldr	r0, __arm_cp.0_0
	.loc	4 56 18                         @ ../Firmware/GD32E23x_standard_peripheral/Source/gd32e23x_rcu.c:56:18
	ldr	r0, [r0]
	.loc	4 56 5                          @ ../Firmware/GD32E23x_standard_peripheral/Source/gd32e23x_rcu.c:56:5
	lsls	r0, r0, #30
	cmp	r0, #0
	bmi	.LBB0_3
	b	.LBB0_2
.LBB0_2:                                @   in Loop: Header=BB0_1 Depth=1
	b	.LBB0_1
.LBB0_3:
	.loc	4 0 5                           @ ../Firmware/GD32E23x_standard_peripheral/Source/gd32e23x_rcu.c:0:5
	ldr	r1, __arm_cp.0_1
	.loc	4 58 14 is_stmt 1               @ ../Firmware/GD32E23x_standard_peripheral/Source/gd32e23x_rcu.c:58:14
	ldr	r0, [r1]
	movs	r2, #3
	bics	r0, r2
	str	r0, [r1]
	ldr	r2, __arm_cp.0_0
	.loc	4 59 14                         @ ../Firmware/GD32E23x_standard_peripheral/Source/gd32e23x_rcu.c:59:14
	ldr	r0, [r2]
	ldr	r3, __arm_cp.0_2
	ands	r0, r3
	str	r0, [r2]
	.loc	4 61 14                         @ ../Firmware/GD32E23x_standard_peripheral/Source/gd32e23x_rcu.c:61:14
	ldr	r0, [r1]
	ldr	r2, __arm_cp.0_3
	ands	r0, r2
	str	r0, [r1]
	.loc	4 63 14                         @ ../Firmware/GD32E23x_standard_peripheral/Source/gd32e23x_rcu.c:63:14
	ldr	r0, [r1]
	ldr	r2, __arm_cp.0_4
	ands	r0, r2
	str	r0, [r1]
	ldr	r1, __arm_cp.0_5
	.loc	4 64 14                         @ ../Firmware/GD32E23x_standard_peripheral/Source/gd32e23x_rcu.c:64:14
	ldr	r0, [r1]
	movs	r2, #15
	bics	r0, r2
	str	r0, [r1]
	ldr	r1, __arm_cp.0_6
	.loc	4 65 14                         @ ../Firmware/GD32E23x_standard_peripheral/Source/gd32e23x_rcu.c:65:14
	ldr	r0, [r1]
	movw	r2, #259
	bics	r0, r2
	str	r0, [r1]
	.loc	4 66 14                         @ ../Firmware/GD32E23x_standard_peripheral/Source/gd32e23x_rcu.c:66:14
	ldr	r0, [r1]
	movs	r2, #1
	lsls	r3, r2, #16
	bics	r0, r3
	str	r0, [r1]
	.loc	4 67 14                         @ ../Firmware/GD32E23x_standard_peripheral/Source/gd32e23x_rcu.c:67:14
	ldr	r0, [r1]
	lsls	r3, r2, #31
	bics	r0, r3
	str	r0, [r1]
	ldr	r1, __arm_cp.0_7
	.loc	4 68 14                         @ ../Firmware/GD32E23x_standard_peripheral/Source/gd32e23x_rcu.c:68:14
	ldr	r0, [r1]
	bics	r0, r2
	str	r0, [r1]
	ldr	r1, __arm_cp.0_8
	movs	r0, #0
	.loc	4 69 13                         @ ../Firmware/GD32E23x_standard_peripheral/Source/gd32e23x_rcu.c:69:13
	str	r0, [r1]
	.loc	4 70 1                          @ ../Firmware/GD32E23x_standard_peripheral/Source/gd32e23x_rcu.c:70:1
	bx	lr
.Ltmp1:
	.p2align	2
@ %bb.4:
	.loc	4 0 1 is_stmt 0                 @ ../Firmware/GD32E23x_standard_peripheral/Source/gd32e23x_rcu.c:0:1
__arm_cp.0_0:
	.long	1073876992                      @ 0x40021000
.Lcpi_end0:
	.size	__arm_cp.0_0, .Lcpi_end0-__arm_cp.0_0
__arm_cp.0_1:
	.long	1073876996                      @ 0x40021004
.Lcpi_end1:
	.size	__arm_cp.0_1, .Lcpi_end1-__arm_cp.0_1
__arm_cp.0_2:
	.long	4277338111                      @ 0xfef2ffff
.Lcpi_end2:
	.size	__arm_cp.0_2, .Lcpi_end2-__arm_cp.0_2
__arm_cp.0_3:
	.long	150929420                       @ 0x8ff000c
.Lcpi_end3:
	.size	__arm_cp.0_3, .Lcpi_end3-__arm_cp.0_3
__arm_cp.0_4:
	.long	2009268223                      @ 0x77c2ffff
.Lcpi_end4:
	.size	__arm_cp.0_4, .Lcpi_end4-__arm_cp.0_4
__arm_cp.0_5:
	.long	1073877036                      @ 0x4002102c
.Lcpi_end5:
	.size	__arm_cp.0_5, .Lcpi_end5-__arm_cp.0_5
__arm_cp.0_6:
	.long	1073877040                      @ 0x40021030
.Lcpi_end6:
	.size	__arm_cp.0_6, .Lcpi_end6-__arm_cp.0_6
__arm_cp.0_7:
	.long	1073877044                      @ 0x40021034
.Lcpi_end7:
	.size	__arm_cp.0_7, .Lcpi_end7-__arm_cp.0_7
__arm_cp.0_8:
	.long	1073877000                      @ 0x40021008
.Lcpi_end8:
	.size	__arm_cp.0_8, .Lcpi_end8-__arm_cp.0_8
.Lfunc_end0:
	.size	rcu_deinit, .Lfunc_end0-rcu_deinit
	.cfi_endproc
	.cantunwind
	.fnend
                                        @ -- End function
	.section	.text.rcu_periph_clock_enable,"ax",%progbits
	.hidden	rcu_periph_clock_enable         @ -- Begin function rcu_periph_clock_enable
	.globl	rcu_periph_clock_enable
	.p2align	2
	.type	rcu_periph_clock_enable,%function
	.code	16                              @ @rcu_periph_clock_enable
	.thumb_func
rcu_periph_clock_enable:
.Lfunc_begin1:
	.loc	4 93 0 is_stmt 1                @ ../Firmware/GD32E23x_standard_peripheral/Source/gd32e23x_rcu.c:93:0
	.fnstart
	.cfi_startproc
@ %bb.0:
	.pad	#4
	sub	sp, #4
	.cfi_def_cfa_offset 4
	mov	r1, r0
                                        @ kill: def $r0 killed $r1
	mov	r0, sp
	strh	r1, [r0]
.Ltmp2:
	.loc	4 94 28 prologue_end            @ ../Firmware/GD32E23x_standard_peripheral/Source/gd32e23x_rcu.c:94:28
	ldrh	r0, [r0]
	movs	r2, #31
	mov	r1, r0
	ands	r1, r2
	movs	r3, #1
	lsls	r3, r1
	.loc	4 94 5 is_stmt 0                @ ../Firmware/GD32E23x_standard_peripheral/Source/gd32e23x_rcu.c:94:5
	lsrs	r1, r0, #6
	ldr	r2, __arm_cp.1_0
	.loc	4 94 25                         @ ../Firmware/GD32E23x_standard_peripheral/Source/gd32e23x_rcu.c:94:25
	ldr	r0, [r1, r2]
	orrs	r0, r3
	str	r0, [r1, r2]
	.loc	4 95 1 is_stmt 1                @ ../Firmware/GD32E23x_standard_peripheral/Source/gd32e23x_rcu.c:95:1
	add	sp, #4
	bx	lr
.Ltmp3:
	.p2align	2
@ %bb.1:
	.loc	4 0 1 is_stmt 0                 @ ../Firmware/GD32E23x_standard_peripheral/Source/gd32e23x_rcu.c:0:1
__arm_cp.1_0:
	.long	1073876992                      @ 0x40021000
.Lcpi_end9:
	.size	__arm_cp.1_0, .Lcpi_end9-__arm_cp.1_0
.Lfunc_end1:
	.size	rcu_periph_clock_enable, .Lfunc_end1-rcu_periph_clock_enable
	.cfi_endproc
	.cantunwind
	.fnend
                                        @ -- End function
	.section	.text.rcu_periph_clock_disable,"ax",%progbits
	.hidden	rcu_periph_clock_disable        @ -- Begin function rcu_periph_clock_disable
	.globl	rcu_periph_clock_disable
	.p2align	2
	.type	rcu_periph_clock_disable,%function
	.code	16                              @ @rcu_periph_clock_disable
	.thumb_func
rcu_periph_clock_disable:
.Lfunc_begin2:
	.loc	4 118 0 is_stmt 1               @ ../Firmware/GD32E23x_standard_peripheral/Source/gd32e23x_rcu.c:118:0
	.fnstart
	.cfi_startproc
@ %bb.0:
	.pad	#4
	sub	sp, #4
	.cfi_def_cfa_offset 4
	mov	r1, r0
                                        @ kill: def $r0 killed $r1
	mov	r0, sp
	strh	r1, [r0]
.Ltmp4:
	.loc	4 119 29 prologue_end           @ ../Firmware/GD32E23x_standard_peripheral/Source/gd32e23x_rcu.c:119:29
	ldrh	r0, [r0]
	movs	r2, #31
	mov	r1, r0
	ands	r1, r2
	movs	r3, #1
	lsls	r3, r1
	.loc	4 119 5 is_stmt 0               @ ../Firmware/GD32E23x_standard_peripheral/Source/gd32e23x_rcu.c:119:5
	lsrs	r1, r0, #6
	ldr	r2, __arm_cp.2_0
	.loc	4 119 25                        @ ../Firmware/GD32E23x_standard_peripheral/Source/gd32e23x_rcu.c:119:25
	ldr	r0, [r1, r2]
	bics	r0, r3
	str	r0, [r1, r2]
	.loc	4 120 1 is_stmt 1               @ ../Firmware/GD32E23x_standard_peripheral/Source/gd32e23x_rcu.c:120:1
	add	sp, #4
	bx	lr
.Ltmp5:
	.p2align	2
@ %bb.1:
	.loc	4 0 1 is_stmt 0                 @ ../Firmware/GD32E23x_standard_peripheral/Source/gd32e23x_rcu.c:0:1
__arm_cp.2_0:
	.long	1073876992                      @ 0x40021000
.Lcpi_end10:
	.size	__arm_cp.2_0, .Lcpi_end10-__arm_cp.2_0
.Lfunc_end2:
	.size	rcu_periph_clock_disable, .Lfunc_end2-rcu_periph_clock_disable
	.cfi_endproc
	.cantunwind
	.fnend
                                        @ -- End function
	.section	.text.rcu_periph_clock_sleep_enable,"ax",%progbits
	.hidden	rcu_periph_clock_sleep_enable   @ -- Begin function rcu_periph_clock_sleep_enable
	.globl	rcu_periph_clock_sleep_enable
	.p2align	2
	.type	rcu_periph_clock_sleep_enable,%function
	.code	16                              @ @rcu_periph_clock_sleep_enable
	.thumb_func
rcu_periph_clock_sleep_enable:
.Lfunc_begin3:
	.loc	4 132 0 is_stmt 1               @ ../Firmware/GD32E23x_standard_peripheral/Source/gd32e23x_rcu.c:132:0
	.fnstart
	.cfi_startproc
@ %bb.0:
	.pad	#4
	sub	sp, #4
	.cfi_def_cfa_offset 4
	mov	r1, r0
                                        @ kill: def $r0 killed $r1
	mov	r0, sp
	strh	r1, [r0]
.Ltmp6:
	.loc	4 133 28 prologue_end           @ ../Firmware/GD32E23x_standard_peripheral/Source/gd32e23x_rcu.c:133:28
	ldrh	r0, [r0]
	movs	r2, #31
	mov	r1, r0
	ands	r1, r2
	movs	r3, #1
	lsls	r3, r1
	.loc	4 133 5 is_stmt 0               @ ../Firmware/GD32E23x_standard_peripheral/Source/gd32e23x_rcu.c:133:5
	lsrs	r1, r0, #6
	ldr	r2, __arm_cp.3_0
	.loc	4 133 25                        @ ../Firmware/GD32E23x_standard_peripheral/Source/gd32e23x_rcu.c:133:25
	ldr	r0, [r1, r2]
	orrs	r0, r3
	str	r0, [r1, r2]
	.loc	4 134 1 is_stmt 1               @ ../Firmware/GD32E23x_standard_peripheral/Source/gd32e23x_rcu.c:134:1
	add	sp, #4
	bx	lr
.Ltmp7:
	.p2align	2
@ %bb.1:
	.loc	4 0 1 is_stmt 0                 @ ../Firmware/GD32E23x_standard_peripheral/Source/gd32e23x_rcu.c:0:1
__arm_cp.3_0:
	.long	1073876992                      @ 0x40021000
.Lcpi_end11:
	.size	__arm_cp.3_0, .Lcpi_end11-__arm_cp.3_0
.Lfunc_end3:
	.size	rcu_periph_clock_sleep_enable, .Lfunc_end3-rcu_periph_clock_sleep_enable
	.cfi_endproc
	.cantunwind
	.fnend
                                        @ -- End function
	.section	.text.rcu_periph_clock_sleep_disable,"ax",%progbits
	.hidden	rcu_periph_clock_sleep_disable  @ -- Begin function rcu_periph_clock_sleep_disable
	.globl	rcu_periph_clock_sleep_disable
	.p2align	2
	.type	rcu_periph_clock_sleep_disable,%function
	.code	16                              @ @rcu_periph_clock_sleep_disable
	.thumb_func
rcu_periph_clock_sleep_disable:
.Lfunc_begin4:
	.loc	4 146 0 is_stmt 1               @ ../Firmware/GD32E23x_standard_peripheral/Source/gd32e23x_rcu.c:146:0
	.fnstart
	.cfi_startproc
@ %bb.0:
	.pad	#4
	sub	sp, #4
	.cfi_def_cfa_offset 4
	mov	r1, r0
                                        @ kill: def $r0 killed $r1
	mov	r0, sp
	strh	r1, [r0]
.Ltmp8:
	.loc	4 147 29 prologue_end           @ ../Firmware/GD32E23x_standard_peripheral/Source/gd32e23x_rcu.c:147:29
	ldrh	r0, [r0]
	movs	r2, #31
	mov	r1, r0
	ands	r1, r2
	movs	r3, #1
	lsls	r3, r1
	.loc	4 147 5 is_stmt 0               @ ../Firmware/GD32E23x_standard_peripheral/Source/gd32e23x_rcu.c:147:5
	lsrs	r1, r0, #6
	ldr	r2, __arm_cp.4_0
	.loc	4 147 25                        @ ../Firmware/GD32E23x_standard_peripheral/Source/gd32e23x_rcu.c:147:25
	ldr	r0, [r1, r2]
	bics	r0, r3
	str	r0, [r1, r2]
	.loc	4 148 1 is_stmt 1               @ ../Firmware/GD32E23x_standard_peripheral/Source/gd32e23x_rcu.c:148:1
	add	sp, #4
	bx	lr
.Ltmp9:
	.p2align	2
@ %bb.1:
	.loc	4 0 1 is_stmt 0                 @ ../Firmware/GD32E23x_standard_peripheral/Source/gd32e23x_rcu.c:0:1
__arm_cp.4_0:
	.long	1073876992                      @ 0x40021000
.Lcpi_end12:
	.size	__arm_cp.4_0, .Lcpi_end12-__arm_cp.4_0
.Lfunc_end4:
	.size	rcu_periph_clock_sleep_disable, .Lfunc_end4-rcu_periph_clock_sleep_disable
	.cfi_endproc
	.cantunwind
	.fnend
                                        @ -- End function
	.section	.text.rcu_periph_reset_enable,"ax",%progbits
	.hidden	rcu_periph_reset_enable         @ -- Begin function rcu_periph_reset_enable
	.globl	rcu_periph_reset_enable
	.p2align	2
	.type	rcu_periph_reset_enable,%function
	.code	16                              @ @rcu_periph_reset_enable
	.thumb_func
rcu_periph_reset_enable:
.Lfunc_begin5:
	.loc	4 166 0 is_stmt 1               @ ../Firmware/GD32E23x_standard_peripheral/Source/gd32e23x_rcu.c:166:0
	.fnstart
	.cfi_startproc
@ %bb.0:
	.pad	#4
	sub	sp, #4
	.cfi_def_cfa_offset 4
	mov	r1, r0
                                        @ kill: def $r0 killed $r1
	mov	r0, sp
	strh	r1, [r0]
.Ltmp10:
	.loc	4 167 34 prologue_end           @ ../Firmware/GD32E23x_standard_peripheral/Source/gd32e23x_rcu.c:167:34
	ldrh	r0, [r0]
	movs	r2, #31
	mov	r1, r0
	ands	r1, r2
	movs	r3, #1
	lsls	r3, r1
	.loc	4 167 5 is_stmt 0               @ ../Firmware/GD32E23x_standard_peripheral/Source/gd32e23x_rcu.c:167:5
	lsrs	r1, r0, #6
	ldr	r2, __arm_cp.5_0
	.loc	4 167 31                        @ ../Firmware/GD32E23x_standard_peripheral/Source/gd32e23x_rcu.c:167:31
	ldr	r0, [r1, r2]
	orrs	r0, r3
	str	r0, [r1, r2]
	.loc	4 168 1 is_stmt 1               @ ../Firmware/GD32E23x_standard_peripheral/Source/gd32e23x_rcu.c:168:1
	add	sp, #4
	bx	lr
.Ltmp11:
	.p2align	2
@ %bb.1:
	.loc	4 0 1 is_stmt 0                 @ ../Firmware/GD32E23x_standard_peripheral/Source/gd32e23x_rcu.c:0:1
__arm_cp.5_0:
	.long	1073876992                      @ 0x40021000
.Lcpi_end13:
	.size	__arm_cp.5_0, .Lcpi_end13-__arm_cp.5_0
.Lfunc_end5:
	.size	rcu_periph_reset_enable, .Lfunc_end5-rcu_periph_reset_enable
	.cfi_endproc
	.cantunwind
	.fnend
                                        @ -- End function
	.section	.text.rcu_periph_reset_disable,"ax",%progbits
	.hidden	rcu_periph_reset_disable        @ -- Begin function rcu_periph_reset_disable
	.globl	rcu_periph_reset_disable
	.p2align	2
	.type	rcu_periph_reset_disable,%function
	.code	16                              @ @rcu_periph_reset_disable
	.thumb_func
rcu_periph_reset_disable:
.Lfunc_begin6:
	.loc	4 187 0 is_stmt 1               @ ../Firmware/GD32E23x_standard_peripheral/Source/gd32e23x_rcu.c:187:0
	.fnstart
	.cfi_startproc
@ %bb.0:
	.pad	#4
	sub	sp, #4
	.cfi_def_cfa_offset 4
	mov	r1, r0
                                        @ kill: def $r0 killed $r1
	mov	r0, sp
	strh	r1, [r0]
.Ltmp12:
	.loc	4 188 35 prologue_end           @ ../Firmware/GD32E23x_standard_peripheral/Source/gd32e23x_rcu.c:188:35
	ldrh	r0, [r0]
	movs	r2, #31
	mov	r1, r0
	ands	r1, r2
	movs	r3, #1
	lsls	r3, r1
	.loc	4 188 5 is_stmt 0               @ ../Firmware/GD32E23x_standard_peripheral/Source/gd32e23x_rcu.c:188:5
	lsrs	r1, r0, #6
	ldr	r2, __arm_cp.6_0
	.loc	4 188 31                        @ ../Firmware/GD32E23x_standard_peripheral/Source/gd32e23x_rcu.c:188:31
	ldr	r0, [r1, r2]
	bics	r0, r3
	str	r0, [r1, r2]
	.loc	4 189 1 is_stmt 1               @ ../Firmware/GD32E23x_standard_peripheral/Source/gd32e23x_rcu.c:189:1
	add	sp, #4
	bx	lr
.Ltmp13:
	.p2align	2
@ %bb.1:
	.loc	4 0 1 is_stmt 0                 @ ../Firmware/GD32E23x_standard_peripheral/Source/gd32e23x_rcu.c:0:1
__arm_cp.6_0:
	.long	1073876992                      @ 0x40021000
.Lcpi_end14:
	.size	__arm_cp.6_0, .Lcpi_end14-__arm_cp.6_0
.Lfunc_end6:
	.size	rcu_periph_reset_disable, .Lfunc_end6-rcu_periph_reset_disable
	.cfi_endproc
	.cantunwind
	.fnend
                                        @ -- End function
	.section	.text.rcu_bkp_reset_enable,"ax",%progbits
	.hidden	rcu_bkp_reset_enable            @ -- Begin function rcu_bkp_reset_enable
	.globl	rcu_bkp_reset_enable
	.p2align	2
	.type	rcu_bkp_reset_enable,%function
	.code	16                              @ @rcu_bkp_reset_enable
	.thumb_func
rcu_bkp_reset_enable:
.Lfunc_begin7:
	.loc	4 198 0 is_stmt 1               @ ../Firmware/GD32E23x_standard_peripheral/Source/gd32e23x_rcu.c:198:0
	.fnstart
	.cfi_startproc
@ %bb.0:
	ldr	r1, __arm_cp.7_0
.Ltmp14:
	.loc	4 199 15 prologue_end           @ ../Firmware/GD32E23x_standard_peripheral/Source/gd32e23x_rcu.c:199:15
	ldr	r0, [r1]
	movs	r2, #1
	lsls	r2, r2, #16
	orrs	r0, r2
	str	r0, [r1]
	.loc	4 200 1                         @ ../Firmware/GD32E23x_standard_peripheral/Source/gd32e23x_rcu.c:200:1
	bx	lr
.Ltmp15:
	.p2align	2
@ %bb.1:
	.loc	4 0 1 is_stmt 0                 @ ../Firmware/GD32E23x_standard_peripheral/Source/gd32e23x_rcu.c:0:1
__arm_cp.7_0:
	.long	1073877024                      @ 0x40021020
.Lcpi_end15:
	.size	__arm_cp.7_0, .Lcpi_end15-__arm_cp.7_0
.Lfunc_end7:
	.size	rcu_bkp_reset_enable, .Lfunc_end7-rcu_bkp_reset_enable
	.cfi_endproc
	.cantunwind
	.fnend
                                        @ -- End function
	.section	.text.rcu_bkp_reset_disable,"ax",%progbits
	.hidden	rcu_bkp_reset_disable           @ -- Begin function rcu_bkp_reset_disable
	.globl	rcu_bkp_reset_disable
	.p2align	2
	.type	rcu_bkp_reset_disable,%function
	.code	16                              @ @rcu_bkp_reset_disable
	.thumb_func
rcu_bkp_reset_disable:
.Lfunc_begin8:
	.loc	4 209 0 is_stmt 1               @ ../Firmware/GD32E23x_standard_peripheral/Source/gd32e23x_rcu.c:209:0
	.fnstart
	.cfi_startproc
@ %bb.0:
	ldr	r1, __arm_cp.8_0
.Ltmp16:
	.loc	4 210 15 prologue_end           @ ../Firmware/GD32E23x_standard_peripheral/Source/gd32e23x_rcu.c:210:15
	ldr	r0, [r1]
	movs	r2, #1
	lsls	r2, r2, #16
	bics	r0, r2
	str	r0, [r1]
	.loc	4 211 1                         @ ../Firmware/GD32E23x_standard_peripheral/Source/gd32e23x_rcu.c:211:1
	bx	lr
.Ltmp17:
	.p2align	2
@ %bb.1:
	.loc	4 0 1 is_stmt 0                 @ ../Firmware/GD32E23x_standard_peripheral/Source/gd32e23x_rcu.c:0:1
__arm_cp.8_0:
	.long	1073877024                      @ 0x40021020
.Lcpi_end16:
	.size	__arm_cp.8_0, .Lcpi_end16-__arm_cp.8_0
.Lfunc_end8:
	.size	rcu_bkp_reset_disable, .Lfunc_end8-rcu_bkp_reset_disable
	.cfi_endproc
	.cantunwind
	.fnend
                                        @ -- End function
	.section	.text.rcu_system_clock_source_config,"ax",%progbits
	.hidden	rcu_system_clock_source_config  @ -- Begin function rcu_system_clock_source_config
	.globl	rcu_system_clock_source_config
	.p2align	2
	.type	rcu_system_clock_source_config,%function
	.code	16                              @ @rcu_system_clock_source_config
	.thumb_func
rcu_system_clock_source_config:
.Lfunc_begin9:
	.loc	4 224 0 is_stmt 1               @ ../Firmware/GD32E23x_standard_peripheral/Source/gd32e23x_rcu.c:224:0
	.fnstart
	.cfi_startproc
@ %bb.0:
	.pad	#8
	sub	sp, #8
	.cfi_def_cfa_offset 8
	str	r0, [sp, #4]
	movs	r0, #0
.Ltmp18:
	.loc	4 225 14 prologue_end           @ ../Firmware/GD32E23x_standard_peripheral/Source/gd32e23x_rcu.c:225:14
	str	r0, [sp]
	ldr	r1, __arm_cp.9_0
	.loc	4 226 20                        @ ../Firmware/GD32E23x_standard_peripheral/Source/gd32e23x_rcu.c:226:20
	ldr	r0, [r1]
	.loc	4 226 18 is_stmt 0              @ ../Firmware/GD32E23x_standard_peripheral/Source/gd32e23x_rcu.c:226:18
	str	r0, [sp]
	.loc	4 228 18 is_stmt 1              @ ../Firmware/GD32E23x_standard_peripheral/Source/gd32e23x_rcu.c:228:18
	ldr	r0, [sp]
	movs	r2, #3
	bics	r0, r2
	str	r0, [sp]
	.loc	4 229 17                        @ ../Firmware/GD32E23x_standard_peripheral/Source/gd32e23x_rcu.c:229:17
	ldr	r0, [sp, #4]
	.loc	4 229 26 is_stmt 0              @ ../Firmware/GD32E23x_standard_peripheral/Source/gd32e23x_rcu.c:229:26
	ldr	r2, [sp]
	.loc	4 229 24                        @ ../Firmware/GD32E23x_standard_peripheral/Source/gd32e23x_rcu.c:229:24
	orrs	r0, r2
	.loc	4 229 14                        @ ../Firmware/GD32E23x_standard_peripheral/Source/gd32e23x_rcu.c:229:14
	str	r0, [r1]
	.loc	4 230 1 is_stmt 1               @ ../Firmware/GD32E23x_standard_peripheral/Source/gd32e23x_rcu.c:230:1
	add	sp, #8
	bx	lr
.Ltmp19:
	.p2align	2
@ %bb.1:
	.loc	4 0 1 is_stmt 0                 @ ../Firmware/GD32E23x_standard_peripheral/Source/gd32e23x_rcu.c:0:1
__arm_cp.9_0:
	.long	1073876996                      @ 0x40021004
.Lcpi_end17:
	.size	__arm_cp.9_0, .Lcpi_end17-__arm_cp.9_0
.Lfunc_end9:
	.size	rcu_system_clock_source_config, .Lfunc_end9-rcu_system_clock_source_config
	.cfi_endproc
	.cantunwind
	.fnend
                                        @ -- End function
	.section	.text.rcu_system_clock_source_get,"ax",%progbits
	.hidden	rcu_system_clock_source_get     @ -- Begin function rcu_system_clock_source_get
	.globl	rcu_system_clock_source_get
	.p2align	2
	.type	rcu_system_clock_source_get,%function
	.code	16                              @ @rcu_system_clock_source_get
	.thumb_func
rcu_system_clock_source_get:
.Lfunc_begin10:
	.loc	4 242 0 is_stmt 1               @ ../Firmware/GD32E23x_standard_peripheral/Source/gd32e23x_rcu.c:242:0
	.fnstart
	.cfi_startproc
@ %bb.0:
	ldr	r0, __arm_cp.10_0
.Ltmp20:
	.loc	4 243 13 prologue_end           @ ../Firmware/GD32E23x_standard_peripheral/Source/gd32e23x_rcu.c:243:13
	ldr	r0, [r0]
	movs	r1, #12
	.loc	4 243 22 is_stmt 0              @ ../Firmware/GD32E23x_standard_peripheral/Source/gd32e23x_rcu.c:243:22
	ands	r0, r1
	.loc	4 243 5                         @ ../Firmware/GD32E23x_standard_peripheral/Source/gd32e23x_rcu.c:243:5
	bx	lr
.Ltmp21:
	.p2align	2
@ %bb.1:
	.loc	4 0 5                           @ ../Firmware/GD32E23x_standard_peripheral/Source/gd32e23x_rcu.c:0:5
__arm_cp.10_0:
	.long	1073876996                      @ 0x40021004
.Lcpi_end18:
	.size	__arm_cp.10_0, .Lcpi_end18-__arm_cp.10_0
.Lfunc_end10:
	.size	rcu_system_clock_source_get, .Lfunc_end10-rcu_system_clock_source_get
	.cfi_endproc
	.cantunwind
	.fnend
                                        @ -- End function
	.section	.text.rcu_ahb_clock_config,"ax",%progbits
	.hidden	rcu_ahb_clock_config            @ -- Begin function rcu_ahb_clock_config
	.globl	rcu_ahb_clock_config
	.p2align	2
	.type	rcu_ahb_clock_config,%function
	.code	16                              @ @rcu_ahb_clock_config
	.thumb_func
rcu_ahb_clock_config:
.Lfunc_begin11:
	.loc	4 255 0 is_stmt 1               @ ../Firmware/GD32E23x_standard_peripheral/Source/gd32e23x_rcu.c:255:0
	.fnstart
	.cfi_startproc
@ %bb.0:
	.pad	#8
	sub	sp, #8
	.cfi_def_cfa_offset 8
	str	r0, [sp, #4]
	movs	r0, #0
.Ltmp22:
	.loc	4 256 14 prologue_end           @ ../Firmware/GD32E23x_standard_peripheral/Source/gd32e23x_rcu.c:256:14
	str	r0, [sp]
	ldr	r1, __arm_cp.11_0
	.loc	4 257 14                        @ ../Firmware/GD32E23x_standard_peripheral/Source/gd32e23x_rcu.c:257:14
	ldr	r0, [r1]
	.loc	4 257 12 is_stmt 0              @ ../Firmware/GD32E23x_standard_peripheral/Source/gd32e23x_rcu.c:257:12
	str	r0, [sp]
	.loc	4 259 12 is_stmt 1              @ ../Firmware/GD32E23x_standard_peripheral/Source/gd32e23x_rcu.c:259:12
	ldr	r0, [sp]
	movs	r2, #240
	bics	r0, r2
	str	r0, [sp]
	.loc	4 260 17                        @ ../Firmware/GD32E23x_standard_peripheral/Source/gd32e23x_rcu.c:260:17
	ldr	r0, [sp, #4]
	.loc	4 260 26 is_stmt 0              @ ../Firmware/GD32E23x_standard_peripheral/Source/gd32e23x_rcu.c:260:26
	ldr	r2, [sp]
	.loc	4 260 24                        @ ../Firmware/GD32E23x_standard_peripheral/Source/gd32e23x_rcu.c:260:24
	orrs	r0, r2
	.loc	4 260 14                        @ ../Firmware/GD32E23x_standard_peripheral/Source/gd32e23x_rcu.c:260:14
	str	r0, [r1]
	.loc	4 261 1 is_stmt 1               @ ../Firmware/GD32E23x_standard_peripheral/Source/gd32e23x_rcu.c:261:1
	add	sp, #8
	bx	lr
.Ltmp23:
	.p2align	2
@ %bb.1:
	.loc	4 0 1 is_stmt 0                 @ ../Firmware/GD32E23x_standard_peripheral/Source/gd32e23x_rcu.c:0:1
__arm_cp.11_0:
	.long	1073876996                      @ 0x40021004
.Lcpi_end19:
	.size	__arm_cp.11_0, .Lcpi_end19-__arm_cp.11_0
.Lfunc_end11:
	.size	rcu_ahb_clock_config, .Lfunc_end11-rcu_ahb_clock_config
	.cfi_endproc
	.cantunwind
	.fnend
                                        @ -- End function
	.section	.text.rcu_apb1_clock_config,"ax",%progbits
	.hidden	rcu_apb1_clock_config           @ -- Begin function rcu_apb1_clock_config
	.globl	rcu_apb1_clock_config
	.p2align	2
	.type	rcu_apb1_clock_config,%function
	.code	16                              @ @rcu_apb1_clock_config
	.thumb_func
rcu_apb1_clock_config:
.Lfunc_begin12:
	.loc	4 276 0 is_stmt 1               @ ../Firmware/GD32E23x_standard_peripheral/Source/gd32e23x_rcu.c:276:0
	.fnstart
	.cfi_startproc
@ %bb.0:
	.pad	#8
	sub	sp, #8
	.cfi_def_cfa_offset 8
	str	r0, [sp, #4]
	movs	r0, #0
.Ltmp24:
	.loc	4 277 14 prologue_end           @ ../Firmware/GD32E23x_standard_peripheral/Source/gd32e23x_rcu.c:277:14
	str	r0, [sp]
	ldr	r1, __arm_cp.12_0
	.loc	4 278 15                        @ ../Firmware/GD32E23x_standard_peripheral/Source/gd32e23x_rcu.c:278:15
	ldr	r0, [r1]
	.loc	4 278 13 is_stmt 0              @ ../Firmware/GD32E23x_standard_peripheral/Source/gd32e23x_rcu.c:278:13
	str	r0, [sp]
	.loc	4 280 13 is_stmt 1              @ ../Firmware/GD32E23x_standard_peripheral/Source/gd32e23x_rcu.c:280:13
	ldr	r0, [sp]
	movw	r2, #1792
	bics	r0, r2
	str	r0, [sp]
	.loc	4 281 17                        @ ../Firmware/GD32E23x_standard_peripheral/Source/gd32e23x_rcu.c:281:17
	ldr	r0, [sp, #4]
	.loc	4 281 27 is_stmt 0              @ ../Firmware/GD32E23x_standard_peripheral/Source/gd32e23x_rcu.c:281:27
	ldr	r2, [sp]
	.loc	4 281 25                        @ ../Firmware/GD32E23x_standard_peripheral/Source/gd32e23x_rcu.c:281:25
	orrs	r0, r2
	.loc	4 281 14                        @ ../Firmware/GD32E23x_standard_peripheral/Source/gd32e23x_rcu.c:281:14
	str	r0, [r1]
	.loc	4 282 1 is_stmt 1               @ ../Firmware/GD32E23x_standard_peripheral/Source/gd32e23x_rcu.c:282:1
	add	sp, #8
	bx	lr
.Ltmp25:
	.p2align	2
@ %bb.1:
	.loc	4 0 1 is_stmt 0                 @ ../Firmware/GD32E23x_standard_peripheral/Source/gd32e23x_rcu.c:0:1
__arm_cp.12_0:
	.long	1073876996                      @ 0x40021004
.Lcpi_end20:
	.size	__arm_cp.12_0, .Lcpi_end20-__arm_cp.12_0
.Lfunc_end12:
	.size	rcu_apb1_clock_config, .Lfunc_end12-rcu_apb1_clock_config
	.cfi_endproc
	.cantunwind
	.fnend
                                        @ -- End function
	.section	.text.rcu_apb2_clock_config,"ax",%progbits
	.hidden	rcu_apb2_clock_config           @ -- Begin function rcu_apb2_clock_config
	.globl	rcu_apb2_clock_config
	.p2align	2
	.type	rcu_apb2_clock_config,%function
	.code	16                              @ @rcu_apb2_clock_config
	.thumb_func
rcu_apb2_clock_config:
.Lfunc_begin13:
	.loc	4 297 0 is_stmt 1               @ ../Firmware/GD32E23x_standard_peripheral/Source/gd32e23x_rcu.c:297:0
	.fnstart
	.cfi_startproc
@ %bb.0:
	.pad	#8
	sub	sp, #8
	.cfi_def_cfa_offset 8
	str	r0, [sp, #4]
	movs	r0, #0
.Ltmp26:
	.loc	4 298 14 prologue_end           @ ../Firmware/GD32E23x_standard_peripheral/Source/gd32e23x_rcu.c:298:14
	str	r0, [sp]
	ldr	r1, __arm_cp.13_0
	.loc	4 299 15                        @ ../Firmware/GD32E23x_standard_peripheral/Source/gd32e23x_rcu.c:299:15
	ldr	r0, [r1]
	.loc	4 299 13 is_stmt 0              @ ../Firmware/GD32E23x_standard_peripheral/Source/gd32e23x_rcu.c:299:13
	str	r0, [sp]
	.loc	4 301 13 is_stmt 1              @ ../Firmware/GD32E23x_standard_peripheral/Source/gd32e23x_rcu.c:301:13
	ldr	r0, [sp]
	movw	r2, #14336
	bics	r0, r2
	str	r0, [sp]
	.loc	4 302 17                        @ ../Firmware/GD32E23x_standard_peripheral/Source/gd32e23x_rcu.c:302:17
	ldr	r0, [sp, #4]
	.loc	4 302 27 is_stmt 0              @ ../Firmware/GD32E23x_standard_peripheral/Source/gd32e23x_rcu.c:302:27
	ldr	r2, [sp]
	.loc	4 302 25                        @ ../Firmware/GD32E23x_standard_peripheral/Source/gd32e23x_rcu.c:302:25
	orrs	r0, r2
	.loc	4 302 14                        @ ../Firmware/GD32E23x_standard_peripheral/Source/gd32e23x_rcu.c:302:14
	str	r0, [r1]
	.loc	4 303 1 is_stmt 1               @ ../Firmware/GD32E23x_standard_peripheral/Source/gd32e23x_rcu.c:303:1
	add	sp, #8
	bx	lr
.Ltmp27:
	.p2align	2
@ %bb.1:
	.loc	4 0 1 is_stmt 0                 @ ../Firmware/GD32E23x_standard_peripheral/Source/gd32e23x_rcu.c:0:1
__arm_cp.13_0:
	.long	1073876996                      @ 0x40021004
.Lcpi_end21:
	.size	__arm_cp.13_0, .Lcpi_end21-__arm_cp.13_0
.Lfunc_end13:
	.size	rcu_apb2_clock_config, .Lfunc_end13-rcu_apb2_clock_config
	.cfi_endproc
	.cantunwind
	.fnend
                                        @ -- End function
	.section	.text.rcu_adc_clock_config,"ax",%progbits
	.hidden	rcu_adc_clock_config            @ -- Begin function rcu_adc_clock_config
	.globl	rcu_adc_clock_config
	.p2align	2
	.type	rcu_adc_clock_config,%function
	.code	16                              @ @rcu_adc_clock_config
	.thumb_func
rcu_adc_clock_config:
.Lfunc_begin14:
	.loc	4 323 0 is_stmt 1               @ ../Firmware/GD32E23x_standard_peripheral/Source/gd32e23x_rcu.c:323:0
	.fnstart
	.cfi_startproc
@ %bb.0:
	.pad	#8
	sub	sp, #8
	.cfi_def_cfa_offset 8
	mov	r1, r0
                                        @ kill: def $r0 killed $r1
	add	r0, sp, #4
	strb	r1, [r0]
	ldr	r2, __arm_cp.14_0
.Ltmp28:
	.loc	4 325 14 prologue_end           @ ../Firmware/GD32E23x_standard_peripheral/Source/gd32e23x_rcu.c:325:14
	ldr	r1, [r2]
	movw	r3, #49152
	bics	r1, r3
	str	r1, [r2]
	ldr	r2, __arm_cp.14_1
	.loc	4 326 14                        @ ../Firmware/GD32E23x_standard_peripheral/Source/gd32e23x_rcu.c:326:14
	ldr	r1, [r2]
	ldr	r3, __arm_cp.14_2
	ands	r1, r3
	str	r1, [r2]
	.loc	4 329 12                        @ ../Firmware/GD32E23x_standard_peripheral/Source/gd32e23x_rcu.c:329:12
	ldrb	r0, [r0]
	.loc	4 329 5 is_stmt 0               @ ../Firmware/GD32E23x_standard_peripheral/Source/gd32e23x_rcu.c:329:5
	str	r0, [sp]                        @ 4-byte Spill
	cmp	r0, #9
	bls	.LBB14_1
	b	.LBB14_13
.LBB14_1:
	.loc	4 0 5                           @ ../Firmware/GD32E23x_standard_peripheral/Source/gd32e23x_rcu.c:0:5
	ldr	r1, [sp]                        @ 4-byte Reload
	lsls	r2, r1, #2
	adr	r0, .LJTI14_0
	adds	r0, r0, r2
	mov	pc, r0
@ %bb.2:
	.p2align	2
.LJTI14_0:
	b.w	.LBB14_3
	b.w	.LBB14_4
	b.w	.LBB14_5
	b.w	.LBB14_6
	b.w	.LBB14_7
	b.w	.LBB14_8
	b.w	.LBB14_9
	b.w	.LBB14_10
	b.w	.LBB14_11
	b.w	.LBB14_12
.LBB14_3:
	ldr	r1, __arm_cp.14_1
.Ltmp29:
	.loc	4 331 18 is_stmt 1              @ ../Firmware/GD32E23x_standard_peripheral/Source/gd32e23x_rcu.c:331:18
	ldr	r0, [r1]
	movs	r2, #1
	lsls	r2, r2, #16
	bics	r0, r2
	str	r0, [r1]
	.loc	4 332 18                        @ ../Firmware/GD32E23x_standard_peripheral/Source/gd32e23x_rcu.c:332:18
	ldr	r0, [r1]
	movw	r2, #256
	bics	r0, r2
	str	r0, [r1]
	.loc	4 333 9                         @ ../Firmware/GD32E23x_standard_peripheral/Source/gd32e23x_rcu.c:333:9
	b	.LBB14_14
.LBB14_4:
	.loc	4 0 9 is_stmt 0                 @ ../Firmware/GD32E23x_standard_peripheral/Source/gd32e23x_rcu.c:0:9
	ldr	r1, __arm_cp.14_1
	.loc	4 335 18 is_stmt 1              @ ../Firmware/GD32E23x_standard_peripheral/Source/gd32e23x_rcu.c:335:18
	ldr	r0, [r1]
	movs	r2, #1
	lsls	r2, r2, #16
	orrs	r0, r2
	str	r0, [r1]
	.loc	4 336 18                        @ ../Firmware/GD32E23x_standard_peripheral/Source/gd32e23x_rcu.c:336:18
	ldr	r0, [r1]
	movw	r2, #256
	bics	r0, r2
	str	r0, [r1]
	.loc	4 337 9                         @ ../Firmware/GD32E23x_standard_peripheral/Source/gd32e23x_rcu.c:337:9
	b	.LBB14_14
.LBB14_5:
	.loc	4 0 9 is_stmt 0                 @ ../Firmware/GD32E23x_standard_peripheral/Source/gd32e23x_rcu.c:0:9
	ldr	r1, __arm_cp.14_0
	.loc	4 339 18 is_stmt 1              @ ../Firmware/GD32E23x_standard_peripheral/Source/gd32e23x_rcu.c:339:18
	ldr	r0, [r1]
	str	r0, [r1]
	ldr	r1, __arm_cp.14_1
	.loc	4 340 18                        @ ../Firmware/GD32E23x_standard_peripheral/Source/gd32e23x_rcu.c:340:18
	ldr	r0, [r1]
	movw	r2, #256
	orrs	r0, r2
	str	r0, [r1]
	.loc	4 341 9                         @ ../Firmware/GD32E23x_standard_peripheral/Source/gd32e23x_rcu.c:341:9
	b	.LBB14_14
.LBB14_6:
	.loc	4 0 9 is_stmt 0                 @ ../Firmware/GD32E23x_standard_peripheral/Source/gd32e23x_rcu.c:0:9
	ldr	r1, __arm_cp.14_0
	.loc	4 343 18 is_stmt 1              @ ../Firmware/GD32E23x_standard_peripheral/Source/gd32e23x_rcu.c:343:18
	ldr	r0, [r1]
	str	r0, [r1]
	ldr	r1, __arm_cp.14_1
	.loc	4 344 18                        @ ../Firmware/GD32E23x_standard_peripheral/Source/gd32e23x_rcu.c:344:18
	ldr	r0, [r1]
	movs	r2, #1
	lsls	r2, r2, #31
	orrs	r0, r2
	str	r0, [r1]
	.loc	4 345 18                        @ ../Firmware/GD32E23x_standard_peripheral/Source/gd32e23x_rcu.c:345:18
	ldr	r0, [r1]
	movw	r2, #256
	orrs	r0, r2
	str	r0, [r1]
	.loc	4 346 9                         @ ../Firmware/GD32E23x_standard_peripheral/Source/gd32e23x_rcu.c:346:9
	b	.LBB14_14
.LBB14_7:
	.loc	4 0 9 is_stmt 0                 @ ../Firmware/GD32E23x_standard_peripheral/Source/gd32e23x_rcu.c:0:9
	ldr	r1, __arm_cp.14_0
	.loc	4 348 18 is_stmt 1              @ ../Firmware/GD32E23x_standard_peripheral/Source/gd32e23x_rcu.c:348:18
	ldr	r0, [r1]
	movw	r2, #16384
	orrs	r0, r2
	str	r0, [r1]
	ldr	r1, __arm_cp.14_1
	.loc	4 349 18                        @ ../Firmware/GD32E23x_standard_peripheral/Source/gd32e23x_rcu.c:349:18
	ldr	r0, [r1]
	movw	r2, #256
	orrs	r0, r2
	str	r0, [r1]
	.loc	4 350 9                         @ ../Firmware/GD32E23x_standard_peripheral/Source/gd32e23x_rcu.c:350:9
	b	.LBB14_14
.LBB14_8:
	.loc	4 0 9 is_stmt 0                 @ ../Firmware/GD32E23x_standard_peripheral/Source/gd32e23x_rcu.c:0:9
	ldr	r1, __arm_cp.14_0
	.loc	4 352 18 is_stmt 1              @ ../Firmware/GD32E23x_standard_peripheral/Source/gd32e23x_rcu.c:352:18
	ldr	r0, [r1]
	movw	r2, #16384
	orrs	r0, r2
	str	r0, [r1]
	ldr	r1, __arm_cp.14_1
	.loc	4 353 18                        @ ../Firmware/GD32E23x_standard_peripheral/Source/gd32e23x_rcu.c:353:18
	ldr	r0, [r1]
	movs	r2, #1
	lsls	r2, r2, #31
	orrs	r0, r2
	str	r0, [r1]
	.loc	4 354 18                        @ ../Firmware/GD32E23x_standard_peripheral/Source/gd32e23x_rcu.c:354:18
	ldr	r0, [r1]
	movw	r2, #256
	orrs	r0, r2
	str	r0, [r1]
	.loc	4 355 9                         @ ../Firmware/GD32E23x_standard_peripheral/Source/gd32e23x_rcu.c:355:9
	b	.LBB14_14
.LBB14_9:
	.loc	4 0 9 is_stmt 0                 @ ../Firmware/GD32E23x_standard_peripheral/Source/gd32e23x_rcu.c:0:9
	ldr	r1, __arm_cp.14_0
	.loc	4 357 18 is_stmt 1              @ ../Firmware/GD32E23x_standard_peripheral/Source/gd32e23x_rcu.c:357:18
	ldr	r0, [r1]
	movw	r2, #32768
	orrs	r0, r2
	str	r0, [r1]
	ldr	r1, __arm_cp.14_1
	.loc	4 358 18                        @ ../Firmware/GD32E23x_standard_peripheral/Source/gd32e23x_rcu.c:358:18
	ldr	r0, [r1]
	movw	r2, #256
	orrs	r0, r2
	str	r0, [r1]
	.loc	4 359 9                         @ ../Firmware/GD32E23x_standard_peripheral/Source/gd32e23x_rcu.c:359:9
	b	.LBB14_14
.LBB14_10:
	.loc	4 0 9 is_stmt 0                 @ ../Firmware/GD32E23x_standard_peripheral/Source/gd32e23x_rcu.c:0:9
	ldr	r1, __arm_cp.14_0
	.loc	4 361 18 is_stmt 1              @ ../Firmware/GD32E23x_standard_peripheral/Source/gd32e23x_rcu.c:361:18
	ldr	r0, [r1]
	movw	r2, #32768
	orrs	r0, r2
	str	r0, [r1]
	ldr	r1, __arm_cp.14_1
	.loc	4 362 18                        @ ../Firmware/GD32E23x_standard_peripheral/Source/gd32e23x_rcu.c:362:18
	ldr	r0, [r1]
	movs	r2, #1
	lsls	r2, r2, #31
	orrs	r0, r2
	str	r0, [r1]
	.loc	4 363 18                        @ ../Firmware/GD32E23x_standard_peripheral/Source/gd32e23x_rcu.c:363:18
	ldr	r0, [r1]
	movw	r2, #256
	orrs	r0, r2
	str	r0, [r1]
	.loc	4 364 9                         @ ../Firmware/GD32E23x_standard_peripheral/Source/gd32e23x_rcu.c:364:9
	b	.LBB14_14
.LBB14_11:
	.loc	4 0 9 is_stmt 0                 @ ../Firmware/GD32E23x_standard_peripheral/Source/gd32e23x_rcu.c:0:9
	ldr	r1, __arm_cp.14_0
	.loc	4 366 18 is_stmt 1              @ ../Firmware/GD32E23x_standard_peripheral/Source/gd32e23x_rcu.c:366:18
	ldr	r0, [r1]
	movw	r2, #49152
	orrs	r0, r2
	str	r0, [r1]
	ldr	r1, __arm_cp.14_1
	.loc	4 367 18                        @ ../Firmware/GD32E23x_standard_peripheral/Source/gd32e23x_rcu.c:367:18
	ldr	r0, [r1]
	movw	r2, #256
	orrs	r0, r2
	str	r0, [r1]
	.loc	4 368 9                         @ ../Firmware/GD32E23x_standard_peripheral/Source/gd32e23x_rcu.c:368:9
	b	.LBB14_14
.LBB14_12:
	.loc	4 0 9 is_stmt 0                 @ ../Firmware/GD32E23x_standard_peripheral/Source/gd32e23x_rcu.c:0:9
	ldr	r1, __arm_cp.14_0
	.loc	4 370 18 is_stmt 1              @ ../Firmware/GD32E23x_standard_peripheral/Source/gd32e23x_rcu.c:370:18
	ldr	r0, [r1]
	movw	r2, #49152
	orrs	r0, r2
	str	r0, [r1]
	ldr	r1, __arm_cp.14_1
	.loc	4 371 18                        @ ../Firmware/GD32E23x_standard_peripheral/Source/gd32e23x_rcu.c:371:18
	ldr	r0, [r1]
	movs	r2, #1
	lsls	r2, r2, #31
	orrs	r0, r2
	str	r0, [r1]
	.loc	4 372 18                        @ ../Firmware/GD32E23x_standard_peripheral/Source/gd32e23x_rcu.c:372:18
	ldr	r0, [r1]
	movw	r2, #256
	orrs	r0, r2
	str	r0, [r1]
	.loc	4 373 9                         @ ../Firmware/GD32E23x_standard_peripheral/Source/gd32e23x_rcu.c:373:9
	b	.LBB14_14
.LBB14_13:
	.loc	4 375 9                         @ ../Firmware/GD32E23x_standard_peripheral/Source/gd32e23x_rcu.c:375:9
	b	.LBB14_14
.Ltmp30:
.LBB14_14:
	.loc	4 377 1                         @ ../Firmware/GD32E23x_standard_peripheral/Source/gd32e23x_rcu.c:377:1
	add	sp, #8
	bx	lr
.Ltmp31:
	.p2align	2
@ %bb.15:
	.loc	4 0 1 is_stmt 0                 @ ../Firmware/GD32E23x_standard_peripheral/Source/gd32e23x_rcu.c:0:1
__arm_cp.14_0:
	.long	1073876996                      @ 0x40021004
.Lcpi_end22:
	.size	__arm_cp.14_0, .Lcpi_end22-__arm_cp.14_0
__arm_cp.14_1:
	.long	1073877040                      @ 0x40021030
.Lcpi_end23:
	.size	__arm_cp.14_1, .Lcpi_end23-__arm_cp.14_1
__arm_cp.14_2:
	.long	2147417855                      @ 0x7ffefeff
.Lcpi_end24:
	.size	__arm_cp.14_2, .Lcpi_end24-__arm_cp.14_2
.Lfunc_end14:
	.size	rcu_adc_clock_config, .Lfunc_end14-rcu_adc_clock_config
	.cfi_endproc
	.cantunwind
	.fnend
                                        @ -- End function
	.section	.text.rcu_ckout_config,"ax",%progbits
	.hidden	rcu_ckout_config                @ -- Begin function rcu_ckout_config
	.globl	rcu_ckout_config
	.p2align	2
	.type	rcu_ckout_config,%function
	.code	16                              @ @rcu_ckout_config
	.thumb_func
rcu_ckout_config:
.Lfunc_begin15:
	.loc	4 398 0 is_stmt 1               @ ../Firmware/GD32E23x_standard_peripheral/Source/gd32e23x_rcu.c:398:0
	.fnstart
	.cfi_startproc
@ %bb.0:
	.pad	#12
	sub	sp, #12
	.cfi_def_cfa_offset 12
	str	r0, [sp, #8]
	str	r1, [sp, #4]
	movs	r0, #0
.Ltmp32:
	.loc	4 399 14 prologue_end           @ ../Firmware/GD32E23x_standard_peripheral/Source/gd32e23x_rcu.c:399:14
	str	r0, [sp]
	ldr	r1, __arm_cp.15_0
	.loc	4 400 13                        @ ../Firmware/GD32E23x_standard_peripheral/Source/gd32e23x_rcu.c:400:13
	ldr	r0, [r1]
	.loc	4 400 11 is_stmt 0              @ ../Firmware/GD32E23x_standard_peripheral/Source/gd32e23x_rcu.c:400:11
	str	r0, [sp]
	.loc	4 402 11 is_stmt 1              @ ../Firmware/GD32E23x_standard_peripheral/Source/gd32e23x_rcu.c:402:11
	ldr	r0, [sp]
	movs	r2, #247
	lsls	r2, r2, #24
	bics	r0, r2
	str	r0, [sp]
	.loc	4 403 17                        @ ../Firmware/GD32E23x_standard_peripheral/Source/gd32e23x_rcu.c:403:17
	ldr	r0, [sp]
	.loc	4 403 25 is_stmt 0              @ ../Firmware/GD32E23x_standard_peripheral/Source/gd32e23x_rcu.c:403:25
	ldr	r2, [sp, #8]
	.loc	4 403 23                        @ ../Firmware/GD32E23x_standard_peripheral/Source/gd32e23x_rcu.c:403:23
	orrs	r0, r2
	.loc	4 403 37                        @ ../Firmware/GD32E23x_standard_peripheral/Source/gd32e23x_rcu.c:403:37
	ldr	r2, [sp, #4]
	.loc	4 403 35                        @ ../Firmware/GD32E23x_standard_peripheral/Source/gd32e23x_rcu.c:403:35
	orrs	r0, r2
	.loc	4 403 14                        @ ../Firmware/GD32E23x_standard_peripheral/Source/gd32e23x_rcu.c:403:14
	str	r0, [r1]
	.loc	4 404 1 is_stmt 1               @ ../Firmware/GD32E23x_standard_peripheral/Source/gd32e23x_rcu.c:404:1
	add	sp, #12
	bx	lr
.Ltmp33:
	.p2align	2
@ %bb.1:
	.loc	4 0 1 is_stmt 0                 @ ../Firmware/GD32E23x_standard_peripheral/Source/gd32e23x_rcu.c:0:1
__arm_cp.15_0:
	.long	1073876996                      @ 0x40021004
.Lcpi_end25:
	.size	__arm_cp.15_0, .Lcpi_end25-__arm_cp.15_0
.Lfunc_end15:
	.size	rcu_ckout_config, .Lfunc_end15-rcu_ckout_config
	.cfi_endproc
	.cantunwind
	.fnend
                                        @ -- End function
	.section	.text.rcu_pll_config,"ax",%progbits
	.hidden	rcu_pll_config                  @ -- Begin function rcu_pll_config
	.globl	rcu_pll_config
	.p2align	2
	.type	rcu_pll_config,%function
	.code	16                              @ @rcu_pll_config
	.thumb_func
rcu_pll_config:
.Lfunc_begin16:
	.loc	4 419 0 is_stmt 1               @ ../Firmware/GD32E23x_standard_peripheral/Source/gd32e23x_rcu.c:419:0
	.fnstart
	.cfi_startproc
@ %bb.0:
	.pad	#8
	sub	sp, #8
	.cfi_def_cfa_offset 8
	str	r0, [sp, #4]
	str	r1, [sp]
	ldr	r1, __arm_cp.16_0
.Ltmp34:
	.loc	4 420 14 prologue_end           @ ../Firmware/GD32E23x_standard_peripheral/Source/gd32e23x_rcu.c:420:14
	ldr	r0, [r1]
	ldr	r2, __arm_cp.16_1
	ands	r0, r2
	str	r0, [r1]
	.loc	4 421 18                        @ ../Firmware/GD32E23x_standard_peripheral/Source/gd32e23x_rcu.c:421:18
	ldr	r2, [sp, #4]
	.loc	4 421 28 is_stmt 0              @ ../Firmware/GD32E23x_standard_peripheral/Source/gd32e23x_rcu.c:421:28
	ldr	r0, [sp]
	.loc	4 421 26                        @ ../Firmware/GD32E23x_standard_peripheral/Source/gd32e23x_rcu.c:421:26
	orrs	r2, r0
	.loc	4 421 14                        @ ../Firmware/GD32E23x_standard_peripheral/Source/gd32e23x_rcu.c:421:14
	ldr	r0, [r1]
	orrs	r0, r2
	str	r0, [r1]
	.loc	4 422 1 is_stmt 1               @ ../Firmware/GD32E23x_standard_peripheral/Source/gd32e23x_rcu.c:422:1
	add	sp, #8
	bx	lr
.Ltmp35:
	.p2align	2
@ %bb.1:
	.loc	4 0 1 is_stmt 0                 @ ../Firmware/GD32E23x_standard_peripheral/Source/gd32e23x_rcu.c:0:1
__arm_cp.16_0:
	.long	1073876996                      @ 0x40021004
.Lcpi_end26:
	.size	__arm_cp.16_0, .Lcpi_end26-__arm_cp.16_0
__arm_cp.16_1:
	.long	4156751871                      @ 0xf7c2ffff
.Lcpi_end27:
	.size	__arm_cp.16_1, .Lcpi_end27-__arm_cp.16_1
.Lfunc_end16:
	.size	rcu_pll_config, .Lfunc_end16-rcu_pll_config
	.cfi_endproc
	.cantunwind
	.fnend
                                        @ -- End function
	.section	.text.rcu_usart_clock_config,"ax",%progbits
	.hidden	rcu_usart_clock_config          @ -- Begin function rcu_usart_clock_config
	.globl	rcu_usart_clock_config
	.p2align	2
	.type	rcu_usart_clock_config,%function
	.code	16                              @ @rcu_usart_clock_config
	.thumb_func
rcu_usart_clock_config:
.Lfunc_begin17:
	.loc	4 436 0 is_stmt 1               @ ../Firmware/GD32E23x_standard_peripheral/Source/gd32e23x_rcu.c:436:0
	.fnstart
	.cfi_startproc
@ %bb.0:
	.pad	#4
	sub	sp, #4
	.cfi_def_cfa_offset 4
	str	r0, [sp]
	ldr	r1, __arm_cp.17_0
.Ltmp36:
	.loc	4 438 14 prologue_end           @ ../Firmware/GD32E23x_standard_peripheral/Source/gd32e23x_rcu.c:438:14
	ldr	r0, [r1]
	movs	r2, #3
	bics	r0, r2
	str	r0, [r1]
	.loc	4 439 17                        @ ../Firmware/GD32E23x_standard_peripheral/Source/gd32e23x_rcu.c:439:17
	ldr	r2, [sp]
	.loc	4 439 14 is_stmt 0              @ ../Firmware/GD32E23x_standard_peripheral/Source/gd32e23x_rcu.c:439:14
	ldr	r0, [r1]
	orrs	r0, r2
	str	r0, [r1]
	.loc	4 440 1 is_stmt 1               @ ../Firmware/GD32E23x_standard_peripheral/Source/gd32e23x_rcu.c:440:1
	add	sp, #4
	bx	lr
.Ltmp37:
	.p2align	2
@ %bb.1:
	.loc	4 0 1 is_stmt 0                 @ ../Firmware/GD32E23x_standard_peripheral/Source/gd32e23x_rcu.c:0:1
__arm_cp.17_0:
	.long	1073877040                      @ 0x40021030
.Lcpi_end28:
	.size	__arm_cp.17_0, .Lcpi_end28-__arm_cp.17_0
.Lfunc_end17:
	.size	rcu_usart_clock_config, .Lfunc_end17-rcu_usart_clock_config
	.cfi_endproc
	.cantunwind
	.fnend
                                        @ -- End function
	.section	.text.rcu_rtc_clock_config,"ax",%progbits
	.hidden	rcu_rtc_clock_config            @ -- Begin function rcu_rtc_clock_config
	.globl	rcu_rtc_clock_config
	.p2align	2
	.type	rcu_rtc_clock_config,%function
	.code	16                              @ @rcu_rtc_clock_config
	.thumb_func
rcu_rtc_clock_config:
.Lfunc_begin18:
	.loc	4 454 0 is_stmt 1               @ ../Firmware/GD32E23x_standard_peripheral/Source/gd32e23x_rcu.c:454:0
	.fnstart
	.cfi_startproc
@ %bb.0:
	.pad	#4
	sub	sp, #4
	.cfi_def_cfa_offset 4
	str	r0, [sp]
	ldr	r1, __arm_cp.18_0
.Ltmp38:
	.loc	4 456 15 prologue_end           @ ../Firmware/GD32E23x_standard_peripheral/Source/gd32e23x_rcu.c:456:15
	ldr	r0, [r1]
	movw	r2, #768
	bics	r0, r2
	str	r0, [r1]
	.loc	4 457 18                        @ ../Firmware/GD32E23x_standard_peripheral/Source/gd32e23x_rcu.c:457:18
	ldr	r2, [sp]
	.loc	4 457 15 is_stmt 0              @ ../Firmware/GD32E23x_standard_peripheral/Source/gd32e23x_rcu.c:457:15
	ldr	r0, [r1]
	orrs	r0, r2
	str	r0, [r1]
	.loc	4 458 1 is_stmt 1               @ ../Firmware/GD32E23x_standard_peripheral/Source/gd32e23x_rcu.c:458:1
	add	sp, #4
	bx	lr
.Ltmp39:
	.p2align	2
@ %bb.1:
	.loc	4 0 1 is_stmt 0                 @ ../Firmware/GD32E23x_standard_peripheral/Source/gd32e23x_rcu.c:0:1
__arm_cp.18_0:
	.long	1073877024                      @ 0x40021020
.Lcpi_end29:
	.size	__arm_cp.18_0, .Lcpi_end29-__arm_cp.18_0
.Lfunc_end18:
	.size	rcu_rtc_clock_config, .Lfunc_end18-rcu_rtc_clock_config
	.cfi_endproc
	.cantunwind
	.fnend
                                        @ -- End function
	.section	.text.rcu_hxtal_prediv_config,"ax",%progbits
	.hidden	rcu_hxtal_prediv_config         @ -- Begin function rcu_hxtal_prediv_config
	.globl	rcu_hxtal_prediv_config
	.p2align	2
	.type	rcu_hxtal_prediv_config,%function
	.code	16                              @ @rcu_hxtal_prediv_config
	.thumb_func
rcu_hxtal_prediv_config:
.Lfunc_begin19:
	.loc	4 469 0 is_stmt 1               @ ../Firmware/GD32E23x_standard_peripheral/Source/gd32e23x_rcu.c:469:0
	.fnstart
	.cfi_startproc
@ %bb.0:
	.pad	#8
	sub	sp, #8
	.cfi_def_cfa_offset 8
	str	r0, [sp, #4]
	movs	r0, #0
.Ltmp40:
	.loc	4 470 14 prologue_end           @ ../Firmware/GD32E23x_standard_peripheral/Source/gd32e23x_rcu.c:470:14
	str	r0, [sp]
	ldr	r1, __arm_cp.19_0
	.loc	4 471 14                        @ ../Firmware/GD32E23x_standard_peripheral/Source/gd32e23x_rcu.c:471:14
	ldr	r0, [r1]
	.loc	4 471 12 is_stmt 0              @ ../Firmware/GD32E23x_standard_peripheral/Source/gd32e23x_rcu.c:471:12
	str	r0, [sp]
	.loc	4 473 12 is_stmt 1              @ ../Firmware/GD32E23x_standard_peripheral/Source/gd32e23x_rcu.c:473:12
	ldr	r0, [sp]
	movs	r2, #15
	bics	r0, r2
	str	r0, [sp]
	.loc	4 474 17                        @ ../Firmware/GD32E23x_standard_peripheral/Source/gd32e23x_rcu.c:474:17
	ldr	r0, [sp]
	.loc	4 474 26 is_stmt 0              @ ../Firmware/GD32E23x_standard_peripheral/Source/gd32e23x_rcu.c:474:26
	ldr	r2, [sp, #4]
	.loc	4 474 24                        @ ../Firmware/GD32E23x_standard_peripheral/Source/gd32e23x_rcu.c:474:24
	orrs	r0, r2
	.loc	4 474 14                        @ ../Firmware/GD32E23x_standard_peripheral/Source/gd32e23x_rcu.c:474:14
	str	r0, [r1]
	.loc	4 475 1 is_stmt 1               @ ../Firmware/GD32E23x_standard_peripheral/Source/gd32e23x_rcu.c:475:1
	add	sp, #8
	bx	lr
.Ltmp41:
	.p2align	2
@ %bb.1:
	.loc	4 0 1 is_stmt 0                 @ ../Firmware/GD32E23x_standard_peripheral/Source/gd32e23x_rcu.c:0:1
__arm_cp.19_0:
	.long	1073877036                      @ 0x4002102c
.Lcpi_end30:
	.size	__arm_cp.19_0, .Lcpi_end30-__arm_cp.19_0
.Lfunc_end19:
	.size	rcu_hxtal_prediv_config, .Lfunc_end19-rcu_hxtal_prediv_config
	.cfi_endproc
	.cantunwind
	.fnend
                                        @ -- End function
	.section	.text.rcu_lxtal_drive_capability_config,"ax",%progbits
	.hidden	rcu_lxtal_drive_capability_config @ -- Begin function rcu_lxtal_drive_capability_config
	.globl	rcu_lxtal_drive_capability_config
	.p2align	2
	.type	rcu_lxtal_drive_capability_config,%function
	.code	16                              @ @rcu_lxtal_drive_capability_config
	.thumb_func
rcu_lxtal_drive_capability_config:
.Lfunc_begin20:
	.loc	4 489 0 is_stmt 1               @ ../Firmware/GD32E23x_standard_peripheral/Source/gd32e23x_rcu.c:489:0
	.fnstart
	.cfi_startproc
@ %bb.0:
	.pad	#4
	sub	sp, #4
	.cfi_def_cfa_offset 4
	str	r0, [sp]
	ldr	r1, __arm_cp.20_0
.Ltmp42:
	.loc	4 491 15 prologue_end           @ ../Firmware/GD32E23x_standard_peripheral/Source/gd32e23x_rcu.c:491:15
	ldr	r0, [r1]
	movs	r2, #24
	bics	r0, r2
	str	r0, [r1]
	.loc	4 492 18                        @ ../Firmware/GD32E23x_standard_peripheral/Source/gd32e23x_rcu.c:492:18
	ldr	r2, [sp]
	.loc	4 492 15 is_stmt 0              @ ../Firmware/GD32E23x_standard_peripheral/Source/gd32e23x_rcu.c:492:15
	ldr	r0, [r1]
	orrs	r0, r2
	str	r0, [r1]
	.loc	4 493 1 is_stmt 1               @ ../Firmware/GD32E23x_standard_peripheral/Source/gd32e23x_rcu.c:493:1
	add	sp, #4
	bx	lr
.Ltmp43:
	.p2align	2
@ %bb.1:
	.loc	4 0 1 is_stmt 0                 @ ../Firmware/GD32E23x_standard_peripheral/Source/gd32e23x_rcu.c:0:1
__arm_cp.20_0:
	.long	1073877024                      @ 0x40021020
.Lcpi_end31:
	.size	__arm_cp.20_0, .Lcpi_end31-__arm_cp.20_0
.Lfunc_end20:
	.size	rcu_lxtal_drive_capability_config, .Lfunc_end20-rcu_lxtal_drive_capability_config
	.cfi_endproc
	.cantunwind
	.fnend
                                        @ -- End function
	.section	.text.rcu_osci_stab_wait,"ax",%progbits
	.hidden	rcu_osci_stab_wait              @ -- Begin function rcu_osci_stab_wait
	.globl	rcu_osci_stab_wait
	.p2align	2
	.type	rcu_osci_stab_wait,%function
	.code	16                              @ @rcu_osci_stab_wait
	.thumb_func
rcu_osci_stab_wait:
.Lfunc_begin21:
	.loc	4 509 0 is_stmt 1               @ ../Firmware/GD32E23x_standard_peripheral/Source/gd32e23x_rcu.c:509:0
	.fnstart
	.cfi_startproc
@ %bb.0:
	.save	{r7, lr}
	push	{r7, lr}
	.cfi_def_cfa_offset 8
	.cfi_offset lr, -4
	.cfi_offset r7, -8
	.pad	#48
	sub	sp, #48
	.cfi_def_cfa_offset 56
	mov	r1, r0
                                        @ kill: def $r0 killed $r1
	add	r0, sp, #44
	strh	r1, [r0]
	movs	r1, #0
.Ltmp44:
	.loc	4 510 14 prologue_end           @ ../Firmware/GD32E23x_standard_peripheral/Source/gd32e23x_rcu.c:510:14
	str	r1, [sp, #40]
	add	r2, sp, #36
	.loc	4 511 15                        @ ../Firmware/GD32E23x_standard_peripheral/Source/gd32e23x_rcu.c:511:15
	strb	r1, [r2]
	add	r2, sp, #32
	.loc	4 512 16                        @ ../Firmware/GD32E23x_standard_peripheral/Source/gd32e23x_rcu.c:512:16
	strb	r1, [r2]
	.loc	4 513 12                        @ ../Firmware/GD32E23x_standard_peripheral/Source/gd32e23x_rcu.c:513:12
	ldrh	r0, [r0]
	.loc	4 513 5 is_stmt 0               @ ../Firmware/GD32E23x_standard_peripheral/Source/gd32e23x_rcu.c:513:5
	str	r0, [sp, #28]                   @ 4-byte Spill
	cmp	r0, #0
	beq	.LBB21_22
	b	.LBB21_1
.LBB21_1:
	ldr	r0, [sp, #28]                   @ 4-byte Reload
	cmp	r0, #16
	beq	.LBB21_6
	b	.LBB21_2
.LBB21_2:
	ldr	r0, [sp, #28]                   @ 4-byte Reload
	cmp	r0, #24
	bne	.LBB21_3
	b	.LBB21_46
.LBB21_3:
	.loc	4 0 5                           @ ../Firmware/GD32E23x_standard_peripheral/Source/gd32e23x_rcu.c:0:5
	ldr	r0, [sp, #28]                   @ 4-byte Reload
	movw	r1, #2048
	.loc	4 513 5                         @ ../Firmware/GD32E23x_standard_peripheral/Source/gd32e23x_rcu.c:513:5
	cmp	r0, r1
	beq	.LBB21_14
	b	.LBB21_4
.LBB21_4:
	.loc	4 0 5                           @ ../Firmware/GD32E23x_standard_peripheral/Source/gd32e23x_rcu.c:0:5
	ldr	r0, [sp, #28]                   @ 4-byte Reload
	movw	r1, #2304
	.loc	4 513 5                         @ ../Firmware/GD32E23x_standard_peripheral/Source/gd32e23x_rcu.c:513:5
	cmp	r0, r1
	bne	.LBB21_5
	b	.LBB21_38
.LBB21_5:
	.loc	4 0 5                           @ ../Firmware/GD32E23x_standard_peripheral/Source/gd32e23x_rcu.c:0:5
	ldr	r0, [sp, #28]                   @ 4-byte Reload
	movw	r1, #3328
	.loc	4 513 5                         @ ../Firmware/GD32E23x_standard_peripheral/Source/gd32e23x_rcu.c:513:5
	cmp	r0, r1
	beq	.LBB21_30
	b	.LBB21_54
.LBB21_6:
.Ltmp45:
	.loc	4 516 9 is_stmt 1               @ ../Firmware/GD32E23x_standard_peripheral/Source/gd32e23x_rcu.c:516:9
	b	.LBB21_7
.LBB21_7:                               @ =>This Inner Loop Header: Depth=1
	.loc	4 0 9 is_stmt 0                 @ ../Firmware/GD32E23x_standard_peripheral/Source/gd32e23x_rcu.c:0:9
	add	r0, sp, #32
	.loc	4 516 25                        @ ../Firmware/GD32E23x_standard_peripheral/Source/gd32e23x_rcu.c:516:25
	ldrb	r1, [r0]
	movs	r0, #0
	.loc	4 516 36                        @ ../Firmware/GD32E23x_standard_peripheral/Source/gd32e23x_rcu.c:516:36
	str	r0, [sp, #24]                   @ 4-byte Spill
	cbnz	r1, .LBB21_9
	b	.LBB21_8
.LBB21_8:                               @   in Loop: Header=BB21_7 Depth=1
	.loc	4 516 65                        @ ../Firmware/GD32E23x_standard_peripheral/Source/gd32e23x_rcu.c:516:65
	ldr	r0, [sp, #40]
	ldr	r1, __arm_cp.21_5
	.loc	4 516 62                        @ ../Firmware/GD32E23x_standard_peripheral/Source/gd32e23x_rcu.c:516:62
	subs	r0, r0, r1
	subs	r1, r0, #1
	sbcs	r0, r1
	str	r0, [sp, #24]                   @ 4-byte Spill
	b	.LBB21_9
.LBB21_9:                               @   in Loop: Header=BB21_7 Depth=1
	.loc	4 0 0                           @ ../Firmware/GD32E23x_standard_peripheral/Source/gd32e23x_rcu.c:0:0
	ldr	r0, [sp, #24]                   @ 4-byte Reload
	.loc	4 516 9                         @ ../Firmware/GD32E23x_standard_peripheral/Source/gd32e23x_rcu.c:516:9
	lsls	r0, r0, #31
	cbz	r0, .LBB21_11
	b	.LBB21_10
.LBB21_10:                              @   in Loop: Header=BB21_7 Depth=1
	.loc	4 0 9                           @ ../Firmware/GD32E23x_standard_peripheral/Source/gd32e23x_rcu.c:0:9
	movs	r0, #17
.Ltmp46:
	.loc	4 517 25 is_stmt 1              @ ../Firmware/GD32E23x_standard_peripheral/Source/gd32e23x_rcu.c:517:25
	bl	rcu_flag_get
	add	r1, sp, #32
	.loc	4 517 23 is_stmt 0              @ ../Firmware/GD32E23x_standard_peripheral/Source/gd32e23x_rcu.c:517:23
	strb	r0, [r1]
	.loc	4 518 20 is_stmt 1              @ ../Firmware/GD32E23x_standard_peripheral/Source/gd32e23x_rcu.c:518:20
	ldr	r0, [sp, #40]
	adds	r0, r0, #1
	str	r0, [sp, #40]
.Ltmp47:
	.loc	4 516 9                         @ ../Firmware/GD32E23x_standard_peripheral/Source/gd32e23x_rcu.c:516:9
	b	.LBB21_7
.LBB21_11:
	.loc	4 0 9 is_stmt 0                 @ ../Firmware/GD32E23x_standard_peripheral/Source/gd32e23x_rcu.c:0:9
	movs	r0, #17
.Ltmp48:
	.loc	4 521 21 is_stmt 1              @ ../Firmware/GD32E23x_standard_peripheral/Source/gd32e23x_rcu.c:521:21
	bl	rcu_flag_get
.Ltmp49:
	.loc	4 521 12 is_stmt 0              @ ../Firmware/GD32E23x_standard_peripheral/Source/gd32e23x_rcu.c:521:12
	cbz	r0, .LBB21_13
	b	.LBB21_12
.LBB21_12:
	.loc	4 0 12                          @ ../Firmware/GD32E23x_standard_peripheral/Source/gd32e23x_rcu.c:0:12
	add	r1, sp, #36
	movs	r0, #1
.Ltmp50:
	.loc	4 522 19 is_stmt 1              @ ../Firmware/GD32E23x_standard_peripheral/Source/gd32e23x_rcu.c:522:19
	strb	r0, [r1]
	.loc	4 523 9                         @ ../Firmware/GD32E23x_standard_peripheral/Source/gd32e23x_rcu.c:523:9
	b	.LBB21_13
.Ltmp51:
.LBB21_13:
	.loc	4 524 9                         @ ../Firmware/GD32E23x_standard_peripheral/Source/gd32e23x_rcu.c:524:9
	b	.LBB21_55
.LBB21_14:
	.loc	4 528 9                         @ ../Firmware/GD32E23x_standard_peripheral/Source/gd32e23x_rcu.c:528:9
	b	.LBB21_15
.LBB21_15:                              @ =>This Inner Loop Header: Depth=1
	.loc	4 0 9 is_stmt 0                 @ ../Firmware/GD32E23x_standard_peripheral/Source/gd32e23x_rcu.c:0:9
	add	r0, sp, #32
	.loc	4 528 25                        @ ../Firmware/GD32E23x_standard_peripheral/Source/gd32e23x_rcu.c:528:25
	ldrb	r1, [r0]
	movs	r0, #0
	.loc	4 528 36                        @ ../Firmware/GD32E23x_standard_peripheral/Source/gd32e23x_rcu.c:528:36
	str	r0, [sp, #20]                   @ 4-byte Spill
	cbnz	r1, .LBB21_17
	b	.LBB21_16
.LBB21_16:                              @   in Loop: Header=BB21_15 Depth=1
	.loc	4 528 65                        @ ../Firmware/GD32E23x_standard_peripheral/Source/gd32e23x_rcu.c:528:65
	ldr	r0, [sp, #40]
	ldr	r1, __arm_cp.21_3
	.loc	4 528 62                        @ ../Firmware/GD32E23x_standard_peripheral/Source/gd32e23x_rcu.c:528:62
	subs	r0, r0, r1
	subs	r1, r0, #1
	sbcs	r0, r1
	str	r0, [sp, #20]                   @ 4-byte Spill
	b	.LBB21_17
.LBB21_17:                              @   in Loop: Header=BB21_15 Depth=1
	.loc	4 0 0                           @ ../Firmware/GD32E23x_standard_peripheral/Source/gd32e23x_rcu.c:0:0
	ldr	r0, [sp, #20]                   @ 4-byte Reload
	.loc	4 528 9                         @ ../Firmware/GD32E23x_standard_peripheral/Source/gd32e23x_rcu.c:528:9
	lsls	r0, r0, #31
	cbz	r0, .LBB21_19
	b	.LBB21_18
.LBB21_18:                              @   in Loop: Header=BB21_15 Depth=1
	.loc	4 0 9                           @ ../Firmware/GD32E23x_standard_peripheral/Source/gd32e23x_rcu.c:0:9
	ldr	r0, __arm_cp.21_4
.Ltmp52:
	.loc	4 529 25 is_stmt 1              @ ../Firmware/GD32E23x_standard_peripheral/Source/gd32e23x_rcu.c:529:25
	bl	rcu_flag_get
	add	r1, sp, #32
	.loc	4 529 23 is_stmt 0              @ ../Firmware/GD32E23x_standard_peripheral/Source/gd32e23x_rcu.c:529:23
	strb	r0, [r1]
	.loc	4 530 20 is_stmt 1              @ ../Firmware/GD32E23x_standard_peripheral/Source/gd32e23x_rcu.c:530:20
	ldr	r0, [sp, #40]
	adds	r0, r0, #1
	str	r0, [sp, #40]
.Ltmp53:
	.loc	4 528 9                         @ ../Firmware/GD32E23x_standard_peripheral/Source/gd32e23x_rcu.c:528:9
	b	.LBB21_15
.LBB21_19:
	.loc	4 0 9 is_stmt 0                 @ ../Firmware/GD32E23x_standard_peripheral/Source/gd32e23x_rcu.c:0:9
	ldr	r0, __arm_cp.21_4
.Ltmp54:
	.loc	4 533 21 is_stmt 1              @ ../Firmware/GD32E23x_standard_peripheral/Source/gd32e23x_rcu.c:533:21
	bl	rcu_flag_get
.Ltmp55:
	.loc	4 533 12 is_stmt 0              @ ../Firmware/GD32E23x_standard_peripheral/Source/gd32e23x_rcu.c:533:12
	cbz	r0, .LBB21_21
	b	.LBB21_20
.LBB21_20:
	.loc	4 0 12                          @ ../Firmware/GD32E23x_standard_peripheral/Source/gd32e23x_rcu.c:0:12
	add	r1, sp, #36
	movs	r0, #1
.Ltmp56:
	.loc	4 534 19 is_stmt 1              @ ../Firmware/GD32E23x_standard_peripheral/Source/gd32e23x_rcu.c:534:19
	strb	r0, [r1]
	.loc	4 535 9                         @ ../Firmware/GD32E23x_standard_peripheral/Source/gd32e23x_rcu.c:535:9
	b	.LBB21_21
.Ltmp57:
.LBB21_21:
	.loc	4 536 9                         @ ../Firmware/GD32E23x_standard_peripheral/Source/gd32e23x_rcu.c:536:9
	b	.LBB21_55
.LBB21_22:
	.loc	4 540 9                         @ ../Firmware/GD32E23x_standard_peripheral/Source/gd32e23x_rcu.c:540:9
	b	.LBB21_23
.LBB21_23:                              @ =>This Inner Loop Header: Depth=1
	.loc	4 0 9 is_stmt 0                 @ ../Firmware/GD32E23x_standard_peripheral/Source/gd32e23x_rcu.c:0:9
	add	r0, sp, #32
	.loc	4 540 25                        @ ../Firmware/GD32E23x_standard_peripheral/Source/gd32e23x_rcu.c:540:25
	ldrb	r1, [r0]
	movs	r0, #0
	.loc	4 540 36                        @ ../Firmware/GD32E23x_standard_peripheral/Source/gd32e23x_rcu.c:540:36
	str	r0, [sp, #16]                   @ 4-byte Spill
	cbnz	r1, .LBB21_25
	b	.LBB21_24
.LBB21_24:                              @   in Loop: Header=BB21_23 Depth=1
	.loc	4 540 65                        @ ../Firmware/GD32E23x_standard_peripheral/Source/gd32e23x_rcu.c:540:65
	ldr	r0, [sp, #40]
	movw	r1, #1280
	.loc	4 540 62                        @ ../Firmware/GD32E23x_standard_peripheral/Source/gd32e23x_rcu.c:540:62
	subs	r0, r0, r1
	subs	r1, r0, #1
	sbcs	r0, r1
	str	r0, [sp, #16]                   @ 4-byte Spill
	b	.LBB21_25
.LBB21_25:                              @   in Loop: Header=BB21_23 Depth=1
	.loc	4 0 0                           @ ../Firmware/GD32E23x_standard_peripheral/Source/gd32e23x_rcu.c:0:0
	ldr	r0, [sp, #16]                   @ 4-byte Reload
	.loc	4 540 9                         @ ../Firmware/GD32E23x_standard_peripheral/Source/gd32e23x_rcu.c:540:9
	lsls	r0, r0, #31
	cbz	r0, .LBB21_27
	b	.LBB21_26
.LBB21_26:                              @   in Loop: Header=BB21_23 Depth=1
	.loc	4 0 9                           @ ../Firmware/GD32E23x_standard_peripheral/Source/gd32e23x_rcu.c:0:9
	movs	r0, #1
.Ltmp58:
	.loc	4 541 25 is_stmt 1              @ ../Firmware/GD32E23x_standard_peripheral/Source/gd32e23x_rcu.c:541:25
	bl	rcu_flag_get
	add	r1, sp, #32
	.loc	4 541 23 is_stmt 0              @ ../Firmware/GD32E23x_standard_peripheral/Source/gd32e23x_rcu.c:541:23
	strb	r0, [r1]
	.loc	4 542 20 is_stmt 1              @ ../Firmware/GD32E23x_standard_peripheral/Source/gd32e23x_rcu.c:542:20
	ldr	r0, [sp, #40]
	adds	r0, r0, #1
	str	r0, [sp, #40]
.Ltmp59:
	.loc	4 540 9                         @ ../Firmware/GD32E23x_standard_peripheral/Source/gd32e23x_rcu.c:540:9
	b	.LBB21_23
.LBB21_27:
	.loc	4 0 9 is_stmt 0                 @ ../Firmware/GD32E23x_standard_peripheral/Source/gd32e23x_rcu.c:0:9
	movs	r0, #1
.Ltmp60:
	.loc	4 545 21 is_stmt 1              @ ../Firmware/GD32E23x_standard_peripheral/Source/gd32e23x_rcu.c:545:21
	bl	rcu_flag_get
.Ltmp61:
	.loc	4 545 12 is_stmt 0              @ ../Firmware/GD32E23x_standard_peripheral/Source/gd32e23x_rcu.c:545:12
	cbz	r0, .LBB21_29
	b	.LBB21_28
.LBB21_28:
	.loc	4 0 12                          @ ../Firmware/GD32E23x_standard_peripheral/Source/gd32e23x_rcu.c:0:12
	add	r1, sp, #36
	movs	r0, #1
.Ltmp62:
	.loc	4 546 19 is_stmt 1              @ ../Firmware/GD32E23x_standard_peripheral/Source/gd32e23x_rcu.c:546:19
	strb	r0, [r1]
	.loc	4 547 9                         @ ../Firmware/GD32E23x_standard_peripheral/Source/gd32e23x_rcu.c:547:9
	b	.LBB21_29
.Ltmp63:
.LBB21_29:
	.loc	4 548 9                         @ ../Firmware/GD32E23x_standard_peripheral/Source/gd32e23x_rcu.c:548:9
	b	.LBB21_55
.LBB21_30:
	.loc	4 552 9                         @ ../Firmware/GD32E23x_standard_peripheral/Source/gd32e23x_rcu.c:552:9
	b	.LBB21_31
.LBB21_31:                              @ =>This Inner Loop Header: Depth=1
	.loc	4 0 9 is_stmt 0                 @ ../Firmware/GD32E23x_standard_peripheral/Source/gd32e23x_rcu.c:0:9
	add	r0, sp, #32
	.loc	4 552 25                        @ ../Firmware/GD32E23x_standard_peripheral/Source/gd32e23x_rcu.c:552:25
	ldrb	r1, [r0]
	movs	r0, #0
	.loc	4 552 36                        @ ../Firmware/GD32E23x_standard_peripheral/Source/gd32e23x_rcu.c:552:36
	str	r0, [sp, #12]                   @ 4-byte Spill
	cbnz	r1, .LBB21_33
	b	.LBB21_32
.LBB21_32:                              @   in Loop: Header=BB21_31 Depth=1
	.loc	4 552 63                        @ ../Firmware/GD32E23x_standard_peripheral/Source/gd32e23x_rcu.c:552:63
	ldr	r0, [sp, #40]
	ldr	r1, __arm_cp.21_0
	.loc	4 552 60                        @ ../Firmware/GD32E23x_standard_peripheral/Source/gd32e23x_rcu.c:552:60
	subs	r0, r0, r1
	subs	r1, r0, #1
	sbcs	r0, r1
	str	r0, [sp, #12]                   @ 4-byte Spill
	b	.LBB21_33
.LBB21_33:                              @   in Loop: Header=BB21_31 Depth=1
	.loc	4 0 0                           @ ../Firmware/GD32E23x_standard_peripheral/Source/gd32e23x_rcu.c:0:0
	ldr	r0, [sp, #12]                   @ 4-byte Reload
	.loc	4 552 9                         @ ../Firmware/GD32E23x_standard_peripheral/Source/gd32e23x_rcu.c:552:9
	lsls	r0, r0, #31
	cbz	r0, .LBB21_35
	b	.LBB21_34
.LBB21_34:                              @   in Loop: Header=BB21_31 Depth=1
	.loc	4 0 9                           @ ../Firmware/GD32E23x_standard_peripheral/Source/gd32e23x_rcu.c:0:9
	ldr	r0, __arm_cp.21_2
.Ltmp64:
	.loc	4 553 25 is_stmt 1              @ ../Firmware/GD32E23x_standard_peripheral/Source/gd32e23x_rcu.c:553:25
	bl	rcu_flag_get
	add	r1, sp, #32
	.loc	4 553 23 is_stmt 0              @ ../Firmware/GD32E23x_standard_peripheral/Source/gd32e23x_rcu.c:553:23
	strb	r0, [r1]
	.loc	4 554 20 is_stmt 1              @ ../Firmware/GD32E23x_standard_peripheral/Source/gd32e23x_rcu.c:554:20
	ldr	r0, [sp, #40]
	adds	r0, r0, #1
	str	r0, [sp, #40]
.Ltmp65:
	.loc	4 552 9                         @ ../Firmware/GD32E23x_standard_peripheral/Source/gd32e23x_rcu.c:552:9
	b	.LBB21_31
.LBB21_35:
	.loc	4 0 9 is_stmt 0                 @ ../Firmware/GD32E23x_standard_peripheral/Source/gd32e23x_rcu.c:0:9
	ldr	r0, __arm_cp.21_2
.Ltmp66:
	.loc	4 557 21 is_stmt 1              @ ../Firmware/GD32E23x_standard_peripheral/Source/gd32e23x_rcu.c:557:21
	bl	rcu_flag_get
.Ltmp67:
	.loc	4 557 12 is_stmt 0              @ ../Firmware/GD32E23x_standard_peripheral/Source/gd32e23x_rcu.c:557:12
	cbz	r0, .LBB21_37
	b	.LBB21_36
.LBB21_36:
	.loc	4 0 12                          @ ../Firmware/GD32E23x_standard_peripheral/Source/gd32e23x_rcu.c:0:12
	add	r1, sp, #36
	movs	r0, #1
.Ltmp68:
	.loc	4 558 19 is_stmt 1              @ ../Firmware/GD32E23x_standard_peripheral/Source/gd32e23x_rcu.c:558:19
	strb	r0, [r1]
	.loc	4 559 9                         @ ../Firmware/GD32E23x_standard_peripheral/Source/gd32e23x_rcu.c:559:9
	b	.LBB21_37
.Ltmp69:
.LBB21_37:
	.loc	4 560 9                         @ ../Firmware/GD32E23x_standard_peripheral/Source/gd32e23x_rcu.c:560:9
	b	.LBB21_55
.LBB21_38:
	.loc	4 564 9                         @ ../Firmware/GD32E23x_standard_peripheral/Source/gd32e23x_rcu.c:564:9
	b	.LBB21_39
.LBB21_39:                              @ =>This Inner Loop Header: Depth=1
	.loc	4 0 9 is_stmt 0                 @ ../Firmware/GD32E23x_standard_peripheral/Source/gd32e23x_rcu.c:0:9
	add	r0, sp, #32
	.loc	4 564 25                        @ ../Firmware/GD32E23x_standard_peripheral/Source/gd32e23x_rcu.c:564:25
	ldrb	r1, [r0]
	movs	r0, #0
	.loc	4 564 36                        @ ../Firmware/GD32E23x_standard_peripheral/Source/gd32e23x_rcu.c:564:36
	str	r0, [sp, #8]                    @ 4-byte Spill
	cbnz	r1, .LBB21_41
	b	.LBB21_40
.LBB21_40:                              @   in Loop: Header=BB21_39 Depth=1
	.loc	4 564 63                        @ ../Firmware/GD32E23x_standard_peripheral/Source/gd32e23x_rcu.c:564:63
	ldr	r0, [sp, #40]
	ldr	r1, __arm_cp.21_0
	.loc	4 564 60                        @ ../Firmware/GD32E23x_standard_peripheral/Source/gd32e23x_rcu.c:564:60
	subs	r0, r0, r1
	subs	r1, r0, #1
	sbcs	r0, r1
	str	r0, [sp, #8]                    @ 4-byte Spill
	b	.LBB21_41
.LBB21_41:                              @   in Loop: Header=BB21_39 Depth=1
	.loc	4 0 0                           @ ../Firmware/GD32E23x_standard_peripheral/Source/gd32e23x_rcu.c:0:0
	ldr	r0, [sp, #8]                    @ 4-byte Reload
	.loc	4 564 9                         @ ../Firmware/GD32E23x_standard_peripheral/Source/gd32e23x_rcu.c:564:9
	lsls	r0, r0, #31
	cbz	r0, .LBB21_43
	b	.LBB21_42
.LBB21_42:                              @   in Loop: Header=BB21_39 Depth=1
	.loc	4 0 9                           @ ../Firmware/GD32E23x_standard_peripheral/Source/gd32e23x_rcu.c:0:9
	ldr	r0, __arm_cp.21_1
.Ltmp70:
	.loc	4 565 25 is_stmt 1              @ ../Firmware/GD32E23x_standard_peripheral/Source/gd32e23x_rcu.c:565:25
	bl	rcu_flag_get
	add	r1, sp, #32
	.loc	4 565 23 is_stmt 0              @ ../Firmware/GD32E23x_standard_peripheral/Source/gd32e23x_rcu.c:565:23
	strb	r0, [r1]
	.loc	4 566 20 is_stmt 1              @ ../Firmware/GD32E23x_standard_peripheral/Source/gd32e23x_rcu.c:566:20
	ldr	r0, [sp, #40]
	adds	r0, r0, #1
	str	r0, [sp, #40]
.Ltmp71:
	.loc	4 564 9                         @ ../Firmware/GD32E23x_standard_peripheral/Source/gd32e23x_rcu.c:564:9
	b	.LBB21_39
.LBB21_43:
	.loc	4 0 9 is_stmt 0                 @ ../Firmware/GD32E23x_standard_peripheral/Source/gd32e23x_rcu.c:0:9
	ldr	r0, __arm_cp.21_1
.Ltmp72:
	.loc	4 569 21 is_stmt 1              @ ../Firmware/GD32E23x_standard_peripheral/Source/gd32e23x_rcu.c:569:21
	bl	rcu_flag_get
.Ltmp73:
	.loc	4 569 12 is_stmt 0              @ ../Firmware/GD32E23x_standard_peripheral/Source/gd32e23x_rcu.c:569:12
	cbz	r0, .LBB21_45
	b	.LBB21_44
.LBB21_44:
	.loc	4 0 12                          @ ../Firmware/GD32E23x_standard_peripheral/Source/gd32e23x_rcu.c:0:12
	add	r1, sp, #36
	movs	r0, #1
.Ltmp74:
	.loc	4 570 19 is_stmt 1              @ ../Firmware/GD32E23x_standard_peripheral/Source/gd32e23x_rcu.c:570:19
	strb	r0, [r1]
	.loc	4 571 9                         @ ../Firmware/GD32E23x_standard_peripheral/Source/gd32e23x_rcu.c:571:9
	b	.LBB21_45
.Ltmp75:
.LBB21_45:
	.loc	4 572 9                         @ ../Firmware/GD32E23x_standard_peripheral/Source/gd32e23x_rcu.c:572:9
	b	.LBB21_55
.LBB21_46:
	.loc	4 576 9                         @ ../Firmware/GD32E23x_standard_peripheral/Source/gd32e23x_rcu.c:576:9
	b	.LBB21_47
.LBB21_47:                              @ =>This Inner Loop Header: Depth=1
	.loc	4 0 9 is_stmt 0                 @ ../Firmware/GD32E23x_standard_peripheral/Source/gd32e23x_rcu.c:0:9
	add	r0, sp, #32
	.loc	4 576 25                        @ ../Firmware/GD32E23x_standard_peripheral/Source/gd32e23x_rcu.c:576:25
	ldrb	r1, [r0]
	movs	r0, #0
	.loc	4 576 36                        @ ../Firmware/GD32E23x_standard_peripheral/Source/gd32e23x_rcu.c:576:36
	str	r0, [sp, #4]                    @ 4-byte Spill
	cbnz	r1, .LBB21_49
	b	.LBB21_48
.LBB21_48:                              @   in Loop: Header=BB21_47 Depth=1
	.loc	4 576 63                        @ ../Firmware/GD32E23x_standard_peripheral/Source/gd32e23x_rcu.c:576:63
	ldr	r0, [sp, #40]
	ldr	r1, __arm_cp.21_0
	.loc	4 576 60                        @ ../Firmware/GD32E23x_standard_peripheral/Source/gd32e23x_rcu.c:576:60
	subs	r0, r0, r1
	subs	r1, r0, #1
	sbcs	r0, r1
	str	r0, [sp, #4]                    @ 4-byte Spill
	b	.LBB21_49
.LBB21_49:                              @   in Loop: Header=BB21_47 Depth=1
	.loc	4 0 0                           @ ../Firmware/GD32E23x_standard_peripheral/Source/gd32e23x_rcu.c:0:0
	ldr	r0, [sp, #4]                    @ 4-byte Reload
	.loc	4 576 9                         @ ../Firmware/GD32E23x_standard_peripheral/Source/gd32e23x_rcu.c:576:9
	lsls	r0, r0, #31
	cbz	r0, .LBB21_51
	b	.LBB21_50
.LBB21_50:                              @   in Loop: Header=BB21_47 Depth=1
	.loc	4 0 9                           @ ../Firmware/GD32E23x_standard_peripheral/Source/gd32e23x_rcu.c:0:9
	movs	r0, #25
.Ltmp76:
	.loc	4 577 25 is_stmt 1              @ ../Firmware/GD32E23x_standard_peripheral/Source/gd32e23x_rcu.c:577:25
	bl	rcu_flag_get
	add	r1, sp, #32
	.loc	4 577 23 is_stmt 0              @ ../Firmware/GD32E23x_standard_peripheral/Source/gd32e23x_rcu.c:577:23
	strb	r0, [r1]
	.loc	4 578 20 is_stmt 1              @ ../Firmware/GD32E23x_standard_peripheral/Source/gd32e23x_rcu.c:578:20
	ldr	r0, [sp, #40]
	adds	r0, r0, #1
	str	r0, [sp, #40]
.Ltmp77:
	.loc	4 576 9                         @ ../Firmware/GD32E23x_standard_peripheral/Source/gd32e23x_rcu.c:576:9
	b	.LBB21_47
.LBB21_51:
	.loc	4 0 9 is_stmt 0                 @ ../Firmware/GD32E23x_standard_peripheral/Source/gd32e23x_rcu.c:0:9
	movs	r0, #25
.Ltmp78:
	.loc	4 581 21 is_stmt 1              @ ../Firmware/GD32E23x_standard_peripheral/Source/gd32e23x_rcu.c:581:21
	bl	rcu_flag_get
.Ltmp79:
	.loc	4 581 12 is_stmt 0              @ ../Firmware/GD32E23x_standard_peripheral/Source/gd32e23x_rcu.c:581:12
	cbz	r0, .LBB21_53
	b	.LBB21_52
.LBB21_52:
	.loc	4 0 12                          @ ../Firmware/GD32E23x_standard_peripheral/Source/gd32e23x_rcu.c:0:12
	add	r1, sp, #36
	movs	r0, #1
.Ltmp80:
	.loc	4 582 19 is_stmt 1              @ ../Firmware/GD32E23x_standard_peripheral/Source/gd32e23x_rcu.c:582:19
	strb	r0, [r1]
	.loc	4 583 9                         @ ../Firmware/GD32E23x_standard_peripheral/Source/gd32e23x_rcu.c:583:9
	b	.LBB21_53
.Ltmp81:
.LBB21_53:
	.loc	4 584 9                         @ ../Firmware/GD32E23x_standard_peripheral/Source/gd32e23x_rcu.c:584:9
	b	.LBB21_55
.LBB21_54:
	.loc	4 587 9                         @ ../Firmware/GD32E23x_standard_peripheral/Source/gd32e23x_rcu.c:587:9
	b	.LBB21_55
.Ltmp82:
.LBB21_55:
	.loc	4 0 9 is_stmt 0                 @ ../Firmware/GD32E23x_standard_peripheral/Source/gd32e23x_rcu.c:0:9
	add	r0, sp, #36
	.loc	4 590 12 is_stmt 1              @ ../Firmware/GD32E23x_standard_peripheral/Source/gd32e23x_rcu.c:590:12
	ldrb	r0, [r0]
	.loc	4 590 5 is_stmt 0               @ ../Firmware/GD32E23x_standard_peripheral/Source/gd32e23x_rcu.c:590:5
	add	sp, #48
	pop	{r7, pc}
.Ltmp83:
	.p2align	2
@ %bb.56:
	.loc	4 0 5                           @ ../Firmware/GD32E23x_standard_peripheral/Source/gd32e23x_rcu.c:0:5
__arm_cp.21_0:
	.long	1048575                         @ 0xfffff
.Lcpi_end32:
	.size	__arm_cp.21_0, .Lcpi_end32-__arm_cp.21_0
__arm_cp.21_1:
	.long	2305                            @ 0x901
.Lcpi_end33:
	.size	__arm_cp.21_1, .Lcpi_end33-__arm_cp.21_1
__arm_cp.21_2:
	.long	3329                            @ 0xd01
.Lcpi_end34:
	.size	__arm_cp.21_2, .Lcpi_end34-__arm_cp.21_2
__arm_cp.21_3:
	.long	67108863                        @ 0x3ffffff
.Lcpi_end35:
	.size	__arm_cp.21_3, .Lcpi_end35-__arm_cp.21_3
__arm_cp.21_4:
	.long	2049                            @ 0x801
.Lcpi_end36:
	.size	__arm_cp.21_4, .Lcpi_end36-__arm_cp.21_4
__arm_cp.21_5:
	.long	65535                           @ 0xffff
.Lcpi_end37:
	.size	__arm_cp.21_5, .Lcpi_end37-__arm_cp.21_5
.Lfunc_end21:
	.size	rcu_osci_stab_wait, .Lfunc_end21-rcu_osci_stab_wait
	.cfi_endproc
	.cantunwind
	.fnend
                                        @ -- End function
	.section	.text.rcu_flag_get,"ax",%progbits
	.hidden	rcu_flag_get                    @ -- Begin function rcu_flag_get
	.globl	rcu_flag_get
	.p2align	2
	.type	rcu_flag_get,%function
	.code	16                              @ @rcu_flag_get
	.thumb_func
rcu_flag_get:
.Lfunc_begin22:
	.loc	4 962 0 is_stmt 1               @ ../Firmware/GD32E23x_standard_peripheral/Source/gd32e23x_rcu.c:962:0
	.fnstart
	.cfi_startproc
@ %bb.0:
	.pad	#8
	sub	sp, #8
	.cfi_def_cfa_offset 8
                                        @ kill: def $r1 killed $r0
	mov	r1, sp
	strh	r0, [r1]
.Ltmp84:
	.loc	4 963 18 prologue_end           @ ../Firmware/GD32E23x_standard_peripheral/Source/gd32e23x_rcu.c:963:18
	ldrh	r0, [r1]
	lsrs	r0, r0, #6
	ldr	r2, __arm_cp.22_0
	ldr	r0, [r0, r2]
	.loc	4 963 38 is_stmt 0              @ ../Firmware/GD32E23x_standard_peripheral/Source/gd32e23x_rcu.c:963:38
	ldrh	r1, [r1]
	movs	r2, #31
	ands	r1, r2
.Ltmp85:
	.loc	4 963 8                         @ ../Firmware/GD32E23x_standard_peripheral/Source/gd32e23x_rcu.c:963:8
	lsrs	r0, r1
	lsls	r0, r0, #31
	cbz	r0, .LBB22_2
	b	.LBB22_1
.LBB22_1:
	.loc	4 0 8                           @ ../Firmware/GD32E23x_standard_peripheral/Source/gd32e23x_rcu.c:0:8
	add	r1, sp, #4
	movs	r0, #1
.Ltmp86:
	.loc	4 964 9 is_stmt 1               @ ../Firmware/GD32E23x_standard_peripheral/Source/gd32e23x_rcu.c:964:9
	strb	r0, [r1]
	b	.LBB22_3
.Ltmp87:
.LBB22_2:
	.loc	4 0 9 is_stmt 0                 @ ../Firmware/GD32E23x_standard_peripheral/Source/gd32e23x_rcu.c:0:9
	add	r1, sp, #4
	movs	r0, #0
.Ltmp88:
	.loc	4 966 9 is_stmt 1               @ ../Firmware/GD32E23x_standard_peripheral/Source/gd32e23x_rcu.c:966:9
	strb	r0, [r1]
	b	.LBB22_3
.Ltmp89:
.LBB22_3:
	.loc	4 0 9 is_stmt 0                 @ ../Firmware/GD32E23x_standard_peripheral/Source/gd32e23x_rcu.c:0:9
	add	r0, sp, #4
	.loc	4 968 1 is_stmt 1               @ ../Firmware/GD32E23x_standard_peripheral/Source/gd32e23x_rcu.c:968:1
	ldrb	r0, [r0]
	add	sp, #8
	bx	lr
.Ltmp90:
	.p2align	2
@ %bb.4:
	.loc	4 0 1 is_stmt 0                 @ ../Firmware/GD32E23x_standard_peripheral/Source/gd32e23x_rcu.c:0:1
__arm_cp.22_0:
	.long	1073876992                      @ 0x40021000
.Lcpi_end38:
	.size	__arm_cp.22_0, .Lcpi_end38-__arm_cp.22_0
.Lfunc_end22:
	.size	rcu_flag_get, .Lfunc_end22-rcu_flag_get
	.cfi_endproc
	.cantunwind
	.fnend
                                        @ -- End function
	.section	.text.rcu_osci_on,"ax",%progbits
	.hidden	rcu_osci_on                     @ -- Begin function rcu_osci_on
	.globl	rcu_osci_on
	.p2align	2
	.type	rcu_osci_on,%function
	.code	16                              @ @rcu_osci_on
	.thumb_func
rcu_osci_on:
.Lfunc_begin23:
	.loc	4 607 0 is_stmt 1               @ ../Firmware/GD32E23x_standard_peripheral/Source/gd32e23x_rcu.c:607:0
	.fnstart
	.cfi_startproc
@ %bb.0:
	.pad	#4
	sub	sp, #4
	.cfi_def_cfa_offset 4
	mov	r1, r0
                                        @ kill: def $r0 killed $r1
	mov	r0, sp
	strh	r1, [r0]
.Ltmp91:
	.loc	4 608 26 prologue_end           @ ../Firmware/GD32E23x_standard_peripheral/Source/gd32e23x_rcu.c:608:26
	ldrh	r0, [r0]
	movs	r2, #31
	mov	r1, r0
	ands	r1, r2
	movs	r3, #1
	lsls	r3, r1
	.loc	4 608 5 is_stmt 0               @ ../Firmware/GD32E23x_standard_peripheral/Source/gd32e23x_rcu.c:608:5
	lsrs	r1, r0, #6
	ldr	r2, __arm_cp.23_0
	.loc	4 608 23                        @ ../Firmware/GD32E23x_standard_peripheral/Source/gd32e23x_rcu.c:608:23
	ldr	r0, [r1, r2]
	orrs	r0, r3
	str	r0, [r1, r2]
	.loc	4 609 1 is_stmt 1               @ ../Firmware/GD32E23x_standard_peripheral/Source/gd32e23x_rcu.c:609:1
	add	sp, #4
	bx	lr
.Ltmp92:
	.p2align	2
@ %bb.1:
	.loc	4 0 1 is_stmt 0                 @ ../Firmware/GD32E23x_standard_peripheral/Source/gd32e23x_rcu.c:0:1
__arm_cp.23_0:
	.long	1073876992                      @ 0x40021000
.Lcpi_end39:
	.size	__arm_cp.23_0, .Lcpi_end39-__arm_cp.23_0
.Lfunc_end23:
	.size	rcu_osci_on, .Lfunc_end23-rcu_osci_on
	.cfi_endproc
	.cantunwind
	.fnend
                                        @ -- End function
	.section	.text.rcu_osci_off,"ax",%progbits
	.hidden	rcu_osci_off                    @ -- Begin function rcu_osci_off
	.globl	rcu_osci_off
	.p2align	2
	.type	rcu_osci_off,%function
	.code	16                              @ @rcu_osci_off
	.thumb_func
rcu_osci_off:
.Lfunc_begin24:
	.loc	4 625 0 is_stmt 1               @ ../Firmware/GD32E23x_standard_peripheral/Source/gd32e23x_rcu.c:625:0
	.fnstart
	.cfi_startproc
@ %bb.0:
	.pad	#4
	sub	sp, #4
	.cfi_def_cfa_offset 4
	mov	r1, r0
                                        @ kill: def $r0 killed $r1
	mov	r0, sp
	strh	r1, [r0]
.Ltmp93:
	.loc	4 626 27 prologue_end           @ ../Firmware/GD32E23x_standard_peripheral/Source/gd32e23x_rcu.c:626:27
	ldrh	r0, [r0]
	movs	r2, #31
	mov	r1, r0
	ands	r1, r2
	movs	r3, #1
	lsls	r3, r1
	.loc	4 626 5 is_stmt 0               @ ../Firmware/GD32E23x_standard_peripheral/Source/gd32e23x_rcu.c:626:5
	lsrs	r1, r0, #6
	ldr	r2, __arm_cp.24_0
	.loc	4 626 23                        @ ../Firmware/GD32E23x_standard_peripheral/Source/gd32e23x_rcu.c:626:23
	ldr	r0, [r1, r2]
	bics	r0, r3
	str	r0, [r1, r2]
	.loc	4 627 1 is_stmt 1               @ ../Firmware/GD32E23x_standard_peripheral/Source/gd32e23x_rcu.c:627:1
	add	sp, #4
	bx	lr
.Ltmp94:
	.p2align	2
@ %bb.1:
	.loc	4 0 1 is_stmt 0                 @ ../Firmware/GD32E23x_standard_peripheral/Source/gd32e23x_rcu.c:0:1
__arm_cp.24_0:
	.long	1073876992                      @ 0x40021000
.Lcpi_end40:
	.size	__arm_cp.24_0, .Lcpi_end40-__arm_cp.24_0
.Lfunc_end24:
	.size	rcu_osci_off, .Lfunc_end24-rcu_osci_off
	.cfi_endproc
	.cantunwind
	.fnend
                                        @ -- End function
	.section	.text.rcu_osci_bypass_mode_enable,"ax",%progbits
	.hidden	rcu_osci_bypass_mode_enable     @ -- Begin function rcu_osci_bypass_mode_enable
	.globl	rcu_osci_bypass_mode_enable
	.p2align	2
	.type	rcu_osci_bypass_mode_enable,%function
	.code	16                              @ @rcu_osci_bypass_mode_enable
	.thumb_func
rcu_osci_bypass_mode_enable:
.Lfunc_begin25:
	.loc	4 639 0 is_stmt 1               @ ../Firmware/GD32E23x_standard_peripheral/Source/gd32e23x_rcu.c:639:0
	.fnstart
	.cfi_startproc
@ %bb.0:
	.pad	#12
	sub	sp, #12
	.cfi_def_cfa_offset 12
	mov	r1, r0
                                        @ kill: def $r0 killed $r1
	add	r0, sp, #8
	strh	r1, [r0]
.Ltmp95:
	.loc	4 641 12 prologue_end           @ ../Firmware/GD32E23x_standard_peripheral/Source/gd32e23x_rcu.c:641:12
	ldrh	r0, [r0]
	.loc	4 641 5 is_stmt 0               @ ../Firmware/GD32E23x_standard_peripheral/Source/gd32e23x_rcu.c:641:5
	str	r0, [sp]                        @ 4-byte Spill
	cbz	r0, .LBB25_8
	b	.LBB25_1
.LBB25_1:
	ldr	r0, [sp]                        @ 4-byte Reload
	cmp	r0, #16
	beq	.LBB25_6
	b	.LBB25_2
.LBB25_2:
	ldr	r0, [sp]                        @ 4-byte Reload
	cmp	r0, #24
	beq	.LBB25_8
	b	.LBB25_3
.LBB25_3:
	.loc	4 0 5                           @ ../Firmware/GD32E23x_standard_peripheral/Source/gd32e23x_rcu.c:0:5
	ldr	r0, [sp]                        @ 4-byte Reload
	movw	r1, #2048
	.loc	4 641 5                         @ ../Firmware/GD32E23x_standard_peripheral/Source/gd32e23x_rcu.c:641:5
	cmp	r0, r1
	beq	.LBB25_7
	b	.LBB25_4
.LBB25_4:
	.loc	4 0 5                           @ ../Firmware/GD32E23x_standard_peripheral/Source/gd32e23x_rcu.c:0:5
	ldr	r0, [sp]                        @ 4-byte Reload
	movw	r1, #2304
	.loc	4 641 5                         @ ../Firmware/GD32E23x_standard_peripheral/Source/gd32e23x_rcu.c:641:5
	cmp	r0, r1
	beq	.LBB25_8
	b	.LBB25_5
.LBB25_5:
	.loc	4 0 5                           @ ../Firmware/GD32E23x_standard_peripheral/Source/gd32e23x_rcu.c:0:5
	ldr	r0, [sp]                        @ 4-byte Reload
	movw	r1, #3328
	.loc	4 641 5                         @ ../Firmware/GD32E23x_standard_peripheral/Source/gd32e23x_rcu.c:641:5
	cmp	r0, r1
	beq	.LBB25_8
	b	.LBB25_9
.LBB25_6:
	.loc	4 0 5                           @ ../Firmware/GD32E23x_standard_peripheral/Source/gd32e23x_rcu.c:0:5
	ldr	r1, __arm_cp.25_1
.Ltmp96:
	.loc	4 644 15 is_stmt 1              @ ../Firmware/GD32E23x_standard_peripheral/Source/gd32e23x_rcu.c:644:15
	ldr	r0, [r1]
	.loc	4 644 13 is_stmt 0              @ ../Firmware/GD32E23x_standard_peripheral/Source/gd32e23x_rcu.c:644:13
	str	r0, [sp, #4]
	.loc	4 645 18 is_stmt 1              @ ../Firmware/GD32E23x_standard_peripheral/Source/gd32e23x_rcu.c:645:18
	ldr	r0, [r1]
	movs	r2, #1
	lsls	r3, r2, #16
	bics	r0, r3
	str	r0, [r1]
	.loc	4 646 21                        @ ../Firmware/GD32E23x_standard_peripheral/Source/gd32e23x_rcu.c:646:21
	ldr	r0, [sp, #4]
	lsls	r2, r2, #18
	.loc	4 646 25 is_stmt 0              @ ../Firmware/GD32E23x_standard_peripheral/Source/gd32e23x_rcu.c:646:25
	orrs	r0, r2
	.loc	4 646 18                        @ ../Firmware/GD32E23x_standard_peripheral/Source/gd32e23x_rcu.c:646:18
	str	r0, [r1]
	.loc	4 647 9 is_stmt 1               @ ../Firmware/GD32E23x_standard_peripheral/Source/gd32e23x_rcu.c:647:9
	b	.LBB25_10
.LBB25_7:
	.loc	4 0 9 is_stmt 0                 @ ../Firmware/GD32E23x_standard_peripheral/Source/gd32e23x_rcu.c:0:9
	ldr	r1, __arm_cp.25_0
	.loc	4 650 15 is_stmt 1              @ ../Firmware/GD32E23x_standard_peripheral/Source/gd32e23x_rcu.c:650:15
	ldr	r0, [r1]
	.loc	4 650 13 is_stmt 0              @ ../Firmware/GD32E23x_standard_peripheral/Source/gd32e23x_rcu.c:650:13
	str	r0, [sp, #4]
	.loc	4 651 19 is_stmt 1              @ ../Firmware/GD32E23x_standard_peripheral/Source/gd32e23x_rcu.c:651:19
	ldr	r0, [r1]
	movs	r2, #1
	bics	r0, r2
	str	r0, [r1]
	.loc	4 652 22                        @ ../Firmware/GD32E23x_standard_peripheral/Source/gd32e23x_rcu.c:652:22
	ldr	r0, [sp, #4]
	movs	r2, #4
	.loc	4 652 26 is_stmt 0              @ ../Firmware/GD32E23x_standard_peripheral/Source/gd32e23x_rcu.c:652:26
	orrs	r0, r2
	.loc	4 652 19                        @ ../Firmware/GD32E23x_standard_peripheral/Source/gd32e23x_rcu.c:652:19
	str	r0, [r1]
	.loc	4 653 9 is_stmt 1               @ ../Firmware/GD32E23x_standard_peripheral/Source/gd32e23x_rcu.c:653:9
	b	.LBB25_10
.LBB25_8:
	.loc	4 658 9                         @ ../Firmware/GD32E23x_standard_peripheral/Source/gd32e23x_rcu.c:658:9
	b	.LBB25_10
.LBB25_9:
	.loc	4 660 9                         @ ../Firmware/GD32E23x_standard_peripheral/Source/gd32e23x_rcu.c:660:9
	b	.LBB25_10
.Ltmp97:
.LBB25_10:
	.loc	4 662 1                         @ ../Firmware/GD32E23x_standard_peripheral/Source/gd32e23x_rcu.c:662:1
	add	sp, #12
	bx	lr
.Ltmp98:
	.p2align	2
@ %bb.11:
	.loc	4 0 1 is_stmt 0                 @ ../Firmware/GD32E23x_standard_peripheral/Source/gd32e23x_rcu.c:0:1
__arm_cp.25_0:
	.long	1073877024                      @ 0x40021020
.Lcpi_end41:
	.size	__arm_cp.25_0, .Lcpi_end41-__arm_cp.25_0
__arm_cp.25_1:
	.long	1073876992                      @ 0x40021000
.Lcpi_end42:
	.size	__arm_cp.25_1, .Lcpi_end42-__arm_cp.25_1
.Lfunc_end25:
	.size	rcu_osci_bypass_mode_enable, .Lfunc_end25-rcu_osci_bypass_mode_enable
	.cfi_endproc
	.cantunwind
	.fnend
                                        @ -- End function
	.section	.text.rcu_osci_bypass_mode_disable,"ax",%progbits
	.hidden	rcu_osci_bypass_mode_disable    @ -- Begin function rcu_osci_bypass_mode_disable
	.globl	rcu_osci_bypass_mode_disable
	.p2align	2
	.type	rcu_osci_bypass_mode_disable,%function
	.code	16                              @ @rcu_osci_bypass_mode_disable
	.thumb_func
rcu_osci_bypass_mode_disable:
.Lfunc_begin26:
	.loc	4 674 0 is_stmt 1               @ ../Firmware/GD32E23x_standard_peripheral/Source/gd32e23x_rcu.c:674:0
	.fnstart
	.cfi_startproc
@ %bb.0:
	.pad	#12
	sub	sp, #12
	.cfi_def_cfa_offset 12
	mov	r1, r0
                                        @ kill: def $r0 killed $r1
	add	r0, sp, #8
	strh	r1, [r0]
.Ltmp99:
	.loc	4 676 12 prologue_end           @ ../Firmware/GD32E23x_standard_peripheral/Source/gd32e23x_rcu.c:676:12
	ldrh	r0, [r0]
	.loc	4 676 5 is_stmt 0               @ ../Firmware/GD32E23x_standard_peripheral/Source/gd32e23x_rcu.c:676:5
	str	r0, [sp]                        @ 4-byte Spill
	cbz	r0, .LBB26_8
	b	.LBB26_1
.LBB26_1:
	ldr	r0, [sp]                        @ 4-byte Reload
	cmp	r0, #16
	beq	.LBB26_6
	b	.LBB26_2
.LBB26_2:
	ldr	r0, [sp]                        @ 4-byte Reload
	cmp	r0, #24
	beq	.LBB26_8
	b	.LBB26_3
.LBB26_3:
	.loc	4 0 5                           @ ../Firmware/GD32E23x_standard_peripheral/Source/gd32e23x_rcu.c:0:5
	ldr	r0, [sp]                        @ 4-byte Reload
	movw	r1, #2048
	.loc	4 676 5                         @ ../Firmware/GD32E23x_standard_peripheral/Source/gd32e23x_rcu.c:676:5
	cmp	r0, r1
	beq	.LBB26_7
	b	.LBB26_4
.LBB26_4:
	.loc	4 0 5                           @ ../Firmware/GD32E23x_standard_peripheral/Source/gd32e23x_rcu.c:0:5
	ldr	r0, [sp]                        @ 4-byte Reload
	movw	r1, #2304
	.loc	4 676 5                         @ ../Firmware/GD32E23x_standard_peripheral/Source/gd32e23x_rcu.c:676:5
	cmp	r0, r1
	beq	.LBB26_8
	b	.LBB26_5
.LBB26_5:
	.loc	4 0 5                           @ ../Firmware/GD32E23x_standard_peripheral/Source/gd32e23x_rcu.c:0:5
	ldr	r0, [sp]                        @ 4-byte Reload
	movw	r1, #3328
	.loc	4 676 5                         @ ../Firmware/GD32E23x_standard_peripheral/Source/gd32e23x_rcu.c:676:5
	cmp	r0, r1
	beq	.LBB26_8
	b	.LBB26_9
.LBB26_6:
	.loc	4 0 5                           @ ../Firmware/GD32E23x_standard_peripheral/Source/gd32e23x_rcu.c:0:5
	ldr	r1, __arm_cp.26_1
.Ltmp100:
	.loc	4 679 15 is_stmt 1              @ ../Firmware/GD32E23x_standard_peripheral/Source/gd32e23x_rcu.c:679:15
	ldr	r0, [r1]
	.loc	4 679 13 is_stmt 0              @ ../Firmware/GD32E23x_standard_peripheral/Source/gd32e23x_rcu.c:679:13
	str	r0, [sp, #4]
	.loc	4 680 18 is_stmt 1              @ ../Firmware/GD32E23x_standard_peripheral/Source/gd32e23x_rcu.c:680:18
	ldr	r0, [r1]
	movs	r2, #1
	lsls	r3, r2, #16
	bics	r0, r3
	str	r0, [r1]
	.loc	4 681 21                        @ ../Firmware/GD32E23x_standard_peripheral/Source/gd32e23x_rcu.c:681:21
	ldr	r0, [sp, #4]
	lsls	r2, r2, #18
	.loc	4 681 25 is_stmt 0              @ ../Firmware/GD32E23x_standard_peripheral/Source/gd32e23x_rcu.c:681:25
	bics	r0, r2
	.loc	4 681 18                        @ ../Firmware/GD32E23x_standard_peripheral/Source/gd32e23x_rcu.c:681:18
	str	r0, [r1]
	.loc	4 682 9 is_stmt 1               @ ../Firmware/GD32E23x_standard_peripheral/Source/gd32e23x_rcu.c:682:9
	b	.LBB26_10
.LBB26_7:
	.loc	4 0 9 is_stmt 0                 @ ../Firmware/GD32E23x_standard_peripheral/Source/gd32e23x_rcu.c:0:9
	ldr	r1, __arm_cp.26_0
	.loc	4 685 15 is_stmt 1              @ ../Firmware/GD32E23x_standard_peripheral/Source/gd32e23x_rcu.c:685:15
	ldr	r0, [r1]
	.loc	4 685 13 is_stmt 0              @ ../Firmware/GD32E23x_standard_peripheral/Source/gd32e23x_rcu.c:685:13
	str	r0, [sp, #4]
	.loc	4 686 19 is_stmt 1              @ ../Firmware/GD32E23x_standard_peripheral/Source/gd32e23x_rcu.c:686:19
	ldr	r0, [r1]
	movs	r2, #1
	bics	r0, r2
	str	r0, [r1]
	.loc	4 687 22                        @ ../Firmware/GD32E23x_standard_peripheral/Source/gd32e23x_rcu.c:687:22
	ldr	r0, [sp, #4]
	movs	r2, #4
	.loc	4 687 26 is_stmt 0              @ ../Firmware/GD32E23x_standard_peripheral/Source/gd32e23x_rcu.c:687:26
	bics	r0, r2
	.loc	4 687 19                        @ ../Firmware/GD32E23x_standard_peripheral/Source/gd32e23x_rcu.c:687:19
	str	r0, [r1]
	.loc	4 688 9 is_stmt 1               @ ../Firmware/GD32E23x_standard_peripheral/Source/gd32e23x_rcu.c:688:9
	b	.LBB26_10
.LBB26_8:
	.loc	4 693 9                         @ ../Firmware/GD32E23x_standard_peripheral/Source/gd32e23x_rcu.c:693:9
	b	.LBB26_10
.LBB26_9:
	.loc	4 695 9                         @ ../Firmware/GD32E23x_standard_peripheral/Source/gd32e23x_rcu.c:695:9
	b	.LBB26_10
.Ltmp101:
.LBB26_10:
	.loc	4 697 1                         @ ../Firmware/GD32E23x_standard_peripheral/Source/gd32e23x_rcu.c:697:1
	add	sp, #12
	bx	lr
.Ltmp102:
	.p2align	2
@ %bb.11:
	.loc	4 0 1 is_stmt 0                 @ ../Firmware/GD32E23x_standard_peripheral/Source/gd32e23x_rcu.c:0:1
__arm_cp.26_0:
	.long	1073877024                      @ 0x40021020
.Lcpi_end43:
	.size	__arm_cp.26_0, .Lcpi_end43-__arm_cp.26_0
__arm_cp.26_1:
	.long	1073876992                      @ 0x40021000
.Lcpi_end44:
	.size	__arm_cp.26_1, .Lcpi_end44-__arm_cp.26_1
.Lfunc_end26:
	.size	rcu_osci_bypass_mode_disable, .Lfunc_end26-rcu_osci_bypass_mode_disable
	.cfi_endproc
	.cantunwind
	.fnend
                                        @ -- End function
	.section	.text.rcu_hxtal_clock_monitor_enable,"ax",%progbits
	.hidden	rcu_hxtal_clock_monitor_enable  @ -- Begin function rcu_hxtal_clock_monitor_enable
	.globl	rcu_hxtal_clock_monitor_enable
	.p2align	2
	.type	rcu_hxtal_clock_monitor_enable,%function
	.code	16                              @ @rcu_hxtal_clock_monitor_enable
	.thumb_func
rcu_hxtal_clock_monitor_enable:
.Lfunc_begin27:
	.loc	4 706 0 is_stmt 1               @ ../Firmware/GD32E23x_standard_peripheral/Source/gd32e23x_rcu.c:706:0
	.fnstart
	.cfi_startproc
@ %bb.0:
	ldr	r1, __arm_cp.27_0
.Ltmp103:
	.loc	4 707 14 prologue_end           @ ../Firmware/GD32E23x_standard_peripheral/Source/gd32e23x_rcu.c:707:14
	ldr	r0, [r1]
	movs	r2, #1
	lsls	r2, r2, #19
	orrs	r0, r2
	str	r0, [r1]
	.loc	4 708 1                         @ ../Firmware/GD32E23x_standard_peripheral/Source/gd32e23x_rcu.c:708:1
	bx	lr
.Ltmp104:
	.p2align	2
@ %bb.1:
	.loc	4 0 1 is_stmt 0                 @ ../Firmware/GD32E23x_standard_peripheral/Source/gd32e23x_rcu.c:0:1
__arm_cp.27_0:
	.long	1073876992                      @ 0x40021000
.Lcpi_end45:
	.size	__arm_cp.27_0, .Lcpi_end45-__arm_cp.27_0
.Lfunc_end27:
	.size	rcu_hxtal_clock_monitor_enable, .Lfunc_end27-rcu_hxtal_clock_monitor_enable
	.cfi_endproc
	.cantunwind
	.fnend
                                        @ -- End function
	.section	.text.rcu_hxtal_clock_monitor_disable,"ax",%progbits
	.hidden	rcu_hxtal_clock_monitor_disable @ -- Begin function rcu_hxtal_clock_monitor_disable
	.globl	rcu_hxtal_clock_monitor_disable
	.p2align	2
	.type	rcu_hxtal_clock_monitor_disable,%function
	.code	16                              @ @rcu_hxtal_clock_monitor_disable
	.thumb_func
rcu_hxtal_clock_monitor_disable:
.Lfunc_begin28:
	.loc	4 717 0 is_stmt 1               @ ../Firmware/GD32E23x_standard_peripheral/Source/gd32e23x_rcu.c:717:0
	.fnstart
	.cfi_startproc
@ %bb.0:
	ldr	r1, __arm_cp.28_0
.Ltmp105:
	.loc	4 718 14 prologue_end           @ ../Firmware/GD32E23x_standard_peripheral/Source/gd32e23x_rcu.c:718:14
	ldr	r0, [r1]
	movs	r2, #1
	lsls	r2, r2, #19
	bics	r0, r2
	str	r0, [r1]
	.loc	4 719 1                         @ ../Firmware/GD32E23x_standard_peripheral/Source/gd32e23x_rcu.c:719:1
	bx	lr
.Ltmp106:
	.p2align	2
@ %bb.1:
	.loc	4 0 1 is_stmt 0                 @ ../Firmware/GD32E23x_standard_peripheral/Source/gd32e23x_rcu.c:0:1
__arm_cp.28_0:
	.long	1073876992                      @ 0x40021000
.Lcpi_end46:
	.size	__arm_cp.28_0, .Lcpi_end46-__arm_cp.28_0
.Lfunc_end28:
	.size	rcu_hxtal_clock_monitor_disable, .Lfunc_end28-rcu_hxtal_clock_monitor_disable
	.cfi_endproc
	.cantunwind
	.fnend
                                        @ -- End function
	.section	.text.rcu_irc8m_adjust_value_set,"ax",%progbits
	.hidden	rcu_irc8m_adjust_value_set      @ -- Begin function rcu_irc8m_adjust_value_set
	.globl	rcu_irc8m_adjust_value_set
	.p2align	2
	.type	rcu_irc8m_adjust_value_set,%function
	.code	16                              @ @rcu_irc8m_adjust_value_set
	.thumb_func
rcu_irc8m_adjust_value_set:
.Lfunc_begin29:
	.loc	4 728 0 is_stmt 1               @ ../Firmware/GD32E23x_standard_peripheral/Source/gd32e23x_rcu.c:728:0
	.fnstart
	.cfi_startproc
@ %bb.0:
	.pad	#8
	sub	sp, #8
	.cfi_def_cfa_offset 8
                                        @ kill: def $r1 killed $r0
	add	r2, sp, #4
	strb	r0, [r2]
	movs	r0, #0
.Ltmp107:
	.loc	4 729 14 prologue_end           @ ../Firmware/GD32E23x_standard_peripheral/Source/gd32e23x_rcu.c:729:14
	str	r0, [sp]
	ldr	r1, __arm_cp.29_0
	.loc	4 730 14                        @ ../Firmware/GD32E23x_standard_peripheral/Source/gd32e23x_rcu.c:730:14
	ldr	r0, [r1]
	.loc	4 730 12 is_stmt 0              @ ../Firmware/GD32E23x_standard_peripheral/Source/gd32e23x_rcu.c:730:12
	str	r0, [sp]
	.loc	4 732 12 is_stmt 1              @ ../Firmware/GD32E23x_standard_peripheral/Source/gd32e23x_rcu.c:732:12
	ldr	r0, [sp]
	movs	r3, #248
	bics	r0, r3
	str	r0, [sp]
	.loc	4 733 17                        @ ../Firmware/GD32E23x_standard_peripheral/Source/gd32e23x_rcu.c:733:17
	ldr	r0, [sp]
	.loc	4 733 38 is_stmt 0              @ ../Firmware/GD32E23x_standard_peripheral/Source/gd32e23x_rcu.c:733:38
	ldrb	r2, [r2]
	.loc	4 733 51                        @ ../Firmware/GD32E23x_standard_peripheral/Source/gd32e23x_rcu.c:733:51
	lsls	r2, r2, #3
	.loc	4 733 24                        @ ../Firmware/GD32E23x_standard_peripheral/Source/gd32e23x_rcu.c:733:24
	orrs	r0, r2
	.loc	4 733 14                        @ ../Firmware/GD32E23x_standard_peripheral/Source/gd32e23x_rcu.c:733:14
	str	r0, [r1]
	.loc	4 734 1 is_stmt 1               @ ../Firmware/GD32E23x_standard_peripheral/Source/gd32e23x_rcu.c:734:1
	add	sp, #8
	bx	lr
.Ltmp108:
	.p2align	2
@ %bb.1:
	.loc	4 0 1 is_stmt 0                 @ ../Firmware/GD32E23x_standard_peripheral/Source/gd32e23x_rcu.c:0:1
__arm_cp.29_0:
	.long	1073876992                      @ 0x40021000
.Lcpi_end47:
	.size	__arm_cp.29_0, .Lcpi_end47-__arm_cp.29_0
.Lfunc_end29:
	.size	rcu_irc8m_adjust_value_set, .Lfunc_end29-rcu_irc8m_adjust_value_set
	.cfi_endproc
	.cantunwind
	.fnend
                                        @ -- End function
	.section	.text.rcu_irc28m_adjust_value_set,"ax",%progbits
	.hidden	rcu_irc28m_adjust_value_set     @ -- Begin function rcu_irc28m_adjust_value_set
	.globl	rcu_irc28m_adjust_value_set
	.p2align	2
	.type	rcu_irc28m_adjust_value_set,%function
	.code	16                              @ @rcu_irc28m_adjust_value_set
	.thumb_func
rcu_irc28m_adjust_value_set:
.Lfunc_begin30:
	.loc	4 743 0 is_stmt 1               @ ../Firmware/GD32E23x_standard_peripheral/Source/gd32e23x_rcu.c:743:0
	.fnstart
	.cfi_startproc
@ %bb.0:
	.pad	#8
	sub	sp, #8
	.cfi_def_cfa_offset 8
                                        @ kill: def $r1 killed $r0
	add	r2, sp, #4
	strb	r0, [r2]
	movs	r0, #0
.Ltmp109:
	.loc	4 744 14 prologue_end           @ ../Firmware/GD32E23x_standard_peripheral/Source/gd32e23x_rcu.c:744:14
	str	r0, [sp]
	ldr	r1, __arm_cp.30_0
	.loc	4 745 14                        @ ../Firmware/GD32E23x_standard_peripheral/Source/gd32e23x_rcu.c:745:14
	ldr	r0, [r1]
	.loc	4 745 12 is_stmt 0              @ ../Firmware/GD32E23x_standard_peripheral/Source/gd32e23x_rcu.c:745:12
	str	r0, [sp]
	.loc	4 747 12 is_stmt 1              @ ../Firmware/GD32E23x_standard_peripheral/Source/gd32e23x_rcu.c:747:12
	ldr	r0, [sp]
	movs	r3, #248
	bics	r0, r3
	str	r0, [sp]
	.loc	4 748 17                        @ ../Firmware/GD32E23x_standard_peripheral/Source/gd32e23x_rcu.c:748:17
	ldr	r0, [sp]
	.loc	4 748 38 is_stmt 0              @ ../Firmware/GD32E23x_standard_peripheral/Source/gd32e23x_rcu.c:748:38
	ldrb	r2, [r2]
	.loc	4 748 52                        @ ../Firmware/GD32E23x_standard_peripheral/Source/gd32e23x_rcu.c:748:52
	lsls	r2, r2, #3
	.loc	4 748 24                        @ ../Firmware/GD32E23x_standard_peripheral/Source/gd32e23x_rcu.c:748:24
	orrs	r0, r2
	.loc	4 748 14                        @ ../Firmware/GD32E23x_standard_peripheral/Source/gd32e23x_rcu.c:748:14
	str	r0, [r1]
	.loc	4 749 1 is_stmt 1               @ ../Firmware/GD32E23x_standard_peripheral/Source/gd32e23x_rcu.c:749:1
	add	sp, #8
	bx	lr
.Ltmp110:
	.p2align	2
@ %bb.1:
	.loc	4 0 1 is_stmt 0                 @ ../Firmware/GD32E23x_standard_peripheral/Source/gd32e23x_rcu.c:0:1
__arm_cp.30_0:
	.long	1073877044                      @ 0x40021034
.Lcpi_end48:
	.size	__arm_cp.30_0, .Lcpi_end48-__arm_cp.30_0
.Lfunc_end30:
	.size	rcu_irc28m_adjust_value_set, .Lfunc_end30-rcu_irc28m_adjust_value_set
	.cfi_endproc
	.cantunwind
	.fnend
                                        @ -- End function
	.section	.text.rcu_voltage_key_unlock,"ax",%progbits
	.hidden	rcu_voltage_key_unlock          @ -- Begin function rcu_voltage_key_unlock
	.globl	rcu_voltage_key_unlock
	.p2align	2
	.type	rcu_voltage_key_unlock,%function
	.code	16                              @ @rcu_voltage_key_unlock
	.thumb_func
rcu_voltage_key_unlock:
.Lfunc_begin31:
	.loc	4 758 0 is_stmt 1               @ ../Firmware/GD32E23x_standard_peripheral/Source/gd32e23x_rcu.c:758:0
	.fnstart
	.cfi_startproc
@ %bb.0:
	ldr	r1, __arm_cp.31_0
.Ltmp111:
	.loc	4 760 14 prologue_end           @ ../Firmware/GD32E23x_standard_peripheral/Source/gd32e23x_rcu.c:760:14
	ldr	r0, [r1]
	movs	r0, #0
	str	r0, [r1]
	.loc	4 761 14                        @ ../Firmware/GD32E23x_standard_peripheral/Source/gd32e23x_rcu.c:761:14
	ldr	r0, [r1]
	ldr	r2, __arm_cp.31_1
	orrs	r0, r2
	str	r0, [r1]
	.loc	4 762 1                         @ ../Firmware/GD32E23x_standard_peripheral/Source/gd32e23x_rcu.c:762:1
	bx	lr
.Ltmp112:
	.p2align	2
@ %bb.1:
	.loc	4 0 1 is_stmt 0                 @ ../Firmware/GD32E23x_standard_peripheral/Source/gd32e23x_rcu.c:0:1
__arm_cp.31_0:
	.long	1073877248                      @ 0x40021100
.Lcpi_end49:
	.size	__arm_cp.31_0, .Lcpi_end49-__arm_cp.31_0
__arm_cp.31_1:
	.long	439041101                       @ 0x1a2b3c4d
.Lcpi_end50:
	.size	__arm_cp.31_1, .Lcpi_end50-__arm_cp.31_1
.Lfunc_end31:
	.size	rcu_voltage_key_unlock, .Lfunc_end31-rcu_voltage_key_unlock
	.cfi_endproc
	.cantunwind
	.fnend
                                        @ -- End function
	.section	.text.rcu_deepsleep_voltage_set,"ax",%progbits
	.hidden	rcu_deepsleep_voltage_set       @ -- Begin function rcu_deepsleep_voltage_set
	.globl	rcu_deepsleep_voltage_set
	.p2align	2
	.type	rcu_deepsleep_voltage_set,%function
	.code	16                              @ @rcu_deepsleep_voltage_set
	.thumb_func
rcu_deepsleep_voltage_set:
.Lfunc_begin32:
	.loc	4 776 0 is_stmt 1               @ ../Firmware/GD32E23x_standard_peripheral/Source/gd32e23x_rcu.c:776:0
	.fnstart
	.cfi_startproc
@ %bb.0:
	.pad	#4
	sub	sp, #4
	.cfi_def_cfa_offset 4
	str	r0, [sp]
	ldr	r1, __arm_cp.32_0
.Ltmp113:
	.loc	4 778 13 prologue_end           @ ../Firmware/GD32E23x_standard_peripheral/Source/gd32e23x_rcu.c:778:13
	ldr	r0, [r1]
	movs	r2, #3
	bics	r0, r2
	str	r0, [r1]
	.loc	4 779 16                        @ ../Firmware/GD32E23x_standard_peripheral/Source/gd32e23x_rcu.c:779:16
	ldr	r2, [sp]
	.loc	4 779 13 is_stmt 0              @ ../Firmware/GD32E23x_standard_peripheral/Source/gd32e23x_rcu.c:779:13
	ldr	r0, [r1]
	orrs	r0, r2
	str	r0, [r1]
	.loc	4 780 1 is_stmt 1               @ ../Firmware/GD32E23x_standard_peripheral/Source/gd32e23x_rcu.c:780:1
	add	sp, #4
	bx	lr
.Ltmp114:
	.p2align	2
@ %bb.1:
	.loc	4 0 1 is_stmt 0                 @ ../Firmware/GD32E23x_standard_peripheral/Source/gd32e23x_rcu.c:0:1
__arm_cp.32_0:
	.long	1073877300                      @ 0x40021134
.Lcpi_end51:
	.size	__arm_cp.32_0, .Lcpi_end51-__arm_cp.32_0
.Lfunc_end32:
	.size	rcu_deepsleep_voltage_set, .Lfunc_end32-rcu_deepsleep_voltage_set
	.cfi_endproc
	.cantunwind
	.fnend
                                        @ -- End function
	.section	.text.rcu_clock_freq_get,"ax",%progbits
	.hidden	rcu_clock_freq_get              @ -- Begin function rcu_clock_freq_get
	.globl	rcu_clock_freq_get
	.p2align	2
	.type	rcu_clock_freq_get,%function
	.code	16                              @ @rcu_clock_freq_get
	.thumb_func
rcu_clock_freq_get:
.Lfunc_begin33:
	.loc	4 796 0 is_stmt 1               @ ../Firmware/GD32E23x_standard_peripheral/Source/gd32e23x_rcu.c:796:0
	.fnstart
	.cfi_startproc
@ %bb.0:
	.pad	#116
	sub	sp, #116
	.cfi_def_cfa_offset 116
                                        @ kill: def $r1 killed $r0
	add	r1, sp, #112
	strb	r0, [r1]
	movs	r0, #0
.Ltmp115:
	.loc	4 797 14 prologue_end           @ ../Firmware/GD32E23x_standard_peripheral/Source/gd32e23x_rcu.c:797:14
	str	r0, [sp, #8]                    @ 4-byte Spill
	str	r0, [sp, #108]
	.loc	4 797 24 is_stmt 0              @ ../Firmware/GD32E23x_standard_peripheral/Source/gd32e23x_rcu.c:797:24
	str	r0, [sp, #104]
	.loc	4 797 36                        @ ../Firmware/GD32E23x_standard_peripheral/Source/gd32e23x_rcu.c:797:36
	str	r0, [sp, #100]
	.loc	4 797 49                        @ ../Firmware/GD32E23x_standard_peripheral/Source/gd32e23x_rcu.c:797:49
	str	r0, [sp, #96]
	.loc	4 798 14 is_stmt 1              @ ../Firmware/GD32E23x_standard_peripheral/Source/gd32e23x_rcu.c:798:14
	str	r0, [sp, #92]
	.loc	4 798 31 is_stmt 0              @ ../Firmware/GD32E23x_standard_peripheral/Source/gd32e23x_rcu.c:798:31
	str	r0, [sp, #88]
	.loc	4 798 46                        @ ../Firmware/GD32E23x_standard_peripheral/Source/gd32e23x_rcu.c:798:46
	str	r0, [sp, #84]
	.loc	4 798 62                        @ ../Firmware/GD32E23x_standard_peripheral/Source/gd32e23x_rcu.c:798:62
	str	r0, [sp, #80]
	.loc	4 799 14 is_stmt 1              @ ../Firmware/GD32E23x_standard_peripheral/Source/gd32e23x_rcu.c:799:14
	str	r0, [sp, #76]
	.loc	4 799 29 is_stmt 0              @ ../Firmware/GD32E23x_standard_peripheral/Source/gd32e23x_rcu.c:799:29
	str	r0, [sp, #72]
	.loc	4 800 14 is_stmt 1              @ ../Firmware/GD32E23x_standard_peripheral/Source/gd32e23x_rcu.c:800:14
	str	r0, [sp, #68]
	.loc	4 800 26 is_stmt 0              @ ../Firmware/GD32E23x_standard_peripheral/Source/gd32e23x_rcu.c:800:26
	str	r0, [sp, #64]
	.loc	4 800 39                        @ ../Firmware/GD32E23x_standard_peripheral/Source/gd32e23x_rcu.c:800:39
	str	r0, [sp, #60]
	.loc	4 800 52                        @ ../Firmware/GD32E23x_standard_peripheral/Source/gd32e23x_rcu.c:800:52
	str	r0, [sp, #56]
	.loc	4 800 65                        @ ../Firmware/GD32E23x_standard_peripheral/Source/gd32e23x_rcu.c:800:65
	str	r0, [sp, #52]
	.loc	4 800 75                        @ ../Firmware/GD32E23x_standard_peripheral/Source/gd32e23x_rcu.c:800:75
	str	r0, [sp, #48]
	ldr	r1, __arm_cp.33_0
	.loc	4 802 19 is_stmt 1              @ ../Firmware/GD32E23x_standard_peripheral/Source/gd32e23x_rcu.c:802:19
	str	r1, [sp, #44]
	ldr	r1, __arm_cp.33_1
	str	r1, [sp, #40]
	str	r0, [sp, #36]
	str	r0, [sp, #32]
	.loc	4 803 19                        @ ../Firmware/GD32E23x_standard_peripheral/Source/gd32e23x_rcu.c:803:19
	str	r1, [sp, #28]
	str	r0, [sp, #24]
	.loc	4 804 19                        @ ../Firmware/GD32E23x_standard_peripheral/Source/gd32e23x_rcu.c:804:19
	str	r1, [sp, #20]
	str	r0, [sp, #16]
	ldr	r0, __arm_cp.33_2
	.loc	4 806 11                        @ ../Firmware/GD32E23x_standard_peripheral/Source/gd32e23x_rcu.c:806:11
	ldr	r0, [r0]
	movs	r1, #12
	ands	r0, r1
	lsrs	r0, r0, #2
	.loc	4 806 9 is_stmt 0               @ ../Firmware/GD32E23x_standard_peripheral/Source/gd32e23x_rcu.c:806:9
	str	r0, [sp, #108]
	.loc	4 807 12 is_stmt 1              @ ../Firmware/GD32E23x_standard_peripheral/Source/gd32e23x_rcu.c:807:12
	ldr	r0, [sp, #108]
	.loc	4 807 5 is_stmt 0               @ ../Firmware/GD32E23x_standard_peripheral/Source/gd32e23x_rcu.c:807:5
	str	r0, [sp, #12]                   @ 4-byte Spill
	cbz	r0, .LBB33_3
	b	.LBB33_1
.LBB33_1:
	ldr	r0, [sp, #12]                   @ 4-byte Reload
	cmp	r0, #1
	beq	.LBB33_4
	b	.LBB33_2
.LBB33_2:
	ldr	r0, [sp, #12]                   @ 4-byte Reload
	cmp	r0, #2
	beq	.LBB33_5
	b	.LBB33_15
.LBB33_3:
	.loc	4 0 5                           @ ../Firmware/GD32E23x_standard_peripheral/Source/gd32e23x_rcu.c:0:5
	ldr	r0, __arm_cp.33_5
.Ltmp116:
	.loc	4 810 20 is_stmt 1              @ ../Firmware/GD32E23x_standard_peripheral/Source/gd32e23x_rcu.c:810:20
	str	r0, [sp, #92]
	.loc	4 811 9                         @ ../Firmware/GD32E23x_standard_peripheral/Source/gd32e23x_rcu.c:811:9
	b	.LBB33_16
.LBB33_4:
	.loc	4 0 9 is_stmt 0                 @ ../Firmware/GD32E23x_standard_peripheral/Source/gd32e23x_rcu.c:0:9
	ldr	r0, __arm_cp.33_5
	.loc	4 814 20 is_stmt 1              @ ../Firmware/GD32E23x_standard_peripheral/Source/gd32e23x_rcu.c:814:20
	str	r0, [sp, #92]
	.loc	4 815 9                         @ ../Firmware/GD32E23x_standard_peripheral/Source/gd32e23x_rcu.c:815:9
	b	.LBB33_16
.LBB33_5:
	.loc	4 0 9 is_stmt 0                 @ ../Firmware/GD32E23x_standard_peripheral/Source/gd32e23x_rcu.c:0:9
	ldr	r0, __arm_cp.33_2
	.loc	4 819 17 is_stmt 1              @ ../Firmware/GD32E23x_standard_peripheral/Source/gd32e23x_rcu.c:819:17
	ldr	r1, [r0]
	movs	r2, #15
	lsls	r2, r2, #18
	ands	r1, r2
	lsrs	r1, r1, #18
	.loc	4 819 15 is_stmt 0              @ ../Firmware/GD32E23x_standard_peripheral/Source/gd32e23x_rcu.c:819:15
	str	r1, [sp, #68]
	.loc	4 820 18 is_stmt 1              @ ../Firmware/GD32E23x_standard_peripheral/Source/gd32e23x_rcu.c:820:18
	ldr	r0, [r0]
	movs	r1, #1
	lsls	r1, r1, #27
	ands	r0, r1
	lsrs	r0, r0, #27
	.loc	4 820 16 is_stmt 0              @ ../Firmware/GD32E23x_standard_peripheral/Source/gd32e23x_rcu.c:820:16
	str	r0, [sp, #64]
.Ltmp117:
	.loc	4 822 18 is_stmt 1              @ ../Firmware/GD32E23x_standard_peripheral/Source/gd32e23x_rcu.c:822:18
	ldr	r0, [sp, #64]
.Ltmp118:
	.loc	4 822 12 is_stmt 0              @ ../Firmware/GD32E23x_standard_peripheral/Source/gd32e23x_rcu.c:822:12
	cmp	r0, #1
	bne	.LBB33_7
	b	.LBB33_6
.LBB33_6:
.Ltmp119:
	.loc	4 823 19 is_stmt 1              @ ../Firmware/GD32E23x_standard_peripheral/Source/gd32e23x_rcu.c:823:19
	ldr	r0, [sp, #68]
	adds	r0, #17
	str	r0, [sp, #68]
	.loc	4 824 9                         @ ../Firmware/GD32E23x_standard_peripheral/Source/gd32e23x_rcu.c:824:9
	b	.LBB33_11
.Ltmp120:
.LBB33_7:
	.loc	4 824 25 is_stmt 0              @ ../Firmware/GD32E23x_standard_peripheral/Source/gd32e23x_rcu.c:824:25
	ldr	r0, [sp, #68]
.Ltmp121:
	.loc	4 824 18                        @ ../Firmware/GD32E23x_standard_peripheral/Source/gd32e23x_rcu.c:824:18
	cmp	r0, #15
	bne	.LBB33_9
	b	.LBB33_8
.LBB33_8:
	.loc	4 0 18                          @ ../Firmware/GD32E23x_standard_peripheral/Source/gd32e23x_rcu.c:0:18
	movs	r0, #16
.Ltmp122:
	.loc	4 825 19 is_stmt 1              @ ../Firmware/GD32E23x_standard_peripheral/Source/gd32e23x_rcu.c:825:19
	str	r0, [sp, #68]
	.loc	4 826 9                         @ ../Firmware/GD32E23x_standard_peripheral/Source/gd32e23x_rcu.c:826:9
	b	.LBB33_10
.Ltmp123:
.LBB33_9:
	.loc	4 827 19                        @ ../Firmware/GD32E23x_standard_peripheral/Source/gd32e23x_rcu.c:827:19
	ldr	r0, [sp, #68]
	adds	r0, r0, #2
	str	r0, [sp, #68]
	b	.LBB33_10
.Ltmp124:
.LBB33_10:
	.loc	4 0 19 is_stmt 0                @ ../Firmware/GD32E23x_standard_peripheral/Source/gd32e23x_rcu.c:0:19
	b	.LBB33_11
.LBB33_11:
	ldr	r0, __arm_cp.33_2
	.loc	4 831 18 is_stmt 1              @ ../Firmware/GD32E23x_standard_peripheral/Source/gd32e23x_rcu.c:831:18
	ldr	r0, [r0]
	movs	r1, #1
	lsls	r1, r1, #16
	ands	r0, r1
	lsrs	r0, r0, #16
	.loc	4 831 16 is_stmt 0              @ ../Firmware/GD32E23x_standard_peripheral/Source/gd32e23x_rcu.c:831:16
	str	r0, [sp, #60]
.Ltmp125:
	.loc	4 832 18 is_stmt 1              @ ../Firmware/GD32E23x_standard_peripheral/Source/gd32e23x_rcu.c:832:18
	ldr	r0, [sp, #60]
.Ltmp126:
	.loc	4 832 12 is_stmt 0              @ ../Firmware/GD32E23x_standard_peripheral/Source/gd32e23x_rcu.c:832:12
	cbz	r0, .LBB33_13
	b	.LBB33_12
.LBB33_12:
	.loc	4 0 12                          @ ../Firmware/GD32E23x_standard_peripheral/Source/gd32e23x_rcu.c:0:12
	ldr	r0, __arm_cp.33_4
.Ltmp127:
	.loc	4 833 23 is_stmt 1              @ ../Firmware/GD32E23x_standard_peripheral/Source/gd32e23x_rcu.c:833:23
	ldr	r0, [r0]
	movs	r1, #15
	ands	r0, r1
	.loc	4 833 48 is_stmt 0              @ ../Firmware/GD32E23x_standard_peripheral/Source/gd32e23x_rcu.c:833:48
	adds	r0, r0, #1
	.loc	4 833 20                        @ ../Firmware/GD32E23x_standard_peripheral/Source/gd32e23x_rcu.c:833:20
	str	r0, [sp, #56]
	.loc	4 834 41 is_stmt 1              @ ../Firmware/GD32E23x_standard_peripheral/Source/gd32e23x_rcu.c:834:41
	ldr	r1, [sp, #56]
	ldr	r0, __arm_cp.33_5
	.loc	4 834 39 is_stmt 0              @ ../Firmware/GD32E23x_standard_peripheral/Source/gd32e23x_rcu.c:834:39
	udiv	r1, r0, r1
	.loc	4 834 51                        @ ../Firmware/GD32E23x_standard_peripheral/Source/gd32e23x_rcu.c:834:51
	ldr	r0, [sp, #68]
	.loc	4 834 49                        @ ../Firmware/GD32E23x_standard_peripheral/Source/gd32e23x_rcu.c:834:49
	muls	r0, r1, r0
	.loc	4 834 24                        @ ../Firmware/GD32E23x_standard_peripheral/Source/gd32e23x_rcu.c:834:24
	str	r0, [sp, #92]
	.loc	4 835 9 is_stmt 1               @ ../Firmware/GD32E23x_standard_peripheral/Source/gd32e23x_rcu.c:835:9
	b	.LBB33_14
.Ltmp128:
.LBB33_13:
	.loc	4 836 47                        @ ../Firmware/GD32E23x_standard_peripheral/Source/gd32e23x_rcu.c:836:47
	ldr	r1, [sp, #68]
	ldr	r0, __arm_cp.33_3
	.loc	4 836 45 is_stmt 0              @ ../Firmware/GD32E23x_standard_peripheral/Source/gd32e23x_rcu.c:836:45
	muls	r0, r1, r0
	.loc	4 836 24                        @ ../Firmware/GD32E23x_standard_peripheral/Source/gd32e23x_rcu.c:836:24
	str	r0, [sp, #92]
	b	.LBB33_14
.Ltmp129:
.LBB33_14:
	.loc	4 838 9 is_stmt 1               @ ../Firmware/GD32E23x_standard_peripheral/Source/gd32e23x_rcu.c:838:9
	b	.LBB33_16
.LBB33_15:
	.loc	4 0 9 is_stmt 0                 @ ../Firmware/GD32E23x_standard_peripheral/Source/gd32e23x_rcu.c:0:9
	ldr	r0, __arm_cp.33_5
	.loc	4 841 20 is_stmt 1              @ ../Firmware/GD32E23x_standard_peripheral/Source/gd32e23x_rcu.c:841:20
	str	r0, [sp, #92]
	.loc	4 842 9                         @ ../Firmware/GD32E23x_standard_peripheral/Source/gd32e23x_rcu.c:842:9
	b	.LBB33_16
.Ltmp130:
.LBB33_16:
	.loc	4 0 9 is_stmt 0                 @ ../Firmware/GD32E23x_standard_peripheral/Source/gd32e23x_rcu.c:0:9
	ldr	r0, __arm_cp.33_2
	.loc	4 845 11 is_stmt 1              @ ../Firmware/GD32E23x_standard_peripheral/Source/gd32e23x_rcu.c:845:11
	ldr	r1, [r0]
	uxtb	r1, r1
	lsrs	r1, r1, #4
	.loc	4 845 9 is_stmt 0               @ ../Firmware/GD32E23x_standard_peripheral/Source/gd32e23x_rcu.c:845:9
	str	r1, [sp, #52]
	.loc	4 846 23 is_stmt 1              @ ../Firmware/GD32E23x_standard_peripheral/Source/gd32e23x_rcu.c:846:23
	ldr	r2, [sp, #52]
	add	r1, sp, #32
	.loc	4 846 15 is_stmt 0              @ ../Firmware/GD32E23x_standard_peripheral/Source/gd32e23x_rcu.c:846:15
	ldrb	r1, [r1, r2]
	.loc	4 846 13                        @ ../Firmware/GD32E23x_standard_peripheral/Source/gd32e23x_rcu.c:846:13
	str	r1, [sp, #48]
	.loc	4 847 16 is_stmt 1              @ ../Firmware/GD32E23x_standard_peripheral/Source/gd32e23x_rcu.c:847:16
	ldr	r1, [sp, #92]
	.loc	4 847 30 is_stmt 0              @ ../Firmware/GD32E23x_standard_peripheral/Source/gd32e23x_rcu.c:847:30
	ldr	r2, [sp, #48]
	.loc	4 847 27                        @ ../Firmware/GD32E23x_standard_peripheral/Source/gd32e23x_rcu.c:847:27
	lsrs	r1, r2
	.loc	4 847 14                        @ ../Firmware/GD32E23x_standard_peripheral/Source/gd32e23x_rcu.c:847:14
	str	r1, [sp, #88]
	.loc	4 850 11 is_stmt 1              @ ../Firmware/GD32E23x_standard_peripheral/Source/gd32e23x_rcu.c:850:11
	ldr	r1, [r0]
	movw	r2, #1792
	ands	r1, r2
	lsrs	r1, r1, #8
	.loc	4 850 9 is_stmt 0               @ ../Firmware/GD32E23x_standard_peripheral/Source/gd32e23x_rcu.c:850:9
	str	r1, [sp, #52]
	.loc	4 851 24 is_stmt 1              @ ../Firmware/GD32E23x_standard_peripheral/Source/gd32e23x_rcu.c:851:24
	ldr	r2, [sp, #52]
	add	r1, sp, #24
	.loc	4 851 15 is_stmt 0              @ ../Firmware/GD32E23x_standard_peripheral/Source/gd32e23x_rcu.c:851:15
	ldrb	r1, [r1, r2]
	.loc	4 851 13                        @ ../Firmware/GD32E23x_standard_peripheral/Source/gd32e23x_rcu.c:851:13
	str	r1, [sp, #48]
	.loc	4 852 17 is_stmt 1              @ ../Firmware/GD32E23x_standard_peripheral/Source/gd32e23x_rcu.c:852:17
	ldr	r1, [sp, #88]
	.loc	4 852 29 is_stmt 0              @ ../Firmware/GD32E23x_standard_peripheral/Source/gd32e23x_rcu.c:852:29
	ldr	r2, [sp, #48]
	.loc	4 852 26                        @ ../Firmware/GD32E23x_standard_peripheral/Source/gd32e23x_rcu.c:852:26
	lsrs	r1, r2
	.loc	4 852 15                        @ ../Firmware/GD32E23x_standard_peripheral/Source/gd32e23x_rcu.c:852:15
	str	r1, [sp, #84]
	.loc	4 855 11 is_stmt 1              @ ../Firmware/GD32E23x_standard_peripheral/Source/gd32e23x_rcu.c:855:11
	ldr	r0, [r0]
	movw	r1, #14336
	ands	r0, r1
	lsrs	r0, r0, #11
	.loc	4 855 9 is_stmt 0               @ ../Firmware/GD32E23x_standard_peripheral/Source/gd32e23x_rcu.c:855:9
	str	r0, [sp, #52]
	.loc	4 856 24 is_stmt 1              @ ../Firmware/GD32E23x_standard_peripheral/Source/gd32e23x_rcu.c:856:24
	ldr	r1, [sp, #52]
	add	r0, sp, #16
	.loc	4 856 15 is_stmt 0              @ ../Firmware/GD32E23x_standard_peripheral/Source/gd32e23x_rcu.c:856:15
	ldrb	r0, [r0, r1]
	.loc	4 856 13                        @ ../Firmware/GD32E23x_standard_peripheral/Source/gd32e23x_rcu.c:856:13
	str	r0, [sp, #48]
	.loc	4 857 17 is_stmt 1              @ ../Firmware/GD32E23x_standard_peripheral/Source/gd32e23x_rcu.c:857:17
	ldr	r0, [sp, #88]
	.loc	4 857 29 is_stmt 0              @ ../Firmware/GD32E23x_standard_peripheral/Source/gd32e23x_rcu.c:857:29
	ldr	r1, [sp, #48]
	.loc	4 857 26                        @ ../Firmware/GD32E23x_standard_peripheral/Source/gd32e23x_rcu.c:857:26
	lsrs	r0, r1
	.loc	4 857 15                        @ ../Firmware/GD32E23x_standard_peripheral/Source/gd32e23x_rcu.c:857:15
	str	r0, [sp, #80]
	add	r0, sp, #112
	.loc	4 860 12 is_stmt 1              @ ../Firmware/GD32E23x_standard_peripheral/Source/gd32e23x_rcu.c:860:12
	ldrb	r0, [r0]
	.loc	4 860 5 is_stmt 0               @ ../Firmware/GD32E23x_standard_peripheral/Source/gd32e23x_rcu.c:860:5
	str	r0, [sp, #4]                    @ 4-byte Spill
	cmp	r0, #5
	bls	.LBB33_17
	b	.LBB33_63
.LBB33_17:
	.loc	4 0 5                           @ ../Firmware/GD32E23x_standard_peripheral/Source/gd32e23x_rcu.c:0:5
	ldr	r1, [sp, #4]                    @ 4-byte Reload
	lsls	r2, r1, #2
	adr	r0, .LJTI33_0
	adds	r0, r0, r2
	mov	pc, r0
@ %bb.18:
	.p2align	2
.LJTI33_0:
	b.w	.LBB33_19
	b.w	.LBB33_20
	b.w	.LBB33_21
	b.w	.LBB33_22
	b.w	.LBB33_23
	b.w	.LBB33_50
.LBB33_19:
.Ltmp131:
	.loc	4 862 19 is_stmt 1              @ ../Firmware/GD32E23x_standard_peripheral/Source/gd32e23x_rcu.c:862:19
	ldr	r0, [sp, #92]
	.loc	4 862 17 is_stmt 0              @ ../Firmware/GD32E23x_standard_peripheral/Source/gd32e23x_rcu.c:862:17
	str	r0, [sp, #96]
	.loc	4 863 9 is_stmt 1               @ ../Firmware/GD32E23x_standard_peripheral/Source/gd32e23x_rcu.c:863:9
	b	.LBB33_64
.LBB33_20:
	.loc	4 865 19                        @ ../Firmware/GD32E23x_standard_peripheral/Source/gd32e23x_rcu.c:865:19
	ldr	r0, [sp, #88]
	.loc	4 865 17 is_stmt 0              @ ../Firmware/GD32E23x_standard_peripheral/Source/gd32e23x_rcu.c:865:17
	str	r0, [sp, #96]
	.loc	4 866 9 is_stmt 1               @ ../Firmware/GD32E23x_standard_peripheral/Source/gd32e23x_rcu.c:866:9
	b	.LBB33_64
.LBB33_21:
	.loc	4 868 19                        @ ../Firmware/GD32E23x_standard_peripheral/Source/gd32e23x_rcu.c:868:19
	ldr	r0, [sp, #84]
	.loc	4 868 17 is_stmt 0              @ ../Firmware/GD32E23x_standard_peripheral/Source/gd32e23x_rcu.c:868:17
	str	r0, [sp, #96]
	.loc	4 869 9 is_stmt 1               @ ../Firmware/GD32E23x_standard_peripheral/Source/gd32e23x_rcu.c:869:9
	b	.LBB33_64
.LBB33_22:
	.loc	4 871 19                        @ ../Firmware/GD32E23x_standard_peripheral/Source/gd32e23x_rcu.c:871:19
	ldr	r0, [sp, #80]
	.loc	4 871 17 is_stmt 0              @ ../Firmware/GD32E23x_standard_peripheral/Source/gd32e23x_rcu.c:871:17
	str	r0, [sp, #96]
	.loc	4 872 9 is_stmt 1               @ ../Firmware/GD32E23x_standard_peripheral/Source/gd32e23x_rcu.c:872:9
	b	.LBB33_64
.LBB33_23:
	.loc	4 0 9 is_stmt 0                 @ ../Firmware/GD32E23x_standard_peripheral/Source/gd32e23x_rcu.c:0:9
	ldr	r0, __arm_cp.33_6
.Ltmp132:
	.loc	4 875 39 is_stmt 1              @ ../Firmware/GD32E23x_standard_peripheral/Source/gd32e23x_rcu.c:875:39
	ldr	r0, [r0]
	movw	r1, #256
	.loc	4 875 48 is_stmt 0              @ ../Firmware/GD32E23x_standard_peripheral/Source/gd32e23x_rcu.c:875:48
	ands	r0, r1
.Ltmp133:
	.loc	4 875 12                        @ ../Firmware/GD32E23x_standard_peripheral/Source/gd32e23x_rcu.c:875:12
	cmp	r0, r1
	beq	.LBB33_28
	b	.LBB33_24
.LBB33_24:
	.loc	4 0 12                          @ ../Firmware/GD32E23x_standard_peripheral/Source/gd32e23x_rcu.c:0:12
	ldr	r0, __arm_cp.33_6
.Ltmp134:
	.loc	4 876 40 is_stmt 1              @ ../Firmware/GD32E23x_standard_peripheral/Source/gd32e23x_rcu.c:876:40
	ldr	r0, [r0]
	movs	r1, #1
	lsls	r1, r1, #16
	.loc	4 876 49 is_stmt 0              @ ../Firmware/GD32E23x_standard_peripheral/Source/gd32e23x_rcu.c:876:49
	ands	r0, r1
.Ltmp135:
	.loc	4 876 16                        @ ../Firmware/GD32E23x_standard_peripheral/Source/gd32e23x_rcu.c:876:16
	cmp	r0, r1
	beq	.LBB33_26
	b	.LBB33_25
.LBB33_25:
	.loc	4 0 16                          @ ../Firmware/GD32E23x_standard_peripheral/Source/gd32e23x_rcu.c:0:16
	ldr	r0, __arm_cp.33_8
.Ltmp136:
	.loc	4 877 26 is_stmt 1              @ ../Firmware/GD32E23x_standard_peripheral/Source/gd32e23x_rcu.c:877:26
	str	r0, [sp, #76]
	.loc	4 878 13                        @ ../Firmware/GD32E23x_standard_peripheral/Source/gd32e23x_rcu.c:878:13
	b	.LBB33_27
.Ltmp137:
.LBB33_26:
	.loc	4 0 13 is_stmt 0                @ ../Firmware/GD32E23x_standard_peripheral/Source/gd32e23x_rcu.c:0:13
	ldr	r0, __arm_cp.33_7
.Ltmp138:
	.loc	4 879 26 is_stmt 1              @ ../Firmware/GD32E23x_standard_peripheral/Source/gd32e23x_rcu.c:879:26
	str	r0, [sp, #76]
	b	.LBB33_27
.Ltmp139:
.LBB33_27:
	.loc	4 881 9                         @ ../Firmware/GD32E23x_standard_peripheral/Source/gd32e23x_rcu.c:881:9
	b	.LBB33_49
.Ltmp140:
.LBB33_28:
	.loc	4 0 9 is_stmt 0                 @ ../Firmware/GD32E23x_standard_peripheral/Source/gd32e23x_rcu.c:0:9
	ldr	r0, __arm_cp.33_2
.Ltmp141:
	.loc	4 883 21 is_stmt 1              @ ../Firmware/GD32E23x_standard_peripheral/Source/gd32e23x_rcu.c:883:21
	ldr	r0, [r0]
	uxth	r0, r0
	lsrs	r0, r0, #14
	.loc	4 883 19 is_stmt 0              @ ../Firmware/GD32E23x_standard_peripheral/Source/gd32e23x_rcu.c:883:19
	str	r0, [sp, #104]
	ldr	r0, __arm_cp.33_6
	.loc	4 884 22 is_stmt 1              @ ../Firmware/GD32E23x_standard_peripheral/Source/gd32e23x_rcu.c:884:22
	ldr	r0, [r0]
	lsrs	r0, r0, #31
	.loc	4 884 20 is_stmt 0              @ ../Firmware/GD32E23x_standard_peripheral/Source/gd32e23x_rcu.c:884:20
	str	r0, [sp, #100]
	.loc	4 885 20 is_stmt 1              @ ../Firmware/GD32E23x_standard_peripheral/Source/gd32e23x_rcu.c:885:20
	ldr	r0, [sp, #104]
	.loc	4 885 13 is_stmt 0              @ ../Firmware/GD32E23x_standard_peripheral/Source/gd32e23x_rcu.c:885:13
	str	r0, [sp]                        @ 4-byte Spill
	cmp	r0, #3
	bhi	.LBB33_47
@ %bb.29:
	.loc	4 0 13                          @ ../Firmware/GD32E23x_standard_peripheral/Source/gd32e23x_rcu.c:0:13
	ldr	r1, [sp]                        @ 4-byte Reload
	lsls	r2, r1, #2
	adr	r0, .LJTI33_1
	adds	r0, r0, r2
	mov	pc, r0
@ %bb.30:
	.p2align	2
.LJTI33_1:
	b.w	.LBB33_31
	b.w	.LBB33_35
	b.w	.LBB33_39
	b.w	.LBB33_43
.LBB33_31:
.Ltmp142:
	.loc	4 887 26 is_stmt 1              @ ../Firmware/GD32E23x_standard_peripheral/Source/gd32e23x_rcu.c:887:26
	ldr	r0, [sp, #100]
.Ltmp143:
	.loc	4 887 20 is_stmt 0              @ ../Firmware/GD32E23x_standard_peripheral/Source/gd32e23x_rcu.c:887:20
	cbnz	r0, .LBB33_33
	b	.LBB33_32
.LBB33_32:
.Ltmp144:
	.loc	4 888 31 is_stmt 1              @ ../Firmware/GD32E23x_standard_peripheral/Source/gd32e23x_rcu.c:888:31
	ldr	r0, [sp, #80]
	.loc	4 888 41 is_stmt 0              @ ../Firmware/GD32E23x_standard_peripheral/Source/gd32e23x_rcu.c:888:41
	lsrs	r0, r0, #1
	.loc	4 888 29                        @ ../Firmware/GD32E23x_standard_peripheral/Source/gd32e23x_rcu.c:888:29
	str	r0, [sp, #76]
	.loc	4 889 17 is_stmt 1              @ ../Firmware/GD32E23x_standard_peripheral/Source/gd32e23x_rcu.c:889:17
	b	.LBB33_34
.Ltmp145:
.LBB33_33:
	.loc	4 890 31                        @ ../Firmware/GD32E23x_standard_peripheral/Source/gd32e23x_rcu.c:890:31
	ldr	r0, [sp, #88]
	movs	r1, #3
	.loc	4 890 40 is_stmt 0              @ ../Firmware/GD32E23x_standard_peripheral/Source/gd32e23x_rcu.c:890:40
	udiv	r0, r0, r1
	.loc	4 890 29                        @ ../Firmware/GD32E23x_standard_peripheral/Source/gd32e23x_rcu.c:890:29
	str	r0, [sp, #76]
	b	.LBB33_34
.Ltmp146:
.LBB33_34:
	.loc	4 892 17 is_stmt 1              @ ../Firmware/GD32E23x_standard_peripheral/Source/gd32e23x_rcu.c:892:17
	b	.LBB33_48
.LBB33_35:
.Ltmp147:
	.loc	4 894 26                        @ ../Firmware/GD32E23x_standard_peripheral/Source/gd32e23x_rcu.c:894:26
	ldr	r0, [sp, #100]
.Ltmp148:
	.loc	4 894 20 is_stmt 0              @ ../Firmware/GD32E23x_standard_peripheral/Source/gd32e23x_rcu.c:894:20
	cbnz	r0, .LBB33_37
	b	.LBB33_36
.LBB33_36:
.Ltmp149:
	.loc	4 895 31 is_stmt 1              @ ../Firmware/GD32E23x_standard_peripheral/Source/gd32e23x_rcu.c:895:31
	ldr	r0, [sp, #80]
	.loc	4 895 41 is_stmt 0              @ ../Firmware/GD32E23x_standard_peripheral/Source/gd32e23x_rcu.c:895:41
	lsrs	r0, r0, #2
	.loc	4 895 29                        @ ../Firmware/GD32E23x_standard_peripheral/Source/gd32e23x_rcu.c:895:29
	str	r0, [sp, #76]
	.loc	4 896 17 is_stmt 1              @ ../Firmware/GD32E23x_standard_peripheral/Source/gd32e23x_rcu.c:896:17
	b	.LBB33_38
.Ltmp150:
.LBB33_37:
	.loc	4 897 31                        @ ../Firmware/GD32E23x_standard_peripheral/Source/gd32e23x_rcu.c:897:31
	ldr	r0, [sp, #88]
	movs	r1, #5
	.loc	4 897 40 is_stmt 0              @ ../Firmware/GD32E23x_standard_peripheral/Source/gd32e23x_rcu.c:897:40
	udiv	r0, r0, r1
	.loc	4 897 29                        @ ../Firmware/GD32E23x_standard_peripheral/Source/gd32e23x_rcu.c:897:29
	str	r0, [sp, #76]
	b	.LBB33_38
.Ltmp151:
.LBB33_38:
	.loc	4 899 17 is_stmt 1              @ ../Firmware/GD32E23x_standard_peripheral/Source/gd32e23x_rcu.c:899:17
	b	.LBB33_48
.LBB33_39:
.Ltmp152:
	.loc	4 901 26                        @ ../Firmware/GD32E23x_standard_peripheral/Source/gd32e23x_rcu.c:901:26
	ldr	r0, [sp, #100]
.Ltmp153:
	.loc	4 901 20 is_stmt 0              @ ../Firmware/GD32E23x_standard_peripheral/Source/gd32e23x_rcu.c:901:20
	cbnz	r0, .LBB33_41
	b	.LBB33_40
.LBB33_40:
.Ltmp154:
	.loc	4 902 31 is_stmt 1              @ ../Firmware/GD32E23x_standard_peripheral/Source/gd32e23x_rcu.c:902:31
	ldr	r0, [sp, #80]
	movs	r1, #6
	.loc	4 902 41 is_stmt 0              @ ../Firmware/GD32E23x_standard_peripheral/Source/gd32e23x_rcu.c:902:41
	udiv	r0, r0, r1
	.loc	4 902 29                        @ ../Firmware/GD32E23x_standard_peripheral/Source/gd32e23x_rcu.c:902:29
	str	r0, [sp, #76]
	.loc	4 903 17 is_stmt 1              @ ../Firmware/GD32E23x_standard_peripheral/Source/gd32e23x_rcu.c:903:17
	b	.LBB33_42
.Ltmp155:
.LBB33_41:
	.loc	4 904 31                        @ ../Firmware/GD32E23x_standard_peripheral/Source/gd32e23x_rcu.c:904:31
	ldr	r0, [sp, #88]
	movs	r1, #7
	.loc	4 904 40 is_stmt 0              @ ../Firmware/GD32E23x_standard_peripheral/Source/gd32e23x_rcu.c:904:40
	udiv	r0, r0, r1
	.loc	4 904 29                        @ ../Firmware/GD32E23x_standard_peripheral/Source/gd32e23x_rcu.c:904:29
	str	r0, [sp, #76]
	b	.LBB33_42
.Ltmp156:
.LBB33_42:
	.loc	4 906 17 is_stmt 1              @ ../Firmware/GD32E23x_standard_peripheral/Source/gd32e23x_rcu.c:906:17
	b	.LBB33_48
.LBB33_43:
.Ltmp157:
	.loc	4 908 26                        @ ../Firmware/GD32E23x_standard_peripheral/Source/gd32e23x_rcu.c:908:26
	ldr	r0, [sp, #100]
.Ltmp158:
	.loc	4 908 20 is_stmt 0              @ ../Firmware/GD32E23x_standard_peripheral/Source/gd32e23x_rcu.c:908:20
	cbnz	r0, .LBB33_45
	b	.LBB33_44
.LBB33_44:
.Ltmp159:
	.loc	4 909 31 is_stmt 1              @ ../Firmware/GD32E23x_standard_peripheral/Source/gd32e23x_rcu.c:909:31
	ldr	r0, [sp, #80]
	.loc	4 909 41 is_stmt 0              @ ../Firmware/GD32E23x_standard_peripheral/Source/gd32e23x_rcu.c:909:41
	lsrs	r0, r0, #3
	.loc	4 909 29                        @ ../Firmware/GD32E23x_standard_peripheral/Source/gd32e23x_rcu.c:909:29
	str	r0, [sp, #76]
	.loc	4 910 17 is_stmt 1              @ ../Firmware/GD32E23x_standard_peripheral/Source/gd32e23x_rcu.c:910:17
	b	.LBB33_46
.Ltmp160:
.LBB33_45:
	.loc	4 911 31                        @ ../Firmware/GD32E23x_standard_peripheral/Source/gd32e23x_rcu.c:911:31
	ldr	r0, [sp, #88]
	movs	r1, #9
	.loc	4 911 40 is_stmt 0              @ ../Firmware/GD32E23x_standard_peripheral/Source/gd32e23x_rcu.c:911:40
	udiv	r0, r0, r1
	.loc	4 911 29                        @ ../Firmware/GD32E23x_standard_peripheral/Source/gd32e23x_rcu.c:911:29
	str	r0, [sp, #76]
	b	.LBB33_46
.Ltmp161:
.LBB33_46:
	.loc	4 913 17 is_stmt 1              @ ../Firmware/GD32E23x_standard_peripheral/Source/gd32e23x_rcu.c:913:17
	b	.LBB33_48
.LBB33_47:
	.loc	4 915 17                        @ ../Firmware/GD32E23x_standard_peripheral/Source/gd32e23x_rcu.c:915:17
	b	.LBB33_48
.Ltmp162:
.LBB33_48:
	.loc	4 0 17 is_stmt 0                @ ../Firmware/GD32E23x_standard_peripheral/Source/gd32e23x_rcu.c:0:17
	b	.LBB33_49
.LBB33_49:
	.loc	4 918 19 is_stmt 1              @ ../Firmware/GD32E23x_standard_peripheral/Source/gd32e23x_rcu.c:918:19
	ldr	r0, [sp, #76]
	.loc	4 918 17 is_stmt 0              @ ../Firmware/GD32E23x_standard_peripheral/Source/gd32e23x_rcu.c:918:17
	str	r0, [sp, #96]
	.loc	4 919 9 is_stmt 1               @ ../Firmware/GD32E23x_standard_peripheral/Source/gd32e23x_rcu.c:919:9
	b	.LBB33_64
.LBB33_50:
	.loc	4 0 9 is_stmt 0                 @ ../Firmware/GD32E23x_standard_peripheral/Source/gd32e23x_rcu.c:0:9
	ldr	r0, __arm_cp.33_6
.Ltmp163:
	.loc	4 922 37 is_stmt 1              @ ../Firmware/GD32E23x_standard_peripheral/Source/gd32e23x_rcu.c:922:37
	ldr	r0, [r0]
.Ltmp164:
	.loc	4 922 12 is_stmt 0              @ ../Firmware/GD32E23x_standard_peripheral/Source/gd32e23x_rcu.c:922:12
	lsls	r0, r0, #30
	cbnz	r0, .LBB33_52
	b	.LBB33_51
.LBB33_51:
.Ltmp165:
	.loc	4 923 26 is_stmt 1              @ ../Firmware/GD32E23x_standard_peripheral/Source/gd32e23x_rcu.c:923:26
	ldr	r0, [sp, #80]
	.loc	4 923 24 is_stmt 0              @ ../Firmware/GD32E23x_standard_peripheral/Source/gd32e23x_rcu.c:923:24
	str	r0, [sp, #72]
	.loc	4 924 9 is_stmt 1               @ ../Firmware/GD32E23x_standard_peripheral/Source/gd32e23x_rcu.c:924:9
	b	.LBB33_62
.Ltmp166:
.LBB33_52:
	.loc	4 0 9 is_stmt 0                 @ ../Firmware/GD32E23x_standard_peripheral/Source/gd32e23x_rcu.c:0:9
	ldr	r0, __arm_cp.33_6
.Ltmp167:
	.loc	4 924 42                        @ ../Firmware/GD32E23x_standard_peripheral/Source/gd32e23x_rcu.c:924:42
	ldr	r0, [r0]
	movs	r1, #3
	.loc	4 924 51                        @ ../Firmware/GD32E23x_standard_peripheral/Source/gd32e23x_rcu.c:924:51
	ands	r0, r1
.Ltmp168:
	.loc	4 924 18                        @ ../Firmware/GD32E23x_standard_peripheral/Source/gd32e23x_rcu.c:924:18
	cmp	r0, #1
	bne	.LBB33_54
	b	.LBB33_53
.LBB33_53:
.Ltmp169:
	.loc	4 925 26 is_stmt 1              @ ../Firmware/GD32E23x_standard_peripheral/Source/gd32e23x_rcu.c:925:26
	ldr	r0, [sp, #92]
	.loc	4 925 24 is_stmt 0              @ ../Firmware/GD32E23x_standard_peripheral/Source/gd32e23x_rcu.c:925:24
	str	r0, [sp, #72]
	.loc	4 926 9 is_stmt 1               @ ../Firmware/GD32E23x_standard_peripheral/Source/gd32e23x_rcu.c:926:9
	b	.LBB33_61
.Ltmp170:
.LBB33_54:
	.loc	4 0 9 is_stmt 0                 @ ../Firmware/GD32E23x_standard_peripheral/Source/gd32e23x_rcu.c:0:9
	ldr	r0, __arm_cp.33_6
.Ltmp171:
	.loc	4 926 42                        @ ../Firmware/GD32E23x_standard_peripheral/Source/gd32e23x_rcu.c:926:42
	ldr	r0, [r0]
	movs	r1, #3
	.loc	4 926 51                        @ ../Firmware/GD32E23x_standard_peripheral/Source/gd32e23x_rcu.c:926:51
	ands	r0, r1
.Ltmp172:
	.loc	4 926 18                        @ ../Firmware/GD32E23x_standard_peripheral/Source/gd32e23x_rcu.c:926:18
	cmp	r0, #2
	bne	.LBB33_56
	b	.LBB33_55
.LBB33_55:
	.loc	4 0 18                          @ ../Firmware/GD32E23x_standard_peripheral/Source/gd32e23x_rcu.c:0:18
	movw	r0, #32768
.Ltmp173:
	.loc	4 927 24 is_stmt 1              @ ../Firmware/GD32E23x_standard_peripheral/Source/gd32e23x_rcu.c:927:24
	str	r0, [sp, #72]
	.loc	4 928 9                         @ ../Firmware/GD32E23x_standard_peripheral/Source/gd32e23x_rcu.c:928:9
	b	.LBB33_60
.Ltmp174:
.LBB33_56:
	.loc	4 0 9 is_stmt 0                 @ ../Firmware/GD32E23x_standard_peripheral/Source/gd32e23x_rcu.c:0:9
	ldr	r0, __arm_cp.33_6
.Ltmp175:
	.loc	4 928 42                        @ ../Firmware/GD32E23x_standard_peripheral/Source/gd32e23x_rcu.c:928:42
	ldr	r0, [r0]
	movs	r1, #3
	.loc	4 928 51                        @ ../Firmware/GD32E23x_standard_peripheral/Source/gd32e23x_rcu.c:928:51
	ands	r0, r1
.Ltmp176:
	.loc	4 928 18                        @ ../Firmware/GD32E23x_standard_peripheral/Source/gd32e23x_rcu.c:928:18
	cmp	r0, #3
	bne	.LBB33_58
	b	.LBB33_57
.LBB33_57:
	.loc	4 0 18                          @ ../Firmware/GD32E23x_standard_peripheral/Source/gd32e23x_rcu.c:0:18
	ldr	r0, __arm_cp.33_5
.Ltmp177:
	.loc	4 929 24 is_stmt 1              @ ../Firmware/GD32E23x_standard_peripheral/Source/gd32e23x_rcu.c:929:24
	str	r0, [sp, #72]
	.loc	4 930 9                         @ ../Firmware/GD32E23x_standard_peripheral/Source/gd32e23x_rcu.c:930:9
	b	.LBB33_59
.Ltmp178:
.LBB33_58:
	.loc	4 0 9 is_stmt 0                 @ ../Firmware/GD32E23x_standard_peripheral/Source/gd32e23x_rcu.c:0:9
	b	.LBB33_59
.LBB33_59:
	b	.LBB33_60
.LBB33_60:
	b	.LBB33_61
.LBB33_61:
	b	.LBB33_62
.LBB33_62:
	.loc	4 932 19 is_stmt 1              @ ../Firmware/GD32E23x_standard_peripheral/Source/gd32e23x_rcu.c:932:19
	ldr	r0, [sp, #72]
	.loc	4 932 17 is_stmt 0              @ ../Firmware/GD32E23x_standard_peripheral/Source/gd32e23x_rcu.c:932:17
	str	r0, [sp, #96]
	.loc	4 933 9 is_stmt 1               @ ../Firmware/GD32E23x_standard_peripheral/Source/gd32e23x_rcu.c:933:9
	b	.LBB33_64
.LBB33_63:
	.loc	4 935 9                         @ ../Firmware/GD32E23x_standard_peripheral/Source/gd32e23x_rcu.c:935:9
	b	.LBB33_64
.Ltmp179:
.LBB33_64:
	.loc	4 937 12                        @ ../Firmware/GD32E23x_standard_peripheral/Source/gd32e23x_rcu.c:937:12
	ldr	r0, [sp, #96]
	.loc	4 937 5 is_stmt 0               @ ../Firmware/GD32E23x_standard_peripheral/Source/gd32e23x_rcu.c:937:5
	add	sp, #116
	bx	lr
.Ltmp180:
	.p2align	2
@ %bb.65:
	.loc	4 0 5                           @ ../Firmware/GD32E23x_standard_peripheral/Source/gd32e23x_rcu.c:0:5
__arm_cp.33_0:
	.long	151521030                       @ 0x9080706
.Lcpi_end52:
	.size	__arm_cp.33_0, .Lcpi_end52-__arm_cp.33_0
__arm_cp.33_1:
	.long	67305985                        @ 0x4030201
.Lcpi_end53:
	.size	__arm_cp.33_1, .Lcpi_end53-__arm_cp.33_1
__arm_cp.33_2:
	.long	1073876996                      @ 0x40021004
.Lcpi_end54:
	.size	__arm_cp.33_2, .Lcpi_end54-__arm_cp.33_2
__arm_cp.33_3:
	.long	4000000                         @ 0x3d0900
.Lcpi_end55:
	.size	__arm_cp.33_3, .Lcpi_end55-__arm_cp.33_3
__arm_cp.33_4:
	.long	1073877036                      @ 0x4002102c
.Lcpi_end56:
	.size	__arm_cp.33_4, .Lcpi_end56-__arm_cp.33_4
__arm_cp.33_5:
	.long	8000000                         @ 0x7a1200
.Lcpi_end57:
	.size	__arm_cp.33_5, .Lcpi_end57-__arm_cp.33_5
__arm_cp.33_6:
	.long	1073877040                      @ 0x40021030
.Lcpi_end58:
	.size	__arm_cp.33_6, .Lcpi_end58-__arm_cp.33_6
__arm_cp.33_7:
	.long	28000000                        @ 0x1ab3f00
.Lcpi_end59:
	.size	__arm_cp.33_7, .Lcpi_end59-__arm_cp.33_7
__arm_cp.33_8:
	.long	14000000                        @ 0xd59f80
.Lcpi_end60:
	.size	__arm_cp.33_8, .Lcpi_end60-__arm_cp.33_8
.Lfunc_end33:
	.size	rcu_clock_freq_get, .Lfunc_end33-rcu_clock_freq_get
	.cfi_endproc
	.cantunwind
	.fnend
                                        @ -- End function
	.section	.text.rcu_all_reset_flag_clear,"ax",%progbits
	.hidden	rcu_all_reset_flag_clear        @ -- Begin function rcu_all_reset_flag_clear
	.globl	rcu_all_reset_flag_clear
	.p2align	2
	.type	rcu_all_reset_flag_clear,%function
	.code	16                              @ @rcu_all_reset_flag_clear
	.thumb_func
rcu_all_reset_flag_clear:
.Lfunc_begin34:
	.loc	4 977 0 is_stmt 1               @ ../Firmware/GD32E23x_standard_peripheral/Source/gd32e23x_rcu.c:977:0
	.fnstart
	.cfi_startproc
@ %bb.0:
	ldr	r1, __arm_cp.34_0
.Ltmp181:
	.loc	4 978 16 prologue_end           @ ../Firmware/GD32E23x_standard_peripheral/Source/gd32e23x_rcu.c:978:16
	ldr	r0, [r1]
	movs	r2, #1
	lsls	r2, r2, #24
	orrs	r0, r2
	str	r0, [r1]
	.loc	4 979 1                         @ ../Firmware/GD32E23x_standard_peripheral/Source/gd32e23x_rcu.c:979:1
	bx	lr
.Ltmp182:
	.p2align	2
@ %bb.1:
	.loc	4 0 1 is_stmt 0                 @ ../Firmware/GD32E23x_standard_peripheral/Source/gd32e23x_rcu.c:0:1
__arm_cp.34_0:
	.long	1073877028                      @ 0x40021024
.Lcpi_end61:
	.size	__arm_cp.34_0, .Lcpi_end61-__arm_cp.34_0
.Lfunc_end34:
	.size	rcu_all_reset_flag_clear, .Lfunc_end34-rcu_all_reset_flag_clear
	.cfi_endproc
	.cantunwind
	.fnend
                                        @ -- End function
	.section	.text.rcu_interrupt_flag_get,"ax",%progbits
	.hidden	rcu_interrupt_flag_get          @ -- Begin function rcu_interrupt_flag_get
	.globl	rcu_interrupt_flag_get
	.p2align	2
	.type	rcu_interrupt_flag_get,%function
	.code	16                              @ @rcu_interrupt_flag_get
	.thumb_func
rcu_interrupt_flag_get:
.Lfunc_begin35:
	.loc	4 996 0 is_stmt 1               @ ../Firmware/GD32E23x_standard_peripheral/Source/gd32e23x_rcu.c:996:0
	.fnstart
	.cfi_startproc
@ %bb.0:
	.pad	#8
	sub	sp, #8
	.cfi_def_cfa_offset 8
                                        @ kill: def $r1 killed $r0
	mov	r1, sp
	strh	r0, [r1]
.Ltmp183:
	.loc	4 997 18 prologue_end           @ ../Firmware/GD32E23x_standard_peripheral/Source/gd32e23x_rcu.c:997:18
	ldrh	r0, [r1]
	lsrs	r0, r0, #6
	ldr	r2, __arm_cp.35_0
	ldr	r0, [r0, r2]
	.loc	4 997 42 is_stmt 0              @ ../Firmware/GD32E23x_standard_peripheral/Source/gd32e23x_rcu.c:997:42
	ldrh	r1, [r1]
	movs	r2, #31
	ands	r1, r2
.Ltmp184:
	.loc	4 997 8                         @ ../Firmware/GD32E23x_standard_peripheral/Source/gd32e23x_rcu.c:997:8
	lsrs	r0, r1
	lsls	r0, r0, #31
	cbz	r0, .LBB35_2
	b	.LBB35_1
.LBB35_1:
	.loc	4 0 8                           @ ../Firmware/GD32E23x_standard_peripheral/Source/gd32e23x_rcu.c:0:8
	add	r1, sp, #4
	movs	r0, #1
.Ltmp185:
	.loc	4 998 9 is_stmt 1               @ ../Firmware/GD32E23x_standard_peripheral/Source/gd32e23x_rcu.c:998:9
	strb	r0, [r1]
	b	.LBB35_3
.Ltmp186:
.LBB35_2:
	.loc	4 0 9 is_stmt 0                 @ ../Firmware/GD32E23x_standard_peripheral/Source/gd32e23x_rcu.c:0:9
	add	r1, sp, #4
	movs	r0, #0
.Ltmp187:
	.loc	4 1000 9 is_stmt 1              @ ../Firmware/GD32E23x_standard_peripheral/Source/gd32e23x_rcu.c:1000:9
	strb	r0, [r1]
	b	.LBB35_3
.Ltmp188:
.LBB35_3:
	.loc	4 0 9 is_stmt 0                 @ ../Firmware/GD32E23x_standard_peripheral/Source/gd32e23x_rcu.c:0:9
	add	r0, sp, #4
	.loc	4 1002 1 is_stmt 1              @ ../Firmware/GD32E23x_standard_peripheral/Source/gd32e23x_rcu.c:1002:1
	ldrb	r0, [r0]
	add	sp, #8
	bx	lr
.Ltmp189:
	.p2align	2
@ %bb.4:
	.loc	4 0 1 is_stmt 0                 @ ../Firmware/GD32E23x_standard_peripheral/Source/gd32e23x_rcu.c:0:1
__arm_cp.35_0:
	.long	1073876992                      @ 0x40021000
.Lcpi_end62:
	.size	__arm_cp.35_0, .Lcpi_end62-__arm_cp.35_0
.Lfunc_end35:
	.size	rcu_interrupt_flag_get, .Lfunc_end35-rcu_interrupt_flag_get
	.cfi_endproc
	.cantunwind
	.fnend
                                        @ -- End function
	.section	.text.rcu_interrupt_flag_clear,"ax",%progbits
	.hidden	rcu_interrupt_flag_clear        @ -- Begin function rcu_interrupt_flag_clear
	.globl	rcu_interrupt_flag_clear
	.p2align	2
	.type	rcu_interrupt_flag_clear,%function
	.code	16                              @ @rcu_interrupt_flag_clear
	.thumb_func
rcu_interrupt_flag_clear:
.Lfunc_begin36:
	.loc	4 1019 0 is_stmt 1              @ ../Firmware/GD32E23x_standard_peripheral/Source/gd32e23x_rcu.c:1019:0
	.fnstart
	.cfi_startproc
@ %bb.0:
	.pad	#4
	sub	sp, #4
	.cfi_def_cfa_offset 4
	mov	r1, r0
                                        @ kill: def $r0 killed $r1
	mov	r0, sp
	strh	r1, [r0]
.Ltmp190:
	.loc	4 1020 36 prologue_end          @ ../Firmware/GD32E23x_standard_peripheral/Source/gd32e23x_rcu.c:1020:36
	ldrh	r0, [r0]
	movs	r2, #31
	mov	r1, r0
	ands	r1, r2
	movs	r3, #1
	lsls	r3, r1
	.loc	4 1020 5 is_stmt 0              @ ../Firmware/GD32E23x_standard_peripheral/Source/gd32e23x_rcu.c:1020:5
	lsrs	r1, r0, #6
	ldr	r2, __arm_cp.36_0
	.loc	4 1020 33                       @ ../Firmware/GD32E23x_standard_peripheral/Source/gd32e23x_rcu.c:1020:33
	ldr	r0, [r1, r2]
	orrs	r0, r3
	str	r0, [r1, r2]
	.loc	4 1021 1 is_stmt 1              @ ../Firmware/GD32E23x_standard_peripheral/Source/gd32e23x_rcu.c:1021:1
	add	sp, #4
	bx	lr
.Ltmp191:
	.p2align	2
@ %bb.1:
	.loc	4 0 1 is_stmt 0                 @ ../Firmware/GD32E23x_standard_peripheral/Source/gd32e23x_rcu.c:0:1
__arm_cp.36_0:
	.long	1073876992                      @ 0x40021000
.Lcpi_end63:
	.size	__arm_cp.36_0, .Lcpi_end63-__arm_cp.36_0
.Lfunc_end36:
	.size	rcu_interrupt_flag_clear, .Lfunc_end36-rcu_interrupt_flag_clear
	.cfi_endproc
	.cantunwind
	.fnend
                                        @ -- End function
	.section	.text.rcu_interrupt_enable,"ax",%progbits
	.hidden	rcu_interrupt_enable            @ -- Begin function rcu_interrupt_enable
	.globl	rcu_interrupt_enable
	.p2align	2
	.type	rcu_interrupt_enable,%function
	.code	16                              @ @rcu_interrupt_enable
	.thumb_func
rcu_interrupt_enable:
.Lfunc_begin37:
	.loc	4 1037 0 is_stmt 1              @ ../Firmware/GD32E23x_standard_peripheral/Source/gd32e23x_rcu.c:1037:0
	.fnstart
	.cfi_startproc
@ %bb.0:
	.pad	#4
	sub	sp, #4
	.cfi_def_cfa_offset 4
	mov	r1, r0
                                        @ kill: def $r0 killed $r1
	mov	r0, sp
	strh	r1, [r0]
.Ltmp192:
	.loc	4 1038 30 prologue_end          @ ../Firmware/GD32E23x_standard_peripheral/Source/gd32e23x_rcu.c:1038:30
	ldrh	r0, [r0]
	movs	r2, #31
	mov	r1, r0
	ands	r1, r2
	movs	r3, #1
	lsls	r3, r1
	.loc	4 1038 5 is_stmt 0              @ ../Firmware/GD32E23x_standard_peripheral/Source/gd32e23x_rcu.c:1038:5
	lsrs	r1, r0, #6
	ldr	r2, __arm_cp.37_0
	.loc	4 1038 27                       @ ../Firmware/GD32E23x_standard_peripheral/Source/gd32e23x_rcu.c:1038:27
	ldr	r0, [r1, r2]
	orrs	r0, r3
	str	r0, [r1, r2]
	.loc	4 1039 1 is_stmt 1              @ ../Firmware/GD32E23x_standard_peripheral/Source/gd32e23x_rcu.c:1039:1
	add	sp, #4
	bx	lr
.Ltmp193:
	.p2align	2
@ %bb.1:
	.loc	4 0 1 is_stmt 0                 @ ../Firmware/GD32E23x_standard_peripheral/Source/gd32e23x_rcu.c:0:1
__arm_cp.37_0:
	.long	1073876992                      @ 0x40021000
.Lcpi_end64:
	.size	__arm_cp.37_0, .Lcpi_end64-__arm_cp.37_0
.Lfunc_end37:
	.size	rcu_interrupt_enable, .Lfunc_end37-rcu_interrupt_enable
	.cfi_endproc
	.cantunwind
	.fnend
                                        @ -- End function
	.section	.text.rcu_interrupt_disable,"ax",%progbits
	.hidden	rcu_interrupt_disable           @ -- Begin function rcu_interrupt_disable
	.globl	rcu_interrupt_disable
	.p2align	2
	.type	rcu_interrupt_disable,%function
	.code	16                              @ @rcu_interrupt_disable
	.thumb_func
rcu_interrupt_disable:
.Lfunc_begin38:
	.loc	4 1056 0 is_stmt 1              @ ../Firmware/GD32E23x_standard_peripheral/Source/gd32e23x_rcu.c:1056:0
	.fnstart
	.cfi_startproc
@ %bb.0:
	.pad	#4
	sub	sp, #4
	.cfi_def_cfa_offset 4
	mov	r1, r0
                                        @ kill: def $r0 killed $r1
	mov	r0, sp
	strh	r1, [r0]
.Ltmp194:
	.loc	4 1057 31 prologue_end          @ ../Firmware/GD32E23x_standard_peripheral/Source/gd32e23x_rcu.c:1057:31
	ldrh	r0, [r0]
	movs	r2, #31
	mov	r1, r0
	ands	r1, r2
	movs	r3, #1
	lsls	r3, r1
	.loc	4 1057 5 is_stmt 0              @ ../Firmware/GD32E23x_standard_peripheral/Source/gd32e23x_rcu.c:1057:5
	lsrs	r1, r0, #6
	ldr	r2, __arm_cp.38_0
	.loc	4 1057 27                       @ ../Firmware/GD32E23x_standard_peripheral/Source/gd32e23x_rcu.c:1057:27
	ldr	r0, [r1, r2]
	bics	r0, r3
	str	r0, [r1, r2]
	.loc	4 1058 1 is_stmt 1              @ ../Firmware/GD32E23x_standard_peripheral/Source/gd32e23x_rcu.c:1058:1
	add	sp, #4
	bx	lr
.Ltmp195:
	.p2align	2
@ %bb.1:
	.loc	4 0 1 is_stmt 0                 @ ../Firmware/GD32E23x_standard_peripheral/Source/gd32e23x_rcu.c:0:1
__arm_cp.38_0:
	.long	1073876992                      @ 0x40021000
.Lcpi_end65:
	.size	__arm_cp.38_0, .Lcpi_end65-__arm_cp.38_0
.Lfunc_end38:
	.size	rcu_interrupt_disable, .Lfunc_end38-rcu_interrupt_disable
	.cfi_endproc
	.cantunwind
	.fnend
                                        @ -- End function
	.type	.L__const.rcu_clock_freq_get.ahb_exp,%object @ @__const.rcu_clock_freq_get.ahb_exp
	.section	.rodata.cst16,"aM",%progbits,16
.L__const.rcu_clock_freq_get.ahb_exp:
	.ascii	"\000\000\000\000\000\000\000\000\001\002\003\004\006\007\b\t"
	.size	.L__const.rcu_clock_freq_get.ahb_exp, 16

	.type	.L__const.rcu_clock_freq_get.apb1_exp,%object @ @__const.rcu_clock_freq_get.apb1_exp
	.section	.rodata.cst8,"aM",%progbits,8
.L__const.rcu_clock_freq_get.apb1_exp:
	.ascii	"\000\000\000\000\001\002\003\004"
	.size	.L__const.rcu_clock_freq_get.apb1_exp, 8

	.type	.L__const.rcu_clock_freq_get.apb2_exp,%object @ @__const.rcu_clock_freq_get.apb2_exp
.L__const.rcu_clock_freq_get.apb2_exp:
	.ascii	"\000\000\000\000\001\002\003\004"
	.size	.L__const.rcu_clock_freq_get.apb2_exp, 8

	.section	".note.GNU-stack","",%progbits
	.eabi_attribute	30, 6	@ Tag_ABI_optimization_goals
	.ARM_attribute	16, 1	@ Tag_AV_eba