	.text
	.syntax unified
	.eabi_attribute	67, "2.09"	@ Tag_conformance
	.cpu	cortex-m23
	.eabi_attribute	6, 16	@ Tag_CPU_arch
	.eabi_attribute	7, 77	@ Tag_CPU_arch_profile
	.eabi_attribute	8, 0	@ Tag_ARM_ISA_use
	.eabi_attribute	9, 3	@ Tag_THUMB_ISA_use
	.eabi_attribute	34, 0	@ Tag_CPU_unaligned_access
	.eabi_attribute	17, 1	@ Tag_ABI_PCS_GOT_use
	.eabi_attribute	20, 2	@ Tag_ABI_FP_denormal
	.eabi_attribute	21, 0	@ Tag_ABI_FP_exceptions
	.eabi_attribute	23, 1	@ Tag_ABI_FP_number_model
	.eabi_attribute	24, 1	@ Tag_ABI_align_needed
	.eabi_attribute	25, 1	@ Tag_ABI_align_preserved
	.eabi_attribute	38, 1	@ Tag_ABI_FP_16bit_format
	.eabi_attribute	18, 2	@ Tag_ABI_PCS_wchar_t
	.eabi_attribute	26, 1	@ Tag_ABI_enum_size
	.eabi_attribute	14, 0	@ Tag_ABI_PCS_R9_use
	.file	"systick.c"
	.file	1 "D:\\GD32\\GD32E230\\Oscilloscope\\Project" "../User/systick.c"
	.file	2 "D:\\Keil_arm\\ARM\\ARMCLANG\\Bin\\..\\include" "stdint.h"
	.file	3 "D:/Keil_arm/pack/ARM/CMSIS/5.9.0/CMSIS/Core/Include" "core_cm23.h"
	.section	.text.systick_config,"ax",%progbits
	.hidden	systick_config                  @ -- Begin function systick_config
	.globl	systick_config
	.p2align	2
	.type	systick_config,%function
	.code	16                              @ @systick_config
	.thumb_func
systick_config:
.Lfunc_begin0:
	.loc	1 14 0                          @ ../User/systick.c:14:0
	.fnstart
	.cfi_sections .debug_frame
	.cfi_startproc
@ %bb.0:
	.save	{r7, lr}
	push	{r7, lr}
	.cfi_def_cfa_offset 8
	.cfi_offset lr, -4
	.cfi_offset r7, -8
	movs	r0, #4
	mvns	r0, r0
.Ltmp0:
	.loc	1 16 5 prologue_end             @ ../User/systick.c:16:5
	bl	systick_clksource_set
	.loc	1 17 24                         @ ../User/systick.c:17:24
	ldr	r0, __arm_cp.0_0
	ldr	r0, [r0]
	.loc	1 17 17 is_stmt 0               @ ../User/systick.c:17:17
	bl	__aeabi_ui2f
	ldr	r1, __arm_cp.0_1
	.loc	1 17 39                         @ ../User/systick.c:17:39
	bl	__aeabi_fdiv
	mov	r1, r0
	.loc	1 17 15                         @ ../User/systick.c:17:15
	ldr	r0, __arm_cp.0_2
	str	r1, [r0]
	.loc	1 18 24 is_stmt 1               @ ../User/systick.c:18:24
	ldr	r0, [r0]
	ldr	r1, __arm_cp.0_3
	.loc	1 18 34 is_stmt 0               @ ../User/systick.c:18:34
	bl	__aeabi_fmul
	.loc	1 18 15                         @ ../User/systick.c:18:15
	ldr	r1, __arm_cp.0_4
	str	r0, [r1]
	.loc	1 19 1 is_stmt 1                @ ../User/systick.c:19:1
	pop	{r7, pc}
.Ltmp1:
	.p2align	2
@ %bb.1:
	.loc	1 0 1 is_stmt 0                 @ ../User/systick.c:0:1
__arm_cp.0_0:
	.long	SystemCoreClock
.Lcpi_end0:
	.size	__arm_cp.0_0, .Lcpi_end0-__arm_cp.0_0
__arm_cp.0_1:
	.long	1257513984                      @ 0x4af42400
.Lcpi_end1:
	.size	__arm_cp.0_1, .Lcpi_end1-__arm_cp.0_1
__arm_cp.0_2:
	.long	count_1us
.Lcpi_end2:
	.size	__arm_cp.0_2, .Lcpi_end2-__arm_cp.0_2
__arm_cp.0_3:
	.long	1148846080                      @ 0x447a0000
.Lcpi_end3:
	.size	__arm_cp.0_3, .Lcpi_end3-__arm_cp.0_3
__arm_cp.0_4:
	.long	count_1ms
.Lcpi_end4:
	.size	__arm_cp.0_4, .Lcpi_end4-__arm_cp.0_4
.Lfunc_end0:
	.size	systick_config, .Lfunc_end0-systick_config
	.cfi_endproc
	.cantunwind
	.fnend
                                        @ -- End function
	.section	.text.delay_1us,"ax",%progbits
	.hidden	delay_1us                       @ -- Begin function delay_1us
	.globl	delay_1us
	.p2align	2
	.type	delay_1us,%function
	.code	16                              @ @delay_1us
	.thumb_func
delay_1us:
.Lfunc_begin1:
	.loc	1 28 0 is_stmt 1                @ ../User/systick.c:28:0
	.fnstart
	.cfi_startproc
@ %bb.0:
	.save	{r7, lr}
	push	{r7, lr}
	.cfi_def_cfa_offset 8
	.cfi_offset lr, -4
	.cfi_offset r7, -8
	.pad	#16
	sub	sp, #16
	.cfi_def_cfa_offset 24
	str	r0, [sp, #12]
.Ltmp2:
	.loc	1 32 32 prologue_end            @ ../User/systick.c:32:32
	ldr	r0, [sp, #12]
	bl	__aeabi_ui2f
	.loc	1 32 40 is_stmt 0               @ ../User/systick.c:32:40
	ldr	r1, __arm_cp.1_0
	ldr	r1, [r1]
	.loc	1 32 38                         @ ../User/systick.c:32:38
	bl	__aeabi_fmul
	.loc	1 32 21                         @ ../User/systick.c:32:21
	bl	__aeabi_f2uiz
	ldr	r1, __arm_cp.1_1
	.loc	1 32 19                         @ ../User/systick.c:32:19
	str	r0, [r1]
	ldr	r1, __arm_cp.1_2
	movs	r0, #0
	.loc	1 34 18 is_stmt 1               @ ../User/systick.c:34:18
	str	r0, [r1]
	ldr	r1, __arm_cp.1_3
	movs	r0, #1
	.loc	1 36 19                         @ ../User/systick.c:36:19
	str	r0, [r1]
	.loc	1 38 5                          @ ../User/systick.c:38:5
	b	.LBB1_1
.LBB1_1:                                @ =>This Inner Loop Header: Depth=1
	.loc	1 0 5 is_stmt 0                 @ ../User/systick.c:0:5
	ldr	r0, __arm_cp.1_3
.Ltmp3:
	.loc	1 39 24 is_stmt 1               @ ../User/systick.c:39:24
	ldr	r0, [r0]
	.loc	1 39 13 is_stmt 0               @ ../User/systick.c:39:13
	str	r0, [sp, #8]
	.loc	1 40 5 is_stmt 1                @ ../User/systick.c:40:5
	b	.LBB1_2
.Ltmp4:
.LBB1_2:                                @   in Loop: Header=BB1_1 Depth=1
	.loc	1 0 5 is_stmt 0                 @ ../User/systick.c:0:5
	movs	r0, #0
	add	r1, sp, #8
	.loc	1 40 41                         @ ../User/systick.c:40:41
	ldrb	r1, [r1]
	lsls	r1, r1, #31
	str	r0, [sp, #4]                    @ 4-byte Spill
	cbz	r1, .LBB1_4
	b	.LBB1_3
.LBB1_3:                                @   in Loop: Header=BB1_1 Depth=1
	.loc	1 0 41                          @ ../User/systick.c:0:41
	add	r0, sp, #8
	.loc	1 40 43                         @ ../User/systick.c:40:43
	ldrb	r0, [r0, #2]
	movs	r1, #1
	ands	r0, r1
	rsbs	r1, r0, #0
	adcs	r0, r1
	str	r0, [sp, #4]                    @ 4-byte Spill
	b	.LBB1_4
.LBB1_4:                                @   in Loop: Header=BB1_1 Depth=1
	.loc	1 0 0                           @ ../User/systick.c:0:0
	ldr	r0, [sp, #4]                    @ 4-byte Reload
.Ltmp5:
	.loc	1 40 5                          @ ../User/systick.c:40:5
	lsls	r0, r0, #31
	cmp	r0, #0
	bne	.LBB1_1
	b	.LBB1_5
.Ltmp6:
.LBB1_5:
	.loc	1 0 5                           @ ../User/systick.c:0:5
	ldr	r1, __arm_cp.1_3
	.loc	1 42 19 is_stmt 1               @ ../User/systick.c:42:19
	ldr	r0, [r1]
	movs	r2, #1
	bics	r0, r2
	str	r0, [r1]
	ldr	r1, __arm_cp.1_2
	movs	r0, #0
	.loc	1 44 18                         @ ../User/systick.c:44:18
	str	r0, [r1]
	.loc	1 45 1                          @ ../User/systick.c:45:1
	add	sp, #16
	pop	{r7, pc}
.Ltmp7:
	.p2align	2
@ %bb.6:
	.loc	1 0 1 is_stmt 0                 @ ../User/systick.c:0:1
__arm_cp.1_0:
	.long	count_1us
.Lcpi_end5:
	.size	__arm_cp.1_0, .Lcpi_end5-__arm_cp.1_0
__arm_cp.1_1:
	.long	3758153748                      @ 0xe000e014
.Lcpi_end6:
	.size	__arm_cp.1_1, .Lcpi_end6-__arm_cp.1_1
__arm_cp.1_2:
	.long	3758153752                      @ 0xe000e018
.Lcpi_end7:
	.size	__arm_cp.1_2, .Lcpi_end7-__arm_cp.1_2
__arm_cp.1_3:
	.long	3758153744                      @ 0xe000e010
.Lcpi_end8:
	.size	__arm_cp.1_3, .Lcpi_end8-__arm_cp.1_3
.Lfunc_end1:
	.size	delay_1us, .Lfunc_end1-delay_1us
	.cfi_endproc
	.cantunwind
	.fnend
                                        @ -- End function
	.section	.text.delay_us,"ax",%progbits
	.hidden	delay_us                        @ -- Begin function delay_us
	.globl	delay_us
	.p2align	2
	.type	delay_us,%function
	.code	16                              @ @delay_us
	.thumb_func
delay_us:
.Lfunc_begin2:
	.loc	1 49 0 is_stmt 1                @ ../User/systick.c:49:0
	.fnstart
	.cfi_startproc
@ %bb.0:
	.save	{r7, lr}
	push	{r7, lr}
	.cfi_def_cfa_offset 8
	.cfi_offset lr, -4
	.cfi_offset r7, -8
	.pad	#16
	sub	sp, #16
	.cfi_def_cfa_offset 24
	str	r0, [sp, #12]
.Ltmp8:
	.loc	1 53 32 prologue_end            @ ../User/systick.c:53:32
	ldr	r0, [sp, #12]
	bl	__aeabi_ui2f
	.loc	1 53 40 is_stmt 0               @ ../User/systick.c:53:40
	ldr	r1, __arm_cp.2_0
	ldr	r1, [r1]
	.loc	1 53 38                         @ ../User/systick.c:53:38
	bl	__aeabi_fmul
	.loc	1 53 21                         @ ../User/systick.c:53:21
	bl	__aeabi_f2uiz
	ldr	r1, __arm_cp.2_1
	.loc	1 53 19                         @ ../User/systick.c:53:19
	str	r0, [r1]
	ldr	r1, __arm_cp.2_2
	movs	r0, #0
	.loc	1 55 18 is_stmt 1               @ ../User/systick.c:55:18
	str	r0, [r1]
	ldr	r1, __arm_cp.2_3
	movs	r0, #1
	.loc	1 57 19                         @ ../User/systick.c:57:19
	str	r0, [r1]
	.loc	1 59 5                          @ ../User/systick.c:59:5
	b	.LBB2_1
.LBB2_1:                                @ =>This Inner Loop Header: Depth=1
	.loc	1 0 5 is_stmt 0                 @ ../User/systick.c:0:5
	ldr	r0, __arm_cp.2_3
.Ltmp9:
	.loc	1 60 24 is_stmt 1               @ ../User/systick.c:60:24
	ldr	r0, [r0]
	.loc	1 60 13 is_stmt 0               @ ../User/systick.c:60:13
	str	r0, [sp, #8]
	.loc	1 61 5 is_stmt 1                @ ../User/systick.c:61:5
	b	.LBB2_2
.Ltmp10:
.LBB2_2:                                @   in Loop: Header=BB2_1 Depth=1
	.loc	1 0 5 is_stmt 0                 @ ../User/systick.c:0:5
	movs	r0, #0
	add	r1, sp, #8
	.loc	1 61 41                         @ ../User/systick.c:61:41
	ldrb	r1, [r1]
	lsls	r1, r1, #31
	str	r0, [sp, #4]                    @ 4-byte Spill
	cbz	r1, .LBB2_4
	b	.LBB2_3
.LBB2_3:                                @   in Loop: Header=BB2_1 Depth=1
	.loc	1 0 41                          @ ../User/systick.c:0:41
	add	r0, sp, #8
	.loc	1 61 43                         @ ../User/systick.c:61:43
	ldrb	r0, [r0, #2]
	movs	r1, #1
	ands	r0, r1
	rsbs	r1, r0, #0
	adcs	r0, r1
	str	r0, [sp, #4]                    @ 4-byte Spill
	b	.LBB2_4
.LBB2_4:                                @   in Loop: Header=BB2_1 Depth=1
	.loc	1 0 0                           @ ../User/systick.c:0:0
	ldr	r0, [sp, #4]                    @ 4-byte Reload
.Ltmp11:
	.loc	1 61 5                          @ ../User/systick.c:61:5
	lsls	r0, r0, #31
	cmp	r0, #0
	bne	.LBB2_1
	b	.LBB2_5
.Ltmp12:
.LBB2_5:
	.loc	1 0 5                           @ ../User/systick.c:0:5
	ldr	r1, __arm_cp.2_3
	.loc	1 63 19 is_stmt 1               @ ../User/systick.c:63:19
	ldr	r0, [r1]
	movs	r2, #1
	bics	r0, r2
	str	r0, [r1]
	ldr	r1, __arm_cp.2_2
	movs	r0, #0
	.loc	1 65 18                         @ ../User/systick.c:65:18
	str	r0, [r1]
	.loc	1 66 1                          @ ../User/systick.c:66:1
	add	sp, #16
	pop	{r7, pc}
.Ltmp13:
	.p2align	2
@ %bb.6:
	.loc	1 0 1 is_stmt 0                 @ ../User/systick.c:0:1
__arm_cp.2_0:
	.long	count_1us
.Lcpi_end9:
	.size	__arm_cp.2_0, .Lcpi_end9-__arm_cp.2_0
__arm_cp.2_1:
	.long	3758153748                      @ 0xe000e014
.Lcpi_end10:
	.size	__arm_cp.2_1, .Lcpi_end10-__arm_cp.2_1
__arm_cp.2_2:
	.long	3758153752                      @ 0xe000e018
.Lcpi_end11:
	.size	__arm_cp.2_2, .Lcpi_end11-__arm_cp.2_2
__arm_cp.2_3:
	.long	3758153744                      @ 0xe000e010
.Lcpi_end12:
	.size	__arm_cp.2_3, .Lcpi_end12-__arm_cp.2_3
.Lfunc_end2:
	.size	delay_us, .Lfunc_end2-delay_us
	.cfi_endproc
	.cantunwind
	.fnend
                                        @ -- End function
	.section	.text.delay_1ms,"ax",%progbits
	.hidden	delay_1ms                       @ -- Begin function delay_1ms
	.globl	delay_1ms
	.p2align	2
	.type	delay_1ms,%function
	.code	16                              @ @delay_1ms
	.thumb_func
delay_1ms:
.Lfunc_begin3:
	.loc	1 76 0 is_stmt 1                @ ../User/systick.c:76:0
	.fnstart
	.cfi_startproc
@ %bb.0:
	.save	{r7, lr}
	push	{r7, lr}
	.cfi_def_cfa_offset 8
	.cfi_offset lr, -4
	.cfi_offset r7, -8
	.pad	#16
	sub	sp, #16
	.cfi_def_cfa_offset 24
	str	r0, [sp, #12]
.Ltmp14:
	.loc	1 80 32 prologue_end            @ ../User/systick.c:80:32
	ldr	r0, [sp, #12]
	bl	__aeabi_ui2f
	.loc	1 80 40 is_stmt 0               @ ../User/systick.c:80:40
	ldr	r1, __arm_cp.3_0
	ldr	r1, [r1]
	.loc	1 80 38                         @ ../User/systick.c:80:38
	bl	__aeabi_fmul
	.loc	1 80 21                         @ ../User/systick.c:80:21
	bl	__aeabi_f2uiz
	ldr	r1, __arm_cp.3_1
	.loc	1 80 19                         @ ../User/systick.c:80:19
	str	r0, [r1]
	ldr	r1, __arm_cp.3_2
	movs	r0, #0
	.loc	1 82 18 is_stmt 1               @ ../User/systick.c:82:18
	str	r0, [r1]
	ldr	r1, __arm_cp.3_3
	movs	r0, #1
	.loc	1 84 19                         @ ../User/systick.c:84:19
	str	r0, [r1]
	.loc	1 86 5                          @ ../User/systick.c:86:5
	b	.LBB3_1
.LBB3_1:                                @ =>This Inner Loop Header: Depth=1
	.loc	1 0 5 is_stmt 0                 @ ../User/systick.c:0:5
	ldr	r0, __arm_cp.3_3
.Ltmp15:
	.loc	1 87 24 is_stmt 1               @ ../User/systick.c:87:24
	ldr	r0, [r0]
	.loc	1 87 13 is_stmt 0               @ ../User/systick.c:87:13
	str	r0, [sp, #8]
	.loc	1 88 5 is_stmt 1                @ ../User/systick.c:88:5
	b	.LBB3_2
.Ltmp16:
.LBB3_2:                                @   in Loop: Header=BB3_1 Depth=1
	.loc	1 0 5 is_stmt 0                 @ ../User/systick.c:0:5
	movs	r0, #0
	add	r1, sp, #8
	.loc	1 88 41                         @ ../User/systick.c:88:41
	ldrb	r1, [r1]
	lsls	r1, r1, #31
	str	r0, [sp, #4]                    @ 4-byte Spill
	cbz	r1, .LBB3_4
	b	.LBB3_3
.LBB3_3:                                @   in Loop: Header=BB3_1 Depth=1
	.loc	1 0 41                          @ ../User/systick.c:0:41
	add	r0, sp, #8
	.loc	1 88 43                         @ ../User/systick.c:88:43
	ldrb	r0, [r0, #2]
	movs	r1, #1
	ands	r0, r1
	rsbs	r1, r0, #0
	adcs	r0, r1
	str	r0, [sp, #4]                    @ 4-byte Spill
	b	.LBB3_4
.LBB3_4:                                @   in Loop: Header=BB3_1 Depth=1
	.loc	1 0 0                           @ ../User/systick.c:0:0
	ldr	r0, [sp, #4]                    @ 4-byte Reload
.Ltmp17:
	.loc	1 88 5                          @ ../User/systick.c:88:5
	lsls	r0, r0, #31
	cmp	r0, #0
	bne	.LBB3_1
	b	.LBB3_5
.Ltmp18:
.LBB3_5:
	.loc	1 0 5                           @ ../User/systick.c:0:5
	ldr	r1, __arm_cp.3_3
	.loc	1 90 19 is_stmt 1               @ ../User/systick.c:90:19
	ldr	r0, [r1]
	movs	r2, #1
	bics	r0, r2
	str	r0, [r1]
	ldr	r1, __arm_cp.3_2
	movs	r0, #0
	.loc	1 92 18                         @ ../User/systick.c:92:18
	str	r0, [r1]
	.loc	1 93 1                          @ ../User/systick.c:93:1
	add	sp, #16
	pop	{r7, pc}
.Ltmp19:
	.p2align	2
@ %bb.6:
	.loc	1 0 1 is_stmt 0                 @ ../User/systick.c:0:1
__arm_cp.3_0:
	.long	count_1ms
.Lcpi_end13:
	.size	__arm_cp.3_0, .Lcpi_end13-__arm_cp.3_0
__arm_cp.3_1:
	.long	3758153748                      @ 0xe000e014
.Lcpi_end14:
	.size	__arm_cp.3_1, .Lcpi_end14-__arm_cp.3_1
__arm_cp.3_2:
	.long	3758153752                      @ 0xe000e018
.Lcpi_end15:
	.size	__arm_cp.3_2, .Lcpi_end15-__arm_cp.3_2
__arm_cp.3_3:
	.long	3758153744                      @ 0xe000e010
.Lcpi_end16:
	.size	__arm_cp.3_3, .Lcpi_end16-__arm_cp.3_3
.Lfunc_end3:
	.size	delay_1ms, .Lfunc_end3-delay_1ms
	.cfi_endproc
	.cantunwind
	.fnend
                                        @ -- End function
	.section	.text.delay_ms,"ax",%progbits
	.hidden	delay_ms                        @ -- Begin function delay_ms
	.globl	delay_ms
	.p2align	2
	.type	delay_ms,%function
	.code	16                              @ @delay_ms
	.thumb_func
delay_ms:
.Lfunc_begin4:
	.loc	1 96 0 is_stmt 1                @ ../User/systick.c:96:0
	.fnstart
	.cfi_startproc
@ %bb.0:
	.save	{r7, lr}
	push	{r7, lr}
	.cfi_def_cfa_offset 8
	.cfi_offset lr, -4
	.cfi_offset r7, -8
	.pad	#16
	sub	sp, #16
	.cfi_def_cfa_offset 24
	str	r0, [sp, #12]
.Ltmp20:
	.loc	1 100 32 prologue_end           @ ../User/systick.c:100:32
	ldr	r0, [sp, #12]
	bl	__aeabi_ui2f
	.loc	1 100 40 is_stmt 0              @ ../User/systick.c:100:40
	ldr	r1, __arm_cp.4_0
	ldr	r1, [r1]
	.loc	1 100 38                        @ ../User/systick.c:100:38
	bl	__aeabi_fmul
	.loc	1 100 21                        @ ../User/systick.c:100:21
	bl	__aeabi_f2uiz
	ldr	r1, __arm_cp.4_1
	.loc	1 100 19                        @ ../User/systick.c:100:19
	str	r0, [r1]
	ldr	r1, __arm_cp.4_2
	movs	r0, #0
	.loc	1 102 18 is_stmt 1              @ ../User/systick.c:102:18
	str	r0, [r1]
	ldr	r1, __arm_cp.4_3
	movs	r0, #1
	.loc	1 104 19                        @ ../User/systick.c:104:19
	str	r0, [r1]
	.loc	1 106 5                         @ ../User/systick.c:106:5
	b	.LBB4_1
.LBB4_1:                                @ =>This Inner Loop Header: Depth=1
	.loc	1 0 5 is_stmt 0                 @ ../User/systick.c:0:5
	ldr	r0, __arm_cp.4_3
.Ltmp21:
	.loc	1 107 24 is_stmt 1              @ ../User/systick.c:107:24
	ldr	r0, [r0]
	.loc	1 107 13 is_stmt 0              @ ../User/systick.c:107:13
	str	r0, [sp, #8]
	.loc	1 108 5 is_stmt 1               @ ../User/systick.c:108:5
	b	.LBB4_2
.Ltmp22:
.LBB4_2:                                @   in Loop: Header=BB4_1 Depth=1
	.loc	1 0 5 is_stmt 0                 @ ../User/systick.c:0:5
	movs	r0, #0
	add	r1, sp, #8
	.loc	1 108 41                        @ ../User/systick.c:108:41
	ldrb	r1, [r1]
	lsls	r1, r1, #31
	str	r0, [sp, #4]                    @ 4-byte Spill
	cbz	r1, .LBB4_4
	b	.LBB4_3
.LBB4_3:                                @   in Loop: Header=BB4_1 Depth=1
	.loc	1 0 41                          @ ../User/systick.c:0:41
	add	r0, sp, #8
	.loc	1 108 43                        @ ../User/systick.c:108:43
	ldrb	r0, [r0, #2]
	movs	r1, #1
	ands	r0, r1
	rsbs	r1, r0, #0
	adcs	r0, r1
	str	r0, [sp, #4]                    @ 4-byte Spill
	b	.LBB4_4
.LBB4_4:                                @   in Loop: Header=BB4_1 Depth=1
	.loc	1 0 0                           @ ../User/systick.c:0:0
	ldr	r0, [sp, #4]                    @ 4-byte Reload
.Ltmp23:
	.loc	1 108 5                         @ ../User/systick.c:108:5
	lsls	r0, r0, #31
	cmp	r0, #0
	bne	.LBB4_1
	b	.LBB4_5
.Ltmp24:
.LBB4_5:
	.loc	1 0 5                           @ ../User/systick.c:0:5
	ldr	r1, __arm_cp.4_3
	.loc	1 110 19 is_stmt 1              @ ../User/systick.c:110:19
	ldr	r0, [r1]
	movs	r2, #1
	bics	r0, r2
	str	r0, [r1]
	ldr	r1, __arm_cp.4_2
	movs	r0, #0
	.loc	1 112 18                        @ ../User/systick.c:112:18
	str	r0, [r1]
	.loc	1 113 1                         @ ../User/systick.c:113:1
	add	sp, #16
	pop	{r7, pc}
.Ltmp25:
	.p2align	2
@ %bb.6:
	.loc	1 0 1 is_stmt 0                 @ ../User/systick.c:0:1
__arm_cp.4_0:
	.long	count_1ms
.Lcpi_end17:
	.size	__arm_cp.4_0, .Lcpi_end17-__arm_cp.4_0
__arm_cp.4_1:
	.long	3758153748                      @ 0xe000e014
.Lcpi_end18:
	.size	__arm_cp.4_1, .Lcpi_end18-__arm_cp.4_1
__arm_cp.4_2:
	.long	3758153752                      @ 0xe000e018
.Lcpi_end19:
	.size	__arm_cp.4_2, .Lcpi_end19-__arm_cp.4_2
__arm_cp.4_3:
	.long	3758153744                      @ 0xe000e010
.Lcpi_end20:
	.size	__arm_cp.4_3, .Lcpi_end20-__arm_cp.4_3
.Lfunc_end4:
	.size	delay_ms, .Lfunc_end4-delay_ms
	.cfi_endproc
	.cantunwind
	.fnend
                                        @ -- End function
	.type	count_1us,%object               @ @count_1us
	.section	.bss.count_1us,"aw",%nobits
	.p2align	2, 0x0
count_1us:
	.long	0x00000000                      @ float 0
	.size	count_1us, 4

	.type	count_1ms,%object               @ @count_1ms
	.section	.bss.count_1ms,"aw",%nobits
	.p2align	2, 0x0
count_1ms:
	.long	0x00000000                      @ float 0
	.size	count_1ms, 4

	.section	".note.GNU-stack","",%progbits
	.eabi_attribute	30, 6	@ Tag_ABI_optimization_goals
	.ARM_attribute	16, 1	@ Tag_AV_eba